;
; File generated by cc65 v 2.18 - Debian 2.19-1
;
	.fopt		compiler,"cc65 v 2.18 - Debian 2.19-1"
	.setcpu		"6502"
	.smart		on
	.autoimport	on
	.case		on
	.debuginfo	off
	.importzp	sp, sreg, regsave, regbank
	.importzp	tmp1, tmp2, tmp3, tmp4, ptr1, ptr2, ptr3, ptr4
	.macpack	longbranch
	.forceimport	__STARTUP__
	.import		_pal_bg
	.import		_pal_spr
	.import		_pal_col
	.import		_ppu_wait_nmi
	.import		_ppu_off
	.import		_ppu_on_all
	.import		_ppu_mask
	.import		_oam_clear
	.import		_oam_meta_spr
	.import		_music_play
	.import		_music_stop
	.import		_sfx_play
	.import		_pad_poll
	.import		_bank_spr
	.import		_memcpy
	.import		_set_vram_buffer
	.import		_get_pad_new
	.import		_check_collision
	.import		_set_scroll_x
	.import		_set_scroll_y
	.import		_get_ppu_addr
	.import		_set_data_pointer
	.import		_set_mt_pointer
	.import		_buffer_4_mt
	.import		_flush_vram_update2
	.import		_gray_line
	.export		_cube_rotate
	.export		_pad1
	.export		_pad1_new
	.export		_collision
	.export		_collision_L
	.export		_collision_R
	.export		_collision_U
	.export		_collision_D
	.export		_coordinates
	.export		_temp1
	.export		_temp2
	.export		_temp3
	.export		_temp4
	.export		_temp5
	.export		_temp6
	.export		_gravity
	.export		_eject_L
	.export		_eject_R
	.export		_eject_D
	.export		_eject_U
	.export		_direction
	.export		_address
	.export		_x
	.export		_y
	.export		_nt
	.export		_index
	.export		_index2
	.export		_room
	.export		_map
	.export		_scroll_x
	.export		_scroll_y
	.export		_scroll_count
	.export		_pseudo_scroll_x
	.export		_L_R_switch
	.export		_old_x
	.export		_temp_x
	.export		_temp_y
	.export		_map_loaded
	.export		_temp_room
	.export		_song
	.export		_cube_data
	.export		_gamemode
	.export		_level
	.export		_pointer
	.export		_c_map
	.export		_c_map2
	.export		_Generic
	.export		_Generic2
	.export		_Cube
	.export		_obj_x
	.export		_obj_y
	.export		_obj_active
	.export		_obj_room
	.export		_obj_actual_x
	.export		_obj_type
	.export		_palette_bg
	.export		_palette_sp
	.export		_metatiles1
	.export		_is_solid
	.export		_Cube_0
	.export		_Cube_1
	.export		_Cube_2
	.export		_Cube_3
	.export		_Cube_4
	.export		_Cube_5
	.export		_CUBE
	.export		_Ship_0
	.export		_Ship_1
	.export		_Ship_2
	.export		_Ship_3
	.export		_Ship_4
	.export		_Ship_5
	.export		_Ship_6
	.export		_SHIP
	.export		_Portal_Gamemode_Cube
	.export		_Portal_Gamemode_Ship
	.export		_Portal_Gravity_Down
	.export		_Portal_Gravity_Up
	.export		_Portals
	.export		_stereomadness__0
	.export		_stereomadness__1
	.export		_stereomadness__2
	.export		_stereomadness__3
	.export		_stereomadness__4
	.export		_stereomadness__5
	.export		_stereomadness__6
	.export		_stereomadness__7
	.export		_stereomadness__8
	.export		_stereomadness__9
	.export		_stereomadness__10
	.export		_stereomadness__11
	.export		_stereomadness__12
	.export		_stereomadness__13
	.export		_stereomadness__14
	.export		_stereomadness__15
	.export		_stereomadness__16
	.export		_stereomadness__17
	.export		_stereomadness__18
	.export		_stereomadness__19
	.export		_stereomadness__20
	.export		_stereomadness__21
	.export		_stereomadness__22
	.export		_stereomadness__23
	.export		_stereomadness__24
	.export		_stereomadness__25
	.export		_stereomadness__26
	.export		_stereomadness__27
	.export		_stereomadness__28
	.export		_stereomadness__29
	.export		_stereomadness__30
	.export		_stereomadness__31
	.export		_stereomadness__32
	.export		_stereomadness__33
	.export		_stereomadness__34
	.export		_stereomadness__35
	.export		_stereomadness__36
	.export		_stereomadness__37
	.export		_stereomadness__38
	.export		_stereomadness__39
	.export		_stereomadness__40
	.export		_stereomadness__41
	.export		_stereomadness__42
	.export		_stereomadness__43
	.export		_stereomadness__44
	.export		_stereomadness__45
	.export		_stereomadness__46
	.export		_stereomadness__47
	.export		_stereomadness__48
	.export		_stereomadness__49
	.export		_stereomadness__50
	.export		_stereomadness__51
	.export		_stereomadness__52
	.export		_stereomadness__53
	.export		_stereomadness__54
	.export		_stereomadness__55
	.export		_stereomadness__56
	.export		_stereomadness__57
	.export		_stereomadness__list
	.export		_Rooms
	.export		_load_room
	.export		_draw_sprites
	.export		_cube_movement
	.export		_draw_screen_R
	.export		_new_cmap
	.export		_reset_level
	.export		_orbjump
	.export		_padjump
	.export		_update_colors
	.export		_sprite_obj_init
	.export		_sprite_collisions
	.export		_check_spr_objects
	.export		_bg_collision_sub
	.export		_bg_coll_L
	.export		_bg_coll_R
	.export		_bg_coll_U
	.export		_bg_coll_D
	.export		_bg_coll_D2
	.export		_bg_coll_death
	.export		_bg_coll_orbs
	.export		_bg_coll_pads
	.export		_get_position
	.export		_obj_stereomadness
	.export		_obj_list
	.export		_bg_coll_U2
	.export		_ship_movement
	.export		_main

.segment	"DATA"

_Cube:
	.word	$0000
	.word	$B400
	.res	4,$00

.segment	"RODATA"

_palette_bg:
	.byte	$21
	.byte	$0C
	.byte	$0F
	.byte	$30
	.byte	$0F
	.byte	$01
	.byte	$11
	.byte	$30
	.byte	$0F
	.byte	$28
	.byte	$14
	.byte	$30
	.byte	$0F
	.byte	$0F
	.byte	$00
	.byte	$30
_palette_sp:
	.byte	$00
	.byte	$0F
	.byte	$2A
	.byte	$21
	.byte	$00
	.byte	$0F
	.byte	$2A
	.byte	$24
	.byte	$00
	.byte	$0F
	.byte	$21
	.byte	$28
	.byte	$00
	.byte	$14
	.byte	$24
	.byte	$34
_metatiles1:
	.byte	$00
	.byte	$00
	.byte	$00
	.byte	$00
	.byte	$00
	.byte	$0A
	.byte	$0B
	.byte	$1A
	.byte	$1B
	.byte	$01
	.byte	$1A
	.byte	$1B
	.byte	$1A
	.byte	$1B
	.byte	$01
	.byte	$2A
	.byte	$2B
	.byte	$2A
	.byte	$2B
	.byte	$01
	.byte	$2A
	.byte	$2B
	.byte	$3A
	.byte	$3B
	.byte	$01
	.byte	$0B
	.byte	$0B
	.byte	$1B
	.byte	$1B
	.byte	$01
	.byte	$1B
	.byte	$1B
	.byte	$1B
	.byte	$1B
	.byte	$01
	.byte	$2B
	.byte	$2B
	.byte	$2B
	.byte	$2B
	.byte	$01
	.byte	$2B
	.byte	$2B
	.byte	$3B
	.byte	$3B
	.byte	$01
	.byte	$FF
	.byte	$FF
	.byte	$FF
	.byte	$FF
	.byte	$01
	.byte	$FF
	.byte	$FF
	.byte	$FF
	.byte	$FF
	.byte	$01
	.byte	$FF
	.byte	$FF
	.byte	$FF
	.byte	$FF
	.byte	$01
	.byte	$FF
	.byte	$FF
	.byte	$FF
	.byte	$FF
	.byte	$01
	.byte	$FF
	.byte	$FF
	.byte	$FF
	.byte	$FF
	.byte	$01
	.byte	$FF
	.byte	$FF
	.byte	$FF
	.byte	$FF
	.byte	$01
	.byte	$FF
	.byte	$FF
	.byte	$FF
	.byte	$FF
	.byte	$01
	.byte	$20
	.byte	$21
	.byte	$30
	.byte	$31
	.byte	$00
	.byte	$22
	.byte	$23
	.byte	$32
	.byte	$33
	.byte	$00
	.byte	$00
	.byte	$00
	.byte	$34
	.byte	$35
	.byte	$00
	.byte	$00
	.byte	$00
	.byte	$B0
	.byte	$B1
	.byte	$02
	.byte	$A2
	.byte	$A3
	.byte	$B2
	.byte	$B3
	.byte	$02
	.byte	$00
	.byte	$00
	.byte	$B4
	.byte	$B5
	.byte	$02
	.byte	$A6
	.byte	$A7
	.byte	$B6
	.byte	$B7
	.byte	$02
	.byte	$E2
	.byte	$E7
	.byte	$00
	.byte	$00
	.byte	$00
	.byte	$00
	.byte	$00
	.byte	$36
	.byte	$37
	.byte	$00
	.byte	$24
	.byte	$25
	.byte	$00
	.byte	$00
	.byte	$00
	.byte	$0C
	.byte	$0D
	.byte	$1C
	.byte	$1D
	.byte	$00
	.byte	$2C
	.byte	$2D
	.byte	$3C
	.byte	$3D
	.byte	$00
	.byte	$0E
	.byte	$0F
	.byte	$1E
	.byte	$1F
	.byte	$00
	.byte	$28
	.byte	$00
	.byte	$38
	.byte	$00
	.byte	$00
	.byte	$26
	.byte	$27
	.byte	$00
	.byte	$00
	.byte	$00
	.byte	$00
	.byte	$29
	.byte	$00
	.byte	$39
	.byte	$00
	.byte	$40
	.byte	$41
	.byte	$50
	.byte	$51
	.byte	$00
	.byte	$44
	.byte	$45
	.byte	$56
	.byte	$57
	.byte	$00
	.byte	$46
	.byte	$43
	.byte	$56
	.byte	$53
	.byte	$00
	.byte	$46
	.byte	$47
	.byte	$54
	.byte	$55
	.byte	$00
	.byte	$42
	.byte	$47
	.byte	$52
	.byte	$57
	.byte	$00
	.byte	$40
	.byte	$45
	.byte	$52
	.byte	$57
	.byte	$00
	.byte	$44
	.byte	$41
	.byte	$56
	.byte	$53
	.byte	$00
	.byte	$46
	.byte	$43
	.byte	$54
	.byte	$51
	.byte	$00
	.byte	$42
	.byte	$47
	.byte	$50
	.byte	$55
	.byte	$00
	.byte	$48
	.byte	$47
	.byte	$56
	.byte	$57
	.byte	$00
	.byte	$46
	.byte	$49
	.byte	$56
	.byte	$57
	.byte	$00
	.byte	$46
	.byte	$47
	.byte	$56
	.byte	$59
	.byte	$00
	.byte	$46
	.byte	$47
	.byte	$58
	.byte	$57
	.byte	$00
	.byte	$42
	.byte	$43
	.byte	$52
	.byte	$53
	.byte	$00
	.byte	$44
	.byte	$45
	.byte	$54
	.byte	$55
	.byte	$00
	.byte	$46
	.byte	$47
	.byte	$56
	.byte	$57
	.byte	$00
	.byte	$40
	.byte	$41
	.byte	$52
	.byte	$53
	.byte	$00
	.byte	$44
	.byte	$41
	.byte	$54
	.byte	$51
	.byte	$00
	.byte	$42
	.byte	$43
	.byte	$50
	.byte	$51
	.byte	$00
	.byte	$40
	.byte	$45
	.byte	$50
	.byte	$55
	.byte	$00
	.byte	$40
	.byte	$45
	.byte	$50
	.byte	$55
	.byte	$00
_is_solid:
	.byte	$00
	.byte	$40
	.byte	$40
	.byte	$40
	.byte	$40
	.byte	$40
	.byte	$40
	.byte	$40
	.byte	$40
	.byte	$40
	.byte	$40
	.byte	$40
	.byte	$40
	.byte	$00
	.byte	$00
	.byte	$00
	.byte	$40
	.byte	$80
	.byte	$80
	.byte	$10
	.byte	$20
	.byte	$00
	.byte	$00
	.byte	$80
	.byte	$80
	.byte	$40
	.byte	$80
	.byte	$80
	.byte	$80
	.byte	$80
	.byte	$80
	.byte	$80
	.byte	$40
	.byte	$40
	.byte	$40
	.byte	$40
	.byte	$40
	.byte	$40
	.byte	$40
	.byte	$40
	.byte	$40
	.byte	$40
	.byte	$40
	.byte	$40
	.byte	$40
	.byte	$40
	.byte	$40
	.byte	$00
	.byte	$40
	.byte	$40
	.byte	$40
	.byte	$40
_Cube_0:
	.byte	$00
	.byte	$00
	.byte	$01
	.byte	$00
	.byte	$00
	.byte	$08
	.byte	$01
	.byte	$80
	.byte	$08
	.byte	$00
	.byte	$01
	.byte	$40
	.byte	$08
	.byte	$08
	.byte	$01
	.byte	$C0
	.byte	$80
_Cube_1:
	.byte	$00
	.byte	$00
	.byte	$09
	.byte	$00
	.byte	$00
	.byte	$08
	.byte	$0A
	.byte	$C0
	.byte	$08
	.byte	$00
	.byte	$0A
	.byte	$00
	.byte	$08
	.byte	$08
	.byte	$09
	.byte	$C0
	.byte	$80
_Cube_2:
	.byte	$00
	.byte	$FC
	.byte	$02
	.byte	$00
	.byte	$08
	.byte	$FC
	.byte	$03
	.byte	$00
	.byte	$FC
	.byte	$04
	.byte	$04
	.byte	$00
	.byte	$04
	.byte	$04
	.byte	$05
	.byte	$00
	.byte	$0C
	.byte	$04
	.byte	$04
	.byte	$C0
	.byte	$00
	.byte	$0C
	.byte	$03
	.byte	$C0
	.byte	$08
	.byte	$0C
	.byte	$02
	.byte	$C0
	.byte	$80
_Cube_3:
	.byte	$00
	.byte	$FC
	.byte	$06
	.byte	$00
	.byte	$08
	.byte	$FC
	.byte	$06
	.byte	$40
	.byte	$FC
	.byte	$04
	.byte	$07
	.byte	$00
	.byte	$04
	.byte	$04
	.byte	$08
	.byte	$00
	.byte	$0C
	.byte	$04
	.byte	$07
	.byte	$40
	.byte	$00
	.byte	$0C
	.byte	$06
	.byte	$80
	.byte	$08
	.byte	$0C
	.byte	$06
	.byte	$C0
	.byte	$80
_Cube_4:
	.byte	$00
	.byte	$FC
	.byte	$03
	.byte	$40
	.byte	$08
	.byte	$FC
	.byte	$02
	.byte	$40
	.byte	$FC
	.byte	$04
	.byte	$04
	.byte	$80
	.byte	$04
	.byte	$04
	.byte	$05
	.byte	$40
	.byte	$0C
	.byte	$04
	.byte	$04
	.byte	$40
	.byte	$00
	.byte	$0C
	.byte	$02
	.byte	$80
	.byte	$08
	.byte	$0C
	.byte	$03
	.byte	$80
	.byte	$80
_Cube_5:
	.byte	$00
	.byte	$00
	.byte	$0A
	.byte	$40
	.byte	$00
	.byte	$08
	.byte	$09
	.byte	$80
	.byte	$08
	.byte	$00
	.byte	$09
	.byte	$40
	.byte	$08
	.byte	$08
	.byte	$0A
	.byte	$80
	.byte	$80
_CUBE:
	.addr	_Cube_0
	.addr	_Cube_1
	.addr	_Cube_2
	.addr	_Cube_3
	.addr	_Cube_4
	.addr	_Cube_5
	.addr	_Cube_0
	.addr	_Cube_0
_Ship_0:
	.byte	$00
	.byte	$00
	.byte	$0B
	.byte	$00
	.byte	$08
	.byte	$00
	.byte	$0C
	.byte	$00
	.byte	$00
	.byte	$08
	.byte	$0D
	.byte	$00
	.byte	$08
	.byte	$08
	.byte	$0E
	.byte	$00
	.byte	$80
_Ship_1:
	.byte	$00
	.byte	$00
	.byte	$10
	.byte	$00
	.byte	$08
	.byte	$00
	.byte	$11
	.byte	$00
	.byte	$00
	.byte	$08
	.byte	$12
	.byte	$00
	.byte	$08
	.byte	$08
	.byte	$13
	.byte	$00
	.byte	$80
_Ship_2:
	.byte	$00
	.byte	$00
	.byte	$14
	.byte	$00
	.byte	$08
	.byte	$01
	.byte	$15
	.byte	$00
	.byte	$00
	.byte	$08
	.byte	$16
	.byte	$00
	.byte	$08
	.byte	$09
	.byte	$17
	.byte	$00
	.byte	$80
_Ship_3:
	.byte	$00
	.byte	$00
	.byte	$14
	.byte	$00
	.byte	$08
	.byte	$00
	.byte	$15
	.byte	$00
	.byte	$00
	.byte	$08
	.byte	$16
	.byte	$00
	.byte	$08
	.byte	$08
	.byte	$17
	.byte	$00
	.byte	$80
_Ship_4:
	.byte	$00
	.byte	$00
	.byte	$14
	.byte	$00
	.byte	$08
	.byte	$FF
	.byte	$15
	.byte	$00
	.byte	$00
	.byte	$08
	.byte	$16
	.byte	$00
	.byte	$08
	.byte	$07
	.byte	$17
	.byte	$00
	.byte	$80
_Ship_5:
	.byte	$00
	.byte	$00
	.byte	$18
	.byte	$00
	.byte	$08
	.byte	$00
	.byte	$19
	.byte	$00
	.byte	$00
	.byte	$08
	.byte	$1A
	.byte	$00
	.byte	$08
	.byte	$08
	.byte	$1B
	.byte	$00
	.byte	$80
_Ship_6:
	.byte	$00
	.byte	$00
	.byte	$1C
	.byte	$00
	.byte	$08
	.byte	$00
	.byte	$1D
	.byte	$00
	.byte	$00
	.byte	$08
	.byte	$1E
	.byte	$00
	.byte	$08
	.byte	$08
	.byte	$1F
	.byte	$00
	.byte	$80
_SHIP:
	.addr	_Ship_0
	.addr	_Ship_0
	.addr	_Ship_1
	.addr	_Ship_2
	.addr	_Ship_3
	.addr	_Ship_4
	.addr	_Ship_5
	.addr	_Ship_6
	.addr	_Ship_6
_Portal_Gamemode_Cube:
	.byte	$00
	.byte	$F0
	.byte	$20
	.byte	$01
	.byte	$03
	.byte	$F8
	.byte	$21
	.byte	$01
	.byte	$06
	.byte	$00
	.byte	$22
	.byte	$01
	.byte	$06
	.byte	$08
	.byte	$22
	.byte	$81
	.byte	$03
	.byte	$10
	.byte	$21
	.byte	$81
	.byte	$00
	.byte	$18
	.byte	$20
	.byte	$81
	.byte	$06
	.byte	$F0
	.byte	$26
	.byte	$01
	.byte	$09
	.byte	$F8
	.byte	$27
	.byte	$01
	.byte	$0C
	.byte	$00
	.byte	$28
	.byte	$01
	.byte	$0C
	.byte	$08
	.byte	$28
	.byte	$81
	.byte	$09
	.byte	$10
	.byte	$27
	.byte	$81
	.byte	$06
	.byte	$18
	.byte	$26
	.byte	$81
	.byte	$80
_Portal_Gamemode_Ship:
	.byte	$00
	.byte	$00
	.byte	$23
	.byte	$01
	.byte	$03
	.byte	$08
	.byte	$24
	.byte	$01
	.byte	$06
	.byte	$10
	.byte	$25
	.byte	$01
	.byte	$06
	.byte	$18
	.byte	$25
	.byte	$81
	.byte	$03
	.byte	$20
	.byte	$24
	.byte	$81
	.byte	$00
	.byte	$28
	.byte	$23
	.byte	$81
	.byte	$06
	.byte	$00
	.byte	$26
	.byte	$01
	.byte	$09
	.byte	$08
	.byte	$27
	.byte	$01
	.byte	$0C
	.byte	$10
	.byte	$28
	.byte	$01
	.byte	$0C
	.byte	$18
	.byte	$28
	.byte	$81
	.byte	$09
	.byte	$20
	.byte	$27
	.byte	$81
	.byte	$06
	.byte	$28
	.byte	$26
	.byte	$81
	.byte	$80
_Portal_Gravity_Down:
	.byte	$00
	.byte	$F0
	.byte	$20
	.byte	$02
	.byte	$03
	.byte	$F8
	.byte	$21
	.byte	$02
	.byte	$06
	.byte	$00
	.byte	$22
	.byte	$02
	.byte	$06
	.byte	$08
	.byte	$22
	.byte	$82
	.byte	$03
	.byte	$10
	.byte	$21
	.byte	$82
	.byte	$00
	.byte	$18
	.byte	$20
	.byte	$82
	.byte	$80
_Portal_Gravity_Up:
	.byte	$00
	.byte	$00
	.byte	$23
	.byte	$02
	.byte	$03
	.byte	$08
	.byte	$24
	.byte	$02
	.byte	$06
	.byte	$10
	.byte	$25
	.byte	$02
	.byte	$06
	.byte	$18
	.byte	$25
	.byte	$82
	.byte	$03
	.byte	$20
	.byte	$24
	.byte	$82
	.byte	$00
	.byte	$28
	.byte	$23
	.byte	$82
	.byte	$80
_Portals:
	.addr	_Portal_Gamemode_Cube
	.addr	_Portal_Gamemode_Ship
	.addr	_Portal_Gravity_Down
	.addr	_Portal_Gravity_Up
_stereomadness__0:
	.byte	$00
	.byte	$00
	.byte	$00
	.byte	$00
	.byte	$00
	.byte	$00
	.byte	$00
	.byte	$00
	.byte	$00
	.byte	$00
	.byte	$00
	.byte	$00
	.byte	$00
	.byte	$00
	.byte	$00
	.byte	$00
	.byte	$00
	.byte	$00
	.byte	$00
	.byte	$00
	.byte	$00
	.byte	$00
	.byte	$00
	.byte	$00
	.byte	$00
	.byte	$00
	.byte	$00
	.byte	$00
	.byte	$00
	.byte	$00
	.byte	$00
	.byte	$00
	.byte	$00
	.byte	$00
	.byte	$00
	.byte	$00
	.byte	$00
	.byte	$00
	.byte	$00
	.byte	$00
	.byte	$00
	.byte	$00
	.byte	$00
	.byte	$00
	.byte	$00
	.byte	$00
	.byte	$00
	.byte	$00
	.byte	$00
	.byte	$00
	.byte	$00
	.byte	$00
	.byte	$00
	.byte	$00
	.byte	$00
	.byte	$00
	.byte	$00
	.byte	$00
	.byte	$00
	.byte	$00
	.byte	$00
	.byte	$00
	.byte	$00
	.byte	$00
	.byte	$00
	.byte	$00
	.byte	$00
	.byte	$00
	.byte	$00
	.byte	$00
	.byte	$00
	.byte	$00
	.byte	$00
	.byte	$00
	.byte	$00
	.byte	$00
	.byte	$00
	.byte	$00
	.byte	$00
	.byte	$00
	.byte	$00
	.byte	$00
	.byte	$00
	.byte	$00
	.byte	$00
	.byte	$00
	.byte	$00
	.byte	$00
	.byte	$00
	.byte	$00
	.byte	$00
	.byte	$00
	.byte	$00
	.byte	$00
	.byte	$00
	.byte	$00
	.byte	$00
	.byte	$00
	.byte	$00
	.byte	$00
	.byte	$00
	.byte	$00
	.byte	$00
	.byte	$00
	.byte	$00
	.byte	$00
	.byte	$00
	.byte	$00
	.byte	$00
	.byte	$00
	.byte	$00
	.byte	$00
	.byte	$00
	.byte	$00
	.byte	$00
	.byte	$00
	.byte	$00
	.byte	$00
	.byte	$00
	.byte	$00
	.byte	$00
	.byte	$00
	.byte	$00
	.byte	$00
	.byte	$00
	.byte	$00
	.byte	$00
	.byte	$00
	.byte	$00
	.byte	$00
	.byte	$00
	.byte	$00
	.byte	$00
	.byte	$00
	.byte	$00
	.byte	$00
	.byte	$00
	.byte	$00
	.byte	$00
	.byte	$00
	.byte	$00
	.byte	$00
	.byte	$00
	.byte	$00
	.byte	$00
	.byte	$00
	.byte	$00
	.byte	$00
	.byte	$00
	.byte	$00
	.byte	$00
	.byte	$00
	.byte	$00
	.byte	$00
	.byte	$00
	.byte	$00
	.byte	$00
	.byte	$00
	.byte	$00
	.byte	$00
	.byte	$00
	.byte	$00
	.byte	$00
	.byte	$00
	.byte	$00
	.byte	$00
	.byte	$00
	.byte	$00
	.byte	$00
	.byte	$00
	.byte	$00
	.byte	$00
	.byte	$00
	.byte	$00
	.byte	$00
	.byte	$00
	.byte	$00
	.byte	$00
	.byte	$00
	.byte	$00
	.byte	$00
	.byte	$00
	.byte	$00
	.byte	$00
	.byte	$00
	.byte	$00
	.byte	$00
	.byte	$00
	.byte	$00
	.byte	$00
	.byte	$00
	.byte	$00
	.byte	$00
	.byte	$00
	.byte	$00
	.byte	$00
	.byte	$00
	.byte	$00
	.byte	$00
	.byte	$00
	.byte	$00
	.byte	$00
	.byte	$00
	.byte	$00
	.byte	$00
	.byte	$00
	.byte	$00
	.byte	$00
	.byte	$00
	.byte	$00
	.byte	$00
	.byte	$00
	.byte	$00
	.byte	$00
	.byte	$00
	.byte	$00
	.byte	$00
	.byte	$00
	.byte	$00
	.byte	$00
	.byte	$00
	.byte	$00
	.byte	$00
	.byte	$00
	.byte	$01
	.byte	$05
	.byte	$05
	.byte	$05
	.byte	$01
	.byte	$05
	.byte	$05
	.byte	$05
	.byte	$01
	.byte	$05
	.byte	$05
	.byte	$05
	.byte	$01
	.byte	$05
	.byte	$05
	.byte	$05
_stereomadness__1:
	.byte	$00
	.byte	$00
	.byte	$00
	.byte	$00
	.byte	$00
	.byte	$00
	.byte	$00
	.byte	$00
	.byte	$00
	.byte	$00
	.byte	$00
	.byte	$00
	.byte	$00
	.byte	$00
	.byte	$00
	.byte	$00
	.byte	$00
	.byte	$00
	.byte	$00
	.byte	$00
	.byte	$00
	.byte	$00
	.byte	$00
	.byte	$00
	.byte	$00
	.byte	$00
	.byte	$00
	.byte	$00
	.byte	$00
	.byte	$00
	.byte	$00
	.byte	$00
	.byte	$00
	.byte	$00
	.byte	$00
	.byte	$00
	.byte	$00
	.byte	$00
	.byte	$00
	.byte	$00
	.byte	$00
	.byte	$00
	.byte	$00
	.byte	$00
	.byte	$00
	.byte	$00
	.byte	$00
	.byte	$00
	.byte	$00
	.byte	$00
	.byte	$00
	.byte	$00
	.byte	$00
	.byte	$00
	.byte	$00
	.byte	$00
	.byte	$00
	.byte	$00
	.byte	$00
	.byte	$00
	.byte	$00
	.byte	$00
	.byte	$00
	.byte	$00
	.byte	$00
	.byte	$00
	.byte	$00
	.byte	$00
	.byte	$00
	.byte	$00
	.byte	$00
	.byte	$00
	.byte	$00
	.byte	$00
	.byte	$00
	.byte	$00
	.byte	$00
	.byte	$00
	.byte	$00
	.byte	$00
	.byte	$00
	.byte	$00
	.byte	$00
	.byte	$00
	.byte	$00
	.byte	$00
	.byte	$00
	.byte	$00
	.byte	$00
	.byte	$00
	.byte	$00
	.byte	$00
	.byte	$00
	.byte	$00
	.byte	$00
	.byte	$00
	.byte	$00
	.byte	$00
	.byte	$00
	.byte	$00
	.byte	$00
	.byte	$00
	.byte	$00
	.byte	$00
	.byte	$00
	.byte	$00
	.byte	$00
	.byte	$00
	.byte	$00
	.byte	$00
	.byte	$00
	.byte	$00
	.byte	$00
	.byte	$00
	.byte	$00
	.byte	$00
	.byte	$00
	.byte	$00
	.byte	$00
	.byte	$00
	.byte	$00
	.byte	$00
	.byte	$00
	.byte	$00
	.byte	$00
	.byte	$00
	.byte	$00
	.byte	$00
	.byte	$00
	.byte	$00
	.byte	$00
	.byte	$00
	.byte	$00
	.byte	$00
	.byte	$00
	.byte	$00
	.byte	$00
	.byte	$00
	.byte	$00
	.byte	$00
	.byte	$00
	.byte	$00
	.byte	$00
	.byte	$00
	.byte	$00
	.byte	$00
	.byte	$00
	.byte	$00
	.byte	$00
	.byte	$00
	.byte	$00
	.byte	$00
	.byte	$00
	.byte	$00
	.byte	$00
	.byte	$00
	.byte	$00
	.byte	$00
	.byte	$00
	.byte	$00
	.byte	$00
	.byte	$00
	.byte	$00
	.byte	$00
	.byte	$00
	.byte	$00
	.byte	$00
	.byte	$00
	.byte	$00
	.byte	$00
	.byte	$00
	.byte	$00
	.byte	$00
	.byte	$00
	.byte	$00
	.byte	$00
	.byte	$00
	.byte	$00
	.byte	$00
	.byte	$00
	.byte	$00
	.byte	$00
	.byte	$00
	.byte	$00
	.byte	$00
	.byte	$00
	.byte	$00
	.byte	$00
	.byte	$00
	.byte	$00
	.byte	$00
	.byte	$00
	.byte	$00
	.byte	$00
	.byte	$00
	.byte	$00
	.byte	$00
	.byte	$00
	.byte	$00
	.byte	$00
	.byte	$00
	.byte	$00
	.byte	$00
	.byte	$00
	.byte	$00
	.byte	$00
	.byte	$00
	.byte	$00
	.byte	$00
	.byte	$11
	.byte	$00
	.byte	$00
	.byte	$00
	.byte	$00
	.byte	$00
	.byte	$00
	.byte	$00
	.byte	$00
	.byte	$00
	.byte	$00
	.byte	$00
	.byte	$00
	.byte	$00
	.byte	$00
	.byte	$01
	.byte	$05
	.byte	$05
	.byte	$05
	.byte	$01
	.byte	$05
	.byte	$05
	.byte	$05
	.byte	$01
	.byte	$05
	.byte	$05
	.byte	$05
	.byte	$01
	.byte	$05
	.byte	$05
	.byte	$05
_stereomadness__2:
	.byte	$00
	.byte	$00
	.byte	$00
	.byte	$00
	.byte	$00
	.byte	$00
	.byte	$00
	.byte	$00
	.byte	$00
	.byte	$00
	.byte	$00
	.byte	$00
	.byte	$00
	.byte	$00
	.byte	$00
	.byte	$00
	.byte	$00
	.byte	$00
	.byte	$00
	.byte	$00
	.byte	$00
	.byte	$00
	.byte	$00
	.byte	$00
	.byte	$00
	.byte	$00
	.byte	$00
	.byte	$00
	.byte	$00
	.byte	$00
	.byte	$00
	.byte	$00
	.byte	$00
	.byte	$00
	.byte	$00
	.byte	$00
	.byte	$00
	.byte	$00
	.byte	$00
	.byte	$00
	.byte	$00
	.byte	$00
	.byte	$00
	.byte	$00
	.byte	$00
	.byte	$00
	.byte	$00
	.byte	$00
	.byte	$00
	.byte	$00
	.byte	$00
	.byte	$00
	.byte	$00
	.byte	$00
	.byte	$00
	.byte	$00
	.byte	$00
	.byte	$00
	.byte	$00
	.byte	$00
	.byte	$00
	.byte	$00
	.byte	$00
	.byte	$00
	.byte	$00
	.byte	$00
	.byte	$00
	.byte	$00
	.byte	$00
	.byte	$00
	.byte	$00
	.byte	$00
	.byte	$00
	.byte	$00
	.byte	$00
	.byte	$00
	.byte	$00
	.byte	$00
	.byte	$00
	.byte	$00
	.byte	$00
	.byte	$00
	.byte	$00
	.byte	$00
	.byte	$00
	.byte	$00
	.byte	$00
	.byte	$00
	.byte	$00
	.byte	$00
	.byte	$00
	.byte	$00
	.byte	$00
	.byte	$00
	.byte	$00
	.byte	$00
	.byte	$00
	.byte	$00
	.byte	$00
	.byte	$00
	.byte	$00
	.byte	$00
	.byte	$00
	.byte	$00
	.byte	$00
	.byte	$00
	.byte	$00
	.byte	$00
	.byte	$00
	.byte	$00
	.byte	$00
	.byte	$00
	.byte	$00
	.byte	$00
	.byte	$00
	.byte	$00
	.byte	$00
	.byte	$00
	.byte	$00
	.byte	$00
	.byte	$00
	.byte	$00
	.byte	$00
	.byte	$00
	.byte	$00
	.byte	$00
	.byte	$00
	.byte	$00
	.byte	$00
	.byte	$00
	.byte	$00
	.byte	$00
	.byte	$00
	.byte	$00
	.byte	$00
	.byte	$00
	.byte	$00
	.byte	$00
	.byte	$00
	.byte	$00
	.byte	$00
	.byte	$00
	.byte	$00
	.byte	$00
	.byte	$00
	.byte	$00
	.byte	$00
	.byte	$00
	.byte	$00
	.byte	$00
	.byte	$00
	.byte	$00
	.byte	$00
	.byte	$00
	.byte	$00
	.byte	$00
	.byte	$00
	.byte	$00
	.byte	$00
	.byte	$00
	.byte	$00
	.byte	$00
	.byte	$00
	.byte	$00
	.byte	$00
	.byte	$00
	.byte	$00
	.byte	$00
	.byte	$00
	.byte	$00
	.byte	$00
	.byte	$00
	.byte	$00
	.byte	$00
	.byte	$00
	.byte	$00
	.byte	$00
	.byte	$00
	.byte	$00
	.byte	$00
	.byte	$00
	.byte	$00
	.byte	$00
	.byte	$00
	.byte	$00
	.byte	$00
	.byte	$00
	.byte	$00
	.byte	$00
	.byte	$00
	.byte	$00
	.byte	$00
	.byte	$00
	.byte	$00
	.byte	$00
	.byte	$00
	.byte	$00
	.byte	$00
	.byte	$00
	.byte	$00
	.byte	$00
	.byte	$00
	.byte	$00
	.byte	$00
	.byte	$00
	.byte	$00
	.byte	$00
	.byte	$00
	.byte	$12
	.byte	$11
	.byte	$00
	.byte	$00
	.byte	$00
	.byte	$00
	.byte	$00
	.byte	$00
	.byte	$00
	.byte	$00
	.byte	$00
	.byte	$00
	.byte	$00
	.byte	$00
	.byte	$00
	.byte	$00
	.byte	$01
	.byte	$05
	.byte	$05
	.byte	$05
	.byte	$01
	.byte	$05
	.byte	$05
	.byte	$05
	.byte	$01
	.byte	$05
	.byte	$05
	.byte	$05
	.byte	$01
	.byte	$05
	.byte	$05
	.byte	$05
_stereomadness__3:
	.byte	$00
	.byte	$00
	.byte	$00
	.byte	$00
	.byte	$00
	.byte	$00
	.byte	$00
	.byte	$00
	.byte	$00
	.byte	$00
	.byte	$00
	.byte	$00
	.byte	$00
	.byte	$00
	.byte	$00
	.byte	$00
	.byte	$00
	.byte	$00
	.byte	$00
	.byte	$00
	.byte	$00
	.byte	$00
	.byte	$00
	.byte	$00
	.byte	$00
	.byte	$00
	.byte	$00
	.byte	$00
	.byte	$00
	.byte	$00
	.byte	$00
	.byte	$00
	.byte	$00
	.byte	$00
	.byte	$00
	.byte	$00
	.byte	$00
	.byte	$00
	.byte	$00
	.byte	$00
	.byte	$00
	.byte	$00
	.byte	$00
	.byte	$00
	.byte	$00
	.byte	$00
	.byte	$00
	.byte	$00
	.byte	$00
	.byte	$00
	.byte	$00
	.byte	$00
	.byte	$00
	.byte	$00
	.byte	$00
	.byte	$00
	.byte	$00
	.byte	$00
	.byte	$00
	.byte	$00
	.byte	$00
	.byte	$00
	.byte	$00
	.byte	$00
	.byte	$00
	.byte	$00
	.byte	$00
	.byte	$00
	.byte	$00
	.byte	$00
	.byte	$00
	.byte	$00
	.byte	$00
	.byte	$00
	.byte	$00
	.byte	$00
	.byte	$00
	.byte	$00
	.byte	$00
	.byte	$00
	.byte	$00
	.byte	$00
	.byte	$00
	.byte	$00
	.byte	$00
	.byte	$00
	.byte	$00
	.byte	$00
	.byte	$00
	.byte	$00
	.byte	$00
	.byte	$00
	.byte	$00
	.byte	$00
	.byte	$00
	.byte	$00
	.byte	$00
	.byte	$00
	.byte	$00
	.byte	$00
	.byte	$00
	.byte	$00
	.byte	$00
	.byte	$00
	.byte	$00
	.byte	$00
	.byte	$00
	.byte	$00
	.byte	$00
	.byte	$00
	.byte	$00
	.byte	$00
	.byte	$00
	.byte	$00
	.byte	$00
	.byte	$00
	.byte	$00
	.byte	$00
	.byte	$00
	.byte	$00
	.byte	$00
	.byte	$00
	.byte	$00
	.byte	$00
	.byte	$00
	.byte	$00
	.byte	$00
	.byte	$00
	.byte	$00
	.byte	$00
	.byte	$00
	.byte	$00
	.byte	$00
	.byte	$00
	.byte	$00
	.byte	$00
	.byte	$00
	.byte	$00
	.byte	$00
	.byte	$00
	.byte	$00
	.byte	$00
	.byte	$00
	.byte	$00
	.byte	$00
	.byte	$00
	.byte	$00
	.byte	$00
	.byte	$00
	.byte	$00
	.byte	$00
	.byte	$00
	.byte	$00
	.byte	$00
	.byte	$00
	.byte	$00
	.byte	$00
	.byte	$00
	.byte	$00
	.byte	$00
	.byte	$00
	.byte	$00
	.byte	$00
	.byte	$00
	.byte	$00
	.byte	$00
	.byte	$00
	.byte	$00
	.byte	$00
	.byte	$00
	.byte	$00
	.byte	$00
	.byte	$00
	.byte	$00
	.byte	$00
	.byte	$00
	.byte	$00
	.byte	$00
	.byte	$00
	.byte	$00
	.byte	$00
	.byte	$00
	.byte	$00
	.byte	$00
	.byte	$00
	.byte	$00
	.byte	$10
	.byte	$00
	.byte	$00
	.byte	$00
	.byte	$00
	.byte	$00
	.byte	$00
	.byte	$00
	.byte	$00
	.byte	$00
	.byte	$00
	.byte	$00
	.byte	$10
	.byte	$00
	.byte	$00
	.byte	$00
	.byte	$2D
	.byte	$00
	.byte	$00
	.byte	$00
	.byte	$00
	.byte	$00
	.byte	$11
	.byte	$11
	.byte	$10
	.byte	$18
	.byte	$18
	.byte	$18
	.byte	$2D
	.byte	$18
	.byte	$18
	.byte	$18
	.byte	$2D
	.byte	$00
	.byte	$00
	.byte	$00
	.byte	$00
	.byte	$00
	.byte	$01
	.byte	$05
	.byte	$05
	.byte	$05
	.byte	$01
	.byte	$05
	.byte	$05
	.byte	$05
	.byte	$01
	.byte	$05
	.byte	$05
	.byte	$05
	.byte	$01
	.byte	$05
	.byte	$05
	.byte	$05
_stereomadness__4:
	.byte	$00
	.byte	$00
	.byte	$00
	.byte	$00
	.byte	$00
	.byte	$00
	.byte	$00
	.byte	$00
	.byte	$00
	.byte	$00
	.byte	$00
	.byte	$00
	.byte	$00
	.byte	$00
	.byte	$00
	.byte	$00
	.byte	$00
	.byte	$00
	.byte	$00
	.byte	$00
	.byte	$00
	.byte	$00
	.byte	$00
	.byte	$00
	.byte	$00
	.byte	$00
	.byte	$00
	.byte	$00
	.byte	$00
	.byte	$00
	.byte	$00
	.byte	$00
	.byte	$00
	.byte	$00
	.byte	$00
	.byte	$00
	.byte	$00
	.byte	$00
	.byte	$00
	.byte	$00
	.byte	$00
	.byte	$00
	.byte	$00
	.byte	$00
	.byte	$00
	.byte	$00
	.byte	$00
	.byte	$00
	.byte	$00
	.byte	$00
	.byte	$00
	.byte	$00
	.byte	$00
	.byte	$00
	.byte	$00
	.byte	$00
	.byte	$00
	.byte	$00
	.byte	$00
	.byte	$00
	.byte	$00
	.byte	$00
	.byte	$00
	.byte	$00
	.byte	$00
	.byte	$00
	.byte	$00
	.byte	$00
	.byte	$00
	.byte	$00
	.byte	$00
	.byte	$00
	.byte	$00
	.byte	$00
	.byte	$00
	.byte	$00
	.byte	$00
	.byte	$00
	.byte	$00
	.byte	$00
	.byte	$00
	.byte	$00
	.byte	$00
	.byte	$00
	.byte	$00
	.byte	$00
	.byte	$00
	.byte	$00
	.byte	$00
	.byte	$00
	.byte	$00
	.byte	$00
	.byte	$00
	.byte	$00
	.byte	$00
	.byte	$00
	.byte	$00
	.byte	$00
	.byte	$00
	.byte	$00
	.byte	$00
	.byte	$00
	.byte	$00
	.byte	$00
	.byte	$00
	.byte	$00
	.byte	$00
	.byte	$00
	.byte	$00
	.byte	$00
	.byte	$00
	.byte	$00
	.byte	$00
	.byte	$00
	.byte	$00
	.byte	$00
	.byte	$00
	.byte	$00
	.byte	$00
	.byte	$00
	.byte	$00
	.byte	$00
	.byte	$00
	.byte	$00
	.byte	$00
	.byte	$00
	.byte	$00
	.byte	$00
	.byte	$00
	.byte	$00
	.byte	$00
	.byte	$00
	.byte	$00
	.byte	$00
	.byte	$00
	.byte	$00
	.byte	$00
	.byte	$00
	.byte	$00
	.byte	$00
	.byte	$00
	.byte	$00
	.byte	$00
	.byte	$00
	.byte	$00
	.byte	$00
	.byte	$00
	.byte	$00
	.byte	$00
	.byte	$00
	.byte	$00
	.byte	$00
	.byte	$00
	.byte	$00
	.byte	$00
	.byte	$00
	.byte	$00
	.byte	$00
	.byte	$00
	.byte	$00
	.byte	$00
	.byte	$00
	.byte	$00
	.byte	$00
	.byte	$00
	.byte	$00
	.byte	$00
	.byte	$00
	.byte	$00
	.byte	$00
	.byte	$00
	.byte	$00
	.byte	$00
	.byte	$00
	.byte	$00
	.byte	$00
	.byte	$00
	.byte	$00
	.byte	$00
	.byte	$00
	.byte	$00
	.byte	$00
	.byte	$00
	.byte	$00
	.byte	$00
	.byte	$00
	.byte	$00
	.byte	$00
	.byte	$00
	.byte	$00
	.byte	$00
	.byte	$00
	.byte	$00
	.byte	$00
	.byte	$00
	.byte	$00
	.byte	$00
	.byte	$00
	.byte	$00
	.byte	$00
	.byte	$00
	.byte	$00
	.byte	$00
	.byte	$00
	.byte	$00
	.byte	$00
	.byte	$00
	.byte	$00
	.byte	$00
	.byte	$00
	.byte	$00
	.byte	$00
	.byte	$00
	.byte	$00
	.byte	$00
	.byte	$00
	.byte	$00
	.byte	$00
	.byte	$00
	.byte	$00
	.byte	$00
	.byte	$00
	.byte	$00
	.byte	$11
	.byte	$01
	.byte	$05
	.byte	$05
	.byte	$05
	.byte	$01
	.byte	$05
	.byte	$05
	.byte	$05
	.byte	$01
	.byte	$05
	.byte	$05
	.byte	$05
	.byte	$01
	.byte	$05
	.byte	$05
	.byte	$05
_stereomadness__5:
	.byte	$00
	.byte	$00
	.byte	$00
	.byte	$00
	.byte	$00
	.byte	$00
	.byte	$00
	.byte	$00
	.byte	$00
	.byte	$00
	.byte	$00
	.byte	$00
	.byte	$00
	.byte	$00
	.byte	$00
	.byte	$00
	.byte	$00
	.byte	$00
	.byte	$00
	.byte	$00
	.byte	$00
	.byte	$00
	.byte	$00
	.byte	$00
	.byte	$00
	.byte	$00
	.byte	$00
	.byte	$00
	.byte	$00
	.byte	$00
	.byte	$00
	.byte	$00
	.byte	$00
	.byte	$00
	.byte	$00
	.byte	$00
	.byte	$00
	.byte	$00
	.byte	$00
	.byte	$00
	.byte	$00
	.byte	$00
	.byte	$00
	.byte	$00
	.byte	$00
	.byte	$00
	.byte	$00
	.byte	$00
	.byte	$00
	.byte	$00
	.byte	$00
	.byte	$00
	.byte	$00
	.byte	$00
	.byte	$00
	.byte	$00
	.byte	$00
	.byte	$00
	.byte	$00
	.byte	$00
	.byte	$00
	.byte	$00
	.byte	$00
	.byte	$00
	.byte	$00
	.byte	$00
	.byte	$00
	.byte	$00
	.byte	$00
	.byte	$00
	.byte	$00
	.byte	$00
	.byte	$00
	.byte	$00
	.byte	$00
	.byte	$00
	.byte	$00
	.byte	$00
	.byte	$00
	.byte	$00
	.byte	$00
	.byte	$00
	.byte	$00
	.byte	$00
	.byte	$00
	.byte	$00
	.byte	$00
	.byte	$00
	.byte	$00
	.byte	$00
	.byte	$00
	.byte	$00
	.byte	$00
	.byte	$00
	.byte	$00
	.byte	$00
	.byte	$00
	.byte	$00
	.byte	$00
	.byte	$00
	.byte	$00
	.byte	$00
	.byte	$00
	.byte	$00
	.byte	$00
	.byte	$00
	.byte	$00
	.byte	$00
	.byte	$00
	.byte	$00
	.byte	$00
	.byte	$00
	.byte	$00
	.byte	$00
	.byte	$00
	.byte	$00
	.byte	$00
	.byte	$00
	.byte	$00
	.byte	$00
	.byte	$00
	.byte	$00
	.byte	$00
	.byte	$00
	.byte	$00
	.byte	$00
	.byte	$00
	.byte	$00
	.byte	$00
	.byte	$00
	.byte	$00
	.byte	$00
	.byte	$00
	.byte	$00
	.byte	$00
	.byte	$00
	.byte	$00
	.byte	$00
	.byte	$00
	.byte	$00
	.byte	$00
	.byte	$00
	.byte	$00
	.byte	$00
	.byte	$00
	.byte	$00
	.byte	$00
	.byte	$00
	.byte	$00
	.byte	$00
	.byte	$00
	.byte	$00
	.byte	$00
	.byte	$00
	.byte	$00
	.byte	$00
	.byte	$00
	.byte	$00
	.byte	$00
	.byte	$00
	.byte	$00
	.byte	$00
	.byte	$00
	.byte	$00
	.byte	$00
	.byte	$00
	.byte	$00
	.byte	$00
	.byte	$00
	.byte	$00
	.byte	$00
	.byte	$00
	.byte	$00
	.byte	$00
	.byte	$00
	.byte	$00
	.byte	$00
	.byte	$00
	.byte	$00
	.byte	$00
	.byte	$00
	.byte	$00
	.byte	$00
	.byte	$00
	.byte	$00
	.byte	$00
	.byte	$00
	.byte	$00
	.byte	$00
	.byte	$00
	.byte	$00
	.byte	$00
	.byte	$00
	.byte	$00
	.byte	$00
	.byte	$00
	.byte	$00
	.byte	$00
	.byte	$00
	.byte	$00
	.byte	$00
	.byte	$00
	.byte	$00
	.byte	$00
	.byte	$00
	.byte	$00
	.byte	$00
	.byte	$00
	.byte	$11
	.byte	$00
	.byte	$00
	.byte	$00
	.byte	$00
	.byte	$00
	.byte	$25
	.byte	$21
	.byte	$21
	.byte	$21
	.byte	$21
	.byte	$21
	.byte	$21
	.byte	$26
	.byte	$18
	.byte	$18
	.byte	$01
	.byte	$05
	.byte	$05
	.byte	$05
	.byte	$01
	.byte	$05
	.byte	$05
	.byte	$05
	.byte	$01
	.byte	$05
	.byte	$05
	.byte	$05
	.byte	$01
	.byte	$05
	.byte	$05
	.byte	$05
_stereomadness__6:
	.byte	$00
	.byte	$00
	.byte	$00
	.byte	$00
	.byte	$00
	.byte	$00
	.byte	$00
	.byte	$00
	.byte	$00
	.byte	$00
	.byte	$00
	.byte	$00
	.byte	$00
	.byte	$00
	.byte	$00
	.byte	$00
	.byte	$00
	.byte	$00
	.byte	$00
	.byte	$00
	.byte	$00
	.byte	$00
	.byte	$00
	.byte	$00
	.byte	$00
	.byte	$00
	.byte	$00
	.byte	$00
	.byte	$00
	.byte	$00
	.byte	$00
	.byte	$00
	.byte	$00
	.byte	$00
	.byte	$00
	.byte	$00
	.byte	$00
	.byte	$00
	.byte	$00
	.byte	$00
	.byte	$00
	.byte	$00
	.byte	$00
	.byte	$00
	.byte	$00
	.byte	$00
	.byte	$00
	.byte	$00
	.byte	$00
	.byte	$00
	.byte	$00
	.byte	$00
	.byte	$00
	.byte	$00
	.byte	$00
	.byte	$00
	.byte	$00
	.byte	$00
	.byte	$00
	.byte	$00
	.byte	$00
	.byte	$00
	.byte	$00
	.byte	$00
	.byte	$00
	.byte	$00
	.byte	$00
	.byte	$00
	.byte	$00
	.byte	$00
	.byte	$00
	.byte	$00
	.byte	$00
	.byte	$00
	.byte	$00
	.byte	$00
	.byte	$00
	.byte	$00
	.byte	$00
	.byte	$00
	.byte	$00
	.byte	$00
	.byte	$00
	.byte	$00
	.byte	$00
	.byte	$00
	.byte	$00
	.byte	$00
	.byte	$00
	.byte	$00
	.byte	$00
	.byte	$00
	.byte	$00
	.byte	$00
	.byte	$00
	.byte	$00
	.byte	$00
	.byte	$00
	.byte	$00
	.byte	$00
	.byte	$00
	.byte	$00
	.byte	$00
	.byte	$00
	.byte	$00
	.byte	$00
	.byte	$00
	.byte	$00
	.byte	$00
	.byte	$00
	.byte	$00
	.byte	$00
	.byte	$00
	.byte	$00
	.byte	$00
	.byte	$00
	.byte	$00
	.byte	$00
	.byte	$00
	.byte	$00
	.byte	$00
	.byte	$00
	.byte	$00
	.byte	$00
	.byte	$00
	.byte	$00
	.byte	$00
	.byte	$00
	.byte	$00
	.byte	$00
	.byte	$00
	.byte	$00
	.byte	$00
	.byte	$00
	.byte	$00
	.byte	$00
	.byte	$00
	.byte	$00
	.byte	$00
	.byte	$00
	.byte	$00
	.byte	$00
	.byte	$00
	.byte	$00
	.byte	$00
	.byte	$00
	.byte	$00
	.byte	$00
	.byte	$00
	.byte	$00
	.byte	$00
	.byte	$00
	.byte	$00
	.byte	$00
	.byte	$00
	.byte	$00
	.byte	$00
	.byte	$00
	.byte	$00
	.byte	$00
	.byte	$00
	.byte	$00
	.byte	$00
	.byte	$00
	.byte	$00
	.byte	$00
	.byte	$00
	.byte	$00
	.byte	$00
	.byte	$00
	.byte	$00
	.byte	$00
	.byte	$00
	.byte	$00
	.byte	$00
	.byte	$00
	.byte	$00
	.byte	$00
	.byte	$00
	.byte	$00
	.byte	$00
	.byte	$00
	.byte	$00
	.byte	$00
	.byte	$00
	.byte	$00
	.byte	$00
	.byte	$00
	.byte	$00
	.byte	$00
	.byte	$00
	.byte	$00
	.byte	$00
	.byte	$00
	.byte	$00
	.byte	$00
	.byte	$00
	.byte	$00
	.byte	$11
	.byte	$00
	.byte	$00
	.byte	$00
	.byte	$00
	.byte	$00
	.byte	$00
	.byte	$00
	.byte	$00
	.byte	$25
	.byte	$18
	.byte	$25
	.byte	$21
	.byte	$21
	.byte	$21
	.byte	$21
	.byte	$21
	.byte	$21
	.byte	$21
	.byte	$21
	.byte	$21
	.byte	$26
	.byte	$18
	.byte	$18
	.byte	$18
	.byte	$24
	.byte	$01
	.byte	$05
	.byte	$05
	.byte	$05
	.byte	$01
	.byte	$05
	.byte	$05
	.byte	$05
	.byte	$01
	.byte	$05
	.byte	$05
	.byte	$05
	.byte	$01
	.byte	$05
	.byte	$05
	.byte	$05
_stereomadness__7:
	.byte	$00
	.byte	$00
	.byte	$00
	.byte	$00
	.byte	$00
	.byte	$00
	.byte	$00
	.byte	$00
	.byte	$00
	.byte	$00
	.byte	$00
	.byte	$00
	.byte	$00
	.byte	$00
	.byte	$00
	.byte	$00
	.byte	$00
	.byte	$00
	.byte	$00
	.byte	$00
	.byte	$00
	.byte	$00
	.byte	$00
	.byte	$00
	.byte	$00
	.byte	$00
	.byte	$00
	.byte	$00
	.byte	$00
	.byte	$00
	.byte	$00
	.byte	$00
	.byte	$00
	.byte	$00
	.byte	$00
	.byte	$00
	.byte	$00
	.byte	$00
	.byte	$00
	.byte	$00
	.byte	$00
	.byte	$00
	.byte	$00
	.byte	$00
	.byte	$00
	.byte	$00
	.byte	$00
	.byte	$00
	.byte	$00
	.byte	$00
	.byte	$00
	.byte	$00
	.byte	$00
	.byte	$00
	.byte	$00
	.byte	$00
	.byte	$00
	.byte	$00
	.byte	$00
	.byte	$00
	.byte	$00
	.byte	$00
	.byte	$00
	.byte	$00
	.byte	$00
	.byte	$00
	.byte	$00
	.byte	$00
	.byte	$00
	.byte	$00
	.byte	$00
	.byte	$00
	.byte	$00
	.byte	$00
	.byte	$00
	.byte	$00
	.byte	$00
	.byte	$00
	.byte	$00
	.byte	$00
	.byte	$00
	.byte	$00
	.byte	$00
	.byte	$00
	.byte	$00
	.byte	$00
	.byte	$00
	.byte	$00
	.byte	$00
	.byte	$00
	.byte	$00
	.byte	$00
	.byte	$00
	.byte	$00
	.byte	$00
	.byte	$00
	.byte	$00
	.byte	$00
	.byte	$00
	.byte	$00
	.byte	$00
	.byte	$00
	.byte	$00
	.byte	$00
	.byte	$00
	.byte	$00
	.byte	$00
	.byte	$00
	.byte	$00
	.byte	$00
	.byte	$00
	.byte	$00
	.byte	$00
	.byte	$00
	.byte	$00
	.byte	$00
	.byte	$00
	.byte	$00
	.byte	$00
	.byte	$00
	.byte	$00
	.byte	$00
	.byte	$00
	.byte	$00
	.byte	$00
	.byte	$00
	.byte	$00
	.byte	$00
	.byte	$00
	.byte	$00
	.byte	$00
	.byte	$00
	.byte	$00
	.byte	$00
	.byte	$00
	.byte	$00
	.byte	$00
	.byte	$00
	.byte	$00
	.byte	$00
	.byte	$00
	.byte	$00
	.byte	$00
	.byte	$00
	.byte	$00
	.byte	$00
	.byte	$00
	.byte	$00
	.byte	$00
	.byte	$00
	.byte	$00
	.byte	$00
	.byte	$00
	.byte	$00
	.byte	$00
	.byte	$00
	.byte	$00
	.byte	$00
	.byte	$00
	.byte	$00
	.byte	$00
	.byte	$00
	.byte	$00
	.byte	$00
	.byte	$00
	.byte	$00
	.byte	$00
	.byte	$00
	.byte	$00
	.byte	$00
	.byte	$00
	.byte	$00
	.byte	$00
	.byte	$00
	.byte	$00
	.byte	$00
	.byte	$00
	.byte	$00
	.byte	$00
	.byte	$00
	.byte	$00
	.byte	$00
	.byte	$11
	.byte	$00
	.byte	$00
	.byte	$00
	.byte	$00
	.byte	$00
	.byte	$00
	.byte	$00
	.byte	$00
	.byte	$00
	.byte	$21
	.byte	$21
	.byte	$21
	.byte	$21
	.byte	$21
	.byte	$21
	.byte	$21
	.byte	$21
	.byte	$21
	.byte	$21
	.byte	$21
	.byte	$21
	.byte	$26
	.byte	$00
	.byte	$00
	.byte	$00
	.byte	$2F
	.byte	$2F
	.byte	$2F
	.byte	$2F
	.byte	$2F
	.byte	$2F
	.byte	$2F
	.byte	$2F
	.byte	$2F
	.byte	$2F
	.byte	$2F
	.byte	$2F
	.byte	$22
	.byte	$18
	.byte	$18
	.byte	$18
	.byte	$01
	.byte	$05
	.byte	$05
	.byte	$05
	.byte	$01
	.byte	$05
	.byte	$05
	.byte	$05
	.byte	$01
	.byte	$05
	.byte	$05
	.byte	$05
	.byte	$01
	.byte	$05
	.byte	$05
	.byte	$05
_stereomadness__8:
	.byte	$00
	.byte	$00
	.byte	$00
	.byte	$00
	.byte	$00
	.byte	$00
	.byte	$00
	.byte	$00
	.byte	$00
	.byte	$00
	.byte	$00
	.byte	$00
	.byte	$00
	.byte	$00
	.byte	$00
	.byte	$00
	.byte	$00
	.byte	$00
	.byte	$00
	.byte	$00
	.byte	$00
	.byte	$00
	.byte	$00
	.byte	$00
	.byte	$00
	.byte	$00
	.byte	$00
	.byte	$00
	.byte	$00
	.byte	$00
	.byte	$00
	.byte	$00
	.byte	$00
	.byte	$00
	.byte	$00
	.byte	$00
	.byte	$00
	.byte	$00
	.byte	$00
	.byte	$00
	.byte	$00
	.byte	$00
	.byte	$00
	.byte	$00
	.byte	$00
	.byte	$00
	.byte	$00
	.byte	$00
	.byte	$00
	.byte	$00
	.byte	$00
	.byte	$00
	.byte	$00
	.byte	$00
	.byte	$00
	.byte	$00
	.byte	$00
	.byte	$00
	.byte	$00
	.byte	$00
	.byte	$00
	.byte	$00
	.byte	$00
	.byte	$00
	.byte	$00
	.byte	$00
	.byte	$00
	.byte	$00
	.byte	$00
	.byte	$00
	.byte	$00
	.byte	$00
	.byte	$00
	.byte	$00
	.byte	$00
	.byte	$00
	.byte	$00
	.byte	$00
	.byte	$00
	.byte	$00
	.byte	$00
	.byte	$00
	.byte	$00
	.byte	$00
	.byte	$00
	.byte	$00
	.byte	$00
	.byte	$00
	.byte	$00
	.byte	$00
	.byte	$00
	.byte	$00
	.byte	$00
	.byte	$00
	.byte	$00
	.byte	$00
	.byte	$00
	.byte	$00
	.byte	$00
	.byte	$00
	.byte	$00
	.byte	$00
	.byte	$00
	.byte	$00
	.byte	$00
	.byte	$00
	.byte	$00
	.byte	$00
	.byte	$00
	.byte	$00
	.byte	$00
	.byte	$00
	.byte	$00
	.byte	$00
	.byte	$00
	.byte	$00
	.byte	$00
	.byte	$00
	.byte	$00
	.byte	$00
	.byte	$00
	.byte	$00
	.byte	$00
	.byte	$00
	.byte	$00
	.byte	$00
	.byte	$00
	.byte	$00
	.byte	$00
	.byte	$00
	.byte	$00
	.byte	$00
	.byte	$00
	.byte	$00
	.byte	$00
	.byte	$00
	.byte	$00
	.byte	$00
	.byte	$00
	.byte	$00
	.byte	$19
	.byte	$00
	.byte	$00
	.byte	$00
	.byte	$00
	.byte	$00
	.byte	$00
	.byte	$00
	.byte	$00
	.byte	$00
	.byte	$00
	.byte	$00
	.byte	$19
	.byte	$00
	.byte	$00
	.byte	$00
	.byte	$00
	.byte	$00
	.byte	$00
	.byte	$00
	.byte	$00
	.byte	$00
	.byte	$00
	.byte	$00
	.byte	$19
	.byte	$00
	.byte	$00
	.byte	$00
	.byte	$00
	.byte	$00
	.byte	$00
	.byte	$00
	.byte	$00
	.byte	$00
	.byte	$00
	.byte	$00
	.byte	$19
	.byte	$00
	.byte	$00
	.byte	$00
	.byte	$00
	.byte	$00
	.byte	$00
	.byte	$00
	.byte	$00
	.byte	$00
	.byte	$00
	.byte	$00
	.byte	$00
	.byte	$00
	.byte	$00
	.byte	$00
	.byte	$00
	.byte	$00
	.byte	$00
	.byte	$00
	.byte	$00
	.byte	$00
	.byte	$00
	.byte	$00
	.byte	$00
	.byte	$00
	.byte	$00
	.byte	$00
	.byte	$00
	.byte	$00
	.byte	$00
	.byte	$00
	.byte	$18
	.byte	$18
	.byte	$18
	.byte	$18
	.byte	$18
	.byte	$18
	.byte	$18
	.byte	$18
	.byte	$18
	.byte	$18
	.byte	$18
	.byte	$18
	.byte	$18
	.byte	$18
	.byte	$18
	.byte	$18
	.byte	$01
	.byte	$05
	.byte	$05
	.byte	$05
	.byte	$01
	.byte	$05
	.byte	$05
	.byte	$05
	.byte	$01
	.byte	$05
	.byte	$05
	.byte	$05
	.byte	$01
	.byte	$05
	.byte	$05
	.byte	$05
_stereomadness__9:
	.byte	$00
	.byte	$00
	.byte	$00
	.byte	$00
	.byte	$00
	.byte	$00
	.byte	$00
	.byte	$00
	.byte	$00
	.byte	$00
	.byte	$00
	.byte	$00
	.byte	$00
	.byte	$00
	.byte	$00
	.byte	$00
	.byte	$00
	.byte	$00
	.byte	$00
	.byte	$00
	.byte	$00
	.byte	$00
	.byte	$00
	.byte	$00
	.byte	$00
	.byte	$00
	.byte	$00
	.byte	$00
	.byte	$00
	.byte	$00
	.byte	$00
	.byte	$00
	.byte	$00
	.byte	$00
	.byte	$00
	.byte	$00
	.byte	$00
	.byte	$00
	.byte	$00
	.byte	$00
	.byte	$00
	.byte	$00
	.byte	$00
	.byte	$00
	.byte	$00
	.byte	$00
	.byte	$00
	.byte	$00
	.byte	$00
	.byte	$00
	.byte	$00
	.byte	$00
	.byte	$00
	.byte	$00
	.byte	$00
	.byte	$00
	.byte	$00
	.byte	$00
	.byte	$00
	.byte	$00
	.byte	$00
	.byte	$00
	.byte	$00
	.byte	$00
	.byte	$00
	.byte	$00
	.byte	$00
	.byte	$00
	.byte	$00
	.byte	$00
	.byte	$00
	.byte	$00
	.byte	$00
	.byte	$00
	.byte	$00
	.byte	$00
	.byte	$00
	.byte	$00
	.byte	$00
	.byte	$00
	.byte	$00
	.byte	$00
	.byte	$00
	.byte	$00
	.byte	$00
	.byte	$00
	.byte	$00
	.byte	$00
	.byte	$00
	.byte	$00
	.byte	$00
	.byte	$00
	.byte	$00
	.byte	$00
	.byte	$00
	.byte	$00
	.byte	$00
	.byte	$00
	.byte	$00
	.byte	$00
	.byte	$00
	.byte	$00
	.byte	$00
	.byte	$00
	.byte	$00
	.byte	$00
	.byte	$00
	.byte	$19
	.byte	$19
	.byte	$00
	.byte	$00
	.byte	$00
	.byte	$19
	.byte	$00
	.byte	$00
	.byte	$00
	.byte	$00
	.byte	$00
	.byte	$00
	.byte	$00
	.byte	$00
	.byte	$00
	.byte	$11
	.byte	$11
	.byte	$11
	.byte	$11
	.byte	$00
	.byte	$00
	.byte	$00
	.byte	$00
	.byte	$00
	.byte	$00
	.byte	$33
	.byte	$2E
	.byte	$21
	.byte	$21
	.byte	$21
	.byte	$21
	.byte	$21
	.byte	$21
	.byte	$21
	.byte	$21
	.byte	$21
	.byte	$21
	.byte	$00
	.byte	$00
	.byte	$00
	.byte	$00
	.byte	$00
	.byte	$00
	.byte	$24
	.byte	$2F
	.byte	$2F
	.byte	$2F
	.byte	$2F
	.byte	$2F
	.byte	$2F
	.byte	$2F
	.byte	$2F
	.byte	$2F
	.byte	$00
	.byte	$00
	.byte	$00
	.byte	$00
	.byte	$00
	.byte	$00
	.byte	$24
	.byte	$2F
	.byte	$2F
	.byte	$2F
	.byte	$2F
	.byte	$2F
	.byte	$2F
	.byte	$2F
	.byte	$2F
	.byte	$2F
	.byte	$00
	.byte	$00
	.byte	$00
	.byte	$00
	.byte	$00
	.byte	$00
	.byte	$24
	.byte	$2F
	.byte	$2F
	.byte	$2F
	.byte	$2F
	.byte	$2F
	.byte	$2F
	.byte	$2F
	.byte	$2F
	.byte	$2F
	.byte	$00
	.byte	$00
	.byte	$00
	.byte	$00
	.byte	$00
	.byte	$00
	.byte	$24
	.byte	$2F
	.byte	$2F
	.byte	$2F
	.byte	$2F
	.byte	$2F
	.byte	$2F
	.byte	$2F
	.byte	$2F
	.byte	$2F
	.byte	$18
	.byte	$18
	.byte	$18
	.byte	$18
	.byte	$18
	.byte	$18
	.byte	$24
	.byte	$2F
	.byte	$2F
	.byte	$2F
	.byte	$2F
	.byte	$2F
	.byte	$2F
	.byte	$2F
	.byte	$2F
	.byte	$2F
	.byte	$01
	.byte	$05
	.byte	$05
	.byte	$05
	.byte	$01
	.byte	$05
	.byte	$05
	.byte	$05
	.byte	$01
	.byte	$05
	.byte	$05
	.byte	$05
	.byte	$01
	.byte	$05
	.byte	$05
	.byte	$05
_stereomadness__10:
	.byte	$00
	.byte	$00
	.byte	$00
	.byte	$00
	.byte	$00
	.byte	$00
	.byte	$00
	.byte	$00
	.byte	$00
	.byte	$00
	.byte	$00
	.byte	$00
	.byte	$00
	.byte	$00
	.byte	$00
	.byte	$00
	.byte	$00
	.byte	$00
	.byte	$00
	.byte	$00
	.byte	$00
	.byte	$00
	.byte	$00
	.byte	$00
	.byte	$00
	.byte	$00
	.byte	$00
	.byte	$00
	.byte	$00
	.byte	$00
	.byte	$00
	.byte	$00
	.byte	$00
	.byte	$00
	.byte	$00
	.byte	$00
	.byte	$00
	.byte	$00
	.byte	$00
	.byte	$00
	.byte	$00
	.byte	$00
	.byte	$00
	.byte	$00
	.byte	$00
	.byte	$00
	.byte	$00
	.byte	$00
	.byte	$00
	.byte	$00
	.byte	$00
	.byte	$00
	.byte	$00
	.byte	$00
	.byte	$00
	.byte	$00
	.byte	$00
	.byte	$00
	.byte	$00
	.byte	$00
	.byte	$00
	.byte	$00
	.byte	$00
	.byte	$00
	.byte	$00
	.byte	$00
	.byte	$00
	.byte	$00
	.byte	$00
	.byte	$00
	.byte	$00
	.byte	$00
	.byte	$00
	.byte	$00
	.byte	$00
	.byte	$00
	.byte	$00
	.byte	$00
	.byte	$00
	.byte	$00
	.byte	$00
	.byte	$00
	.byte	$00
	.byte	$00
	.byte	$00
	.byte	$00
	.byte	$00
	.byte	$00
	.byte	$00
	.byte	$00
	.byte	$00
	.byte	$00
	.byte	$00
	.byte	$00
	.byte	$00
	.byte	$00
	.byte	$00
	.byte	$00
	.byte	$00
	.byte	$19
	.byte	$19
	.byte	$00
	.byte	$00
	.byte	$00
	.byte	$00
	.byte	$00
	.byte	$00
	.byte	$00
	.byte	$00
	.byte	$11
	.byte	$11
	.byte	$11
	.byte	$00
	.byte	$00
	.byte	$11
	.byte	$11
	.byte	$11
	.byte	$11
	.byte	$00
	.byte	$00
	.byte	$00
	.byte	$00
	.byte	$00
	.byte	$00
	.byte	$00
	.byte	$19
	.byte	$19
	.byte	$19
	.byte	$21
	.byte	$21
	.byte	$21
	.byte	$21
	.byte	$21
	.byte	$21
	.byte	$21
	.byte	$21
	.byte	$21
	.byte	$26
	.byte	$00
	.byte	$00
	.byte	$00
	.byte	$00
	.byte	$00
	.byte	$00
	.byte	$2F
	.byte	$2F
	.byte	$2F
	.byte	$2F
	.byte	$2F
	.byte	$2F
	.byte	$2F
	.byte	$2F
	.byte	$2F
	.byte	$2A
	.byte	$21
	.byte	$21
	.byte	$21
	.byte	$21
	.byte	$21
	.byte	$21
	.byte	$2F
	.byte	$2F
	.byte	$2F
	.byte	$2F
	.byte	$2F
	.byte	$2F
	.byte	$2F
	.byte	$2F
	.byte	$2F
	.byte	$2F
	.byte	$2F
	.byte	$2F
	.byte	$2F
	.byte	$2F
	.byte	$2F
	.byte	$2F
	.byte	$2F
	.byte	$2F
	.byte	$2F
	.byte	$2F
	.byte	$2F
	.byte	$2F
	.byte	$2F
	.byte	$2F
	.byte	$2F
	.byte	$2F
	.byte	$2F
	.byte	$2F
	.byte	$2F
	.byte	$2F
	.byte	$2F
	.byte	$2F
	.byte	$2F
	.byte	$2F
	.byte	$2F
	.byte	$2F
	.byte	$2F
	.byte	$2F
	.byte	$2F
	.byte	$2F
	.byte	$2F
	.byte	$2F
	.byte	$2F
	.byte	$2F
	.byte	$2F
	.byte	$2F
	.byte	$2F
	.byte	$2F
	.byte	$2F
	.byte	$2F
	.byte	$2F
	.byte	$2F
	.byte	$2F
	.byte	$2F
	.byte	$2F
	.byte	$2F
	.byte	$2F
	.byte	$2F
	.byte	$2F
	.byte	$2F
	.byte	$2F
	.byte	$2F
	.byte	$2F
	.byte	$2F
	.byte	$01
	.byte	$05
	.byte	$05
	.byte	$05
	.byte	$01
	.byte	$05
	.byte	$05
	.byte	$05
	.byte	$01
	.byte	$05
	.byte	$05
	.byte	$05
	.byte	$01
	.byte	$05
	.byte	$05
	.byte	$05
_stereomadness__11:
	.byte	$00
	.byte	$00
	.byte	$00
	.byte	$00
	.byte	$00
	.byte	$00
	.byte	$00
	.byte	$00
	.byte	$00
	.byte	$00
	.byte	$00
	.byte	$00
	.byte	$00
	.byte	$00
	.byte	$00
	.byte	$00
	.byte	$00
	.byte	$00
	.byte	$00
	.byte	$00
	.byte	$00
	.byte	$00
	.byte	$00
	.byte	$00
	.byte	$00
	.byte	$00
	.byte	$00
	.byte	$00
	.byte	$00
	.byte	$00
	.byte	$00
	.byte	$00
	.byte	$00
	.byte	$00
	.byte	$00
	.byte	$00
	.byte	$00
	.byte	$00
	.byte	$00
	.byte	$00
	.byte	$00
	.byte	$00
	.byte	$00
	.byte	$00
	.byte	$00
	.byte	$00
	.byte	$00
	.byte	$00
	.byte	$00
	.byte	$00
	.byte	$00
	.byte	$00
	.byte	$00
	.byte	$00
	.byte	$00
	.byte	$00
	.byte	$00
	.byte	$00
	.byte	$00
	.byte	$00
	.byte	$00
	.byte	$00
	.byte	$00
	.byte	$00
	.byte	$00
	.byte	$00
	.byte	$00
	.byte	$00
	.byte	$00
	.byte	$00
	.byte	$00
	.byte	$00
	.byte	$00
	.byte	$00
	.byte	$00
	.byte	$00
	.byte	$00
	.byte	$00
	.byte	$00
	.byte	$00
	.byte	$00
	.byte	$00
	.byte	$00
	.byte	$00
	.byte	$00
	.byte	$00
	.byte	$00
	.byte	$00
	.byte	$00
	.byte	$00
	.byte	$00
	.byte	$00
	.byte	$00
	.byte	$00
	.byte	$00
	.byte	$00
	.byte	$11
	.byte	$00
	.byte	$00
	.byte	$00
	.byte	$00
	.byte	$00
	.byte	$00
	.byte	$00
	.byte	$00
	.byte	$00
	.byte	$00
	.byte	$00
	.byte	$00
	.byte	$00
	.byte	$00
	.byte	$00
	.byte	$19
	.byte	$00
	.byte	$00
	.byte	$00
	.byte	$00
	.byte	$00
	.byte	$00
	.byte	$00
	.byte	$11
	.byte	$00
	.byte	$00
	.byte	$00
	.byte	$00
	.byte	$00
	.byte	$00
	.byte	$00
	.byte	$00
	.byte	$00
	.byte	$00
	.byte	$00
	.byte	$25
	.byte	$21
	.byte	$21
	.byte	$21
	.byte	$26
	.byte	$00
	.byte	$00
	.byte	$00
	.byte	$00
	.byte	$00
	.byte	$00
	.byte	$00
	.byte	$21
	.byte	$21
	.byte	$21
	.byte	$21
	.byte	$29
	.byte	$2F
	.byte	$2F
	.byte	$2F
	.byte	$22
	.byte	$11
	.byte	$00
	.byte	$00
	.byte	$00
	.byte	$00
	.byte	$00
	.byte	$00
	.byte	$2F
	.byte	$2F
	.byte	$2F
	.byte	$2F
	.byte	$2F
	.byte	$2F
	.byte	$2F
	.byte	$2F
	.byte	$2A
	.byte	$21
	.byte	$21
	.byte	$21
	.byte	$21
	.byte	$21
	.byte	$2E
	.byte	$2E
	.byte	$2F
	.byte	$2F
	.byte	$2F
	.byte	$2F
	.byte	$2F
	.byte	$2F
	.byte	$2F
	.byte	$2F
	.byte	$2F
	.byte	$2F
	.byte	$2F
	.byte	$2F
	.byte	$2F
	.byte	$22
	.byte	$00
	.byte	$00
	.byte	$2F
	.byte	$2F
	.byte	$2F
	.byte	$2F
	.byte	$2F
	.byte	$2F
	.byte	$2F
	.byte	$2F
	.byte	$2F
	.byte	$2F
	.byte	$2F
	.byte	$2F
	.byte	$2F
	.byte	$22
	.byte	$00
	.byte	$00
	.byte	$2F
	.byte	$2F
	.byte	$2F
	.byte	$2F
	.byte	$2F
	.byte	$2F
	.byte	$2F
	.byte	$2F
	.byte	$2F
	.byte	$2F
	.byte	$2F
	.byte	$2F
	.byte	$2F
	.byte	$22
	.byte	$18
	.byte	$18
	.byte	$01
	.byte	$05
	.byte	$05
	.byte	$05
	.byte	$01
	.byte	$05
	.byte	$05
	.byte	$05
	.byte	$01
	.byte	$05
	.byte	$05
	.byte	$05
	.byte	$01
	.byte	$05
	.byte	$05
	.byte	$05
_stereomadness__12:
	.byte	$00
	.byte	$00
	.byte	$00
	.byte	$00
	.byte	$00
	.byte	$00
	.byte	$00
	.byte	$00
	.byte	$00
	.byte	$00
	.byte	$00
	.byte	$00
	.byte	$00
	.byte	$00
	.byte	$00
	.byte	$00
	.byte	$00
	.byte	$00
	.byte	$00
	.byte	$00
	.byte	$00
	.byte	$00
	.byte	$00
	.byte	$00
	.byte	$00
	.byte	$00
	.byte	$00
	.byte	$00
	.byte	$00
	.byte	$00
	.byte	$00
	.byte	$00
	.byte	$00
	.byte	$00
	.byte	$00
	.byte	$00
	.byte	$00
	.byte	$00
	.byte	$00
	.byte	$00
	.byte	$00
	.byte	$00
	.byte	$00
	.byte	$00
	.byte	$00
	.byte	$00
	.byte	$00
	.byte	$00
	.byte	$00
	.byte	$00
	.byte	$00
	.byte	$00
	.byte	$00
	.byte	$00
	.byte	$00
	.byte	$00
	.byte	$00
	.byte	$00
	.byte	$00
	.byte	$00
	.byte	$00
	.byte	$00
	.byte	$00
	.byte	$00
	.byte	$00
	.byte	$00
	.byte	$00
	.byte	$00
	.byte	$00
	.byte	$00
	.byte	$00
	.byte	$00
	.byte	$00
	.byte	$00
	.byte	$00
	.byte	$00
	.byte	$00
	.byte	$00
	.byte	$00
	.byte	$00
	.byte	$00
	.byte	$00
	.byte	$00
	.byte	$00
	.byte	$00
	.byte	$00
	.byte	$00
	.byte	$00
	.byte	$00
	.byte	$00
	.byte	$00
	.byte	$00
	.byte	$00
	.byte	$00
	.byte	$00
	.byte	$00
	.byte	$00
	.byte	$00
	.byte	$00
	.byte	$00
	.byte	$00
	.byte	$00
	.byte	$00
	.byte	$00
	.byte	$00
	.byte	$00
	.byte	$00
	.byte	$00
	.byte	$00
	.byte	$00
	.byte	$00
	.byte	$00
	.byte	$00
	.byte	$00
	.byte	$00
	.byte	$00
	.byte	$00
	.byte	$00
	.byte	$00
	.byte	$00
	.byte	$00
	.byte	$00
	.byte	$00
	.byte	$00
	.byte	$00
	.byte	$00
	.byte	$00
	.byte	$00
	.byte	$00
	.byte	$00
	.byte	$00
	.byte	$00
	.byte	$00
	.byte	$00
	.byte	$00
	.byte	$00
	.byte	$00
	.byte	$00
	.byte	$00
	.byte	$00
	.byte	$00
	.byte	$00
	.byte	$00
	.byte	$00
	.byte	$00
	.byte	$00
	.byte	$00
	.byte	$00
	.byte	$00
	.byte	$00
	.byte	$00
	.byte	$00
	.byte	$11
	.byte	$00
	.byte	$00
	.byte	$00
	.byte	$00
	.byte	$00
	.byte	$00
	.byte	$00
	.byte	$2E
	.byte	$2E
	.byte	$31
	.byte	$00
	.byte	$00
	.byte	$19
	.byte	$19
	.byte	$19
	.byte	$19
	.byte	$00
	.byte	$00
	.byte	$00
	.byte	$00
	.byte	$00
	.byte	$00
	.byte	$00
	.byte	$00
	.byte	$00
	.byte	$00
	.byte	$00
	.byte	$00
	.byte	$00
	.byte	$00
	.byte	$00
	.byte	$00
	.byte	$00
	.byte	$19
	.byte	$19
	.byte	$19
	.byte	$19
	.byte	$19
	.byte	$19
	.byte	$00
	.byte	$00
	.byte	$00
	.byte	$00
	.byte	$00
	.byte	$00
	.byte	$00
	.byte	$00
	.byte	$00
	.byte	$00
	.byte	$00
	.byte	$00
	.byte	$00
	.byte	$00
	.byte	$00
	.byte	$00
	.byte	$18
	.byte	$18
	.byte	$18
	.byte	$18
	.byte	$18
	.byte	$18
	.byte	$18
	.byte	$18
	.byte	$18
	.byte	$18
	.byte	$18
	.byte	$18
	.byte	$18
	.byte	$18
	.byte	$18
	.byte	$18
	.byte	$01
	.byte	$05
	.byte	$05
	.byte	$05
	.byte	$01
	.byte	$05
	.byte	$05
	.byte	$05
	.byte	$01
	.byte	$05
	.byte	$05
	.byte	$05
	.byte	$01
	.byte	$05
	.byte	$05
	.byte	$05
_stereomadness__13:
	.byte	$00
	.byte	$00
	.byte	$00
	.byte	$00
	.byte	$00
	.byte	$00
	.byte	$00
	.byte	$00
	.byte	$00
	.byte	$00
	.byte	$00
	.byte	$00
	.byte	$00
	.byte	$00
	.byte	$00
	.byte	$00
	.byte	$00
	.byte	$00
	.byte	$00
	.byte	$00
	.byte	$00
	.byte	$00
	.byte	$00
	.byte	$00
	.byte	$00
	.byte	$00
	.byte	$00
	.byte	$00
	.byte	$00
	.byte	$00
	.byte	$00
	.byte	$00
	.byte	$00
	.byte	$00
	.byte	$00
	.byte	$00
	.byte	$00
	.byte	$00
	.byte	$00
	.byte	$00
	.byte	$00
	.byte	$00
	.byte	$00
	.byte	$00
	.byte	$00
	.byte	$00
	.byte	$00
	.byte	$00
	.byte	$00
	.byte	$00
	.byte	$00
	.byte	$00
	.byte	$00
	.byte	$00
	.byte	$00
	.byte	$00
	.byte	$00
	.byte	$00
	.byte	$00
	.byte	$00
	.byte	$00
	.byte	$00
	.byte	$00
	.byte	$00
	.byte	$00
	.byte	$00
	.byte	$00
	.byte	$00
	.byte	$00
	.byte	$00
	.byte	$00
	.byte	$00
	.byte	$00
	.byte	$00
	.byte	$00
	.byte	$00
	.byte	$00
	.byte	$00
	.byte	$00
	.byte	$00
	.byte	$00
	.byte	$00
	.byte	$00
	.byte	$00
	.byte	$00
	.byte	$00
	.byte	$00
	.byte	$00
	.byte	$00
	.byte	$00
	.byte	$00
	.byte	$00
	.byte	$00
	.byte	$00
	.byte	$00
	.byte	$00
	.byte	$00
	.byte	$00
	.byte	$00
	.byte	$00
	.byte	$00
	.byte	$00
	.byte	$00
	.byte	$00
	.byte	$00
	.byte	$00
	.byte	$00
	.byte	$00
	.byte	$00
	.byte	$00
	.byte	$00
	.byte	$00
	.byte	$00
	.byte	$00
	.byte	$00
	.byte	$00
	.byte	$00
	.byte	$00
	.byte	$00
	.byte	$00
	.byte	$00
	.byte	$00
	.byte	$00
	.byte	$00
	.byte	$00
	.byte	$00
	.byte	$00
	.byte	$00
	.byte	$00
	.byte	$00
	.byte	$00
	.byte	$00
	.byte	$00
	.byte	$00
	.byte	$00
	.byte	$00
	.byte	$00
	.byte	$00
	.byte	$00
	.byte	$00
	.byte	$00
	.byte	$00
	.byte	$00
	.byte	$00
	.byte	$00
	.byte	$00
	.byte	$00
	.byte	$00
	.byte	$00
	.byte	$00
	.byte	$00
	.byte	$00
	.byte	$00
	.byte	$00
	.byte	$00
	.byte	$00
	.byte	$00
	.byte	$00
	.byte	$00
	.byte	$00
	.byte	$11
	.byte	$00
	.byte	$00
	.byte	$00
	.byte	$00
	.byte	$00
	.byte	$00
	.byte	$00
	.byte	$00
	.byte	$00
	.byte	$00
	.byte	$00
	.byte	$00
	.byte	$00
	.byte	$19
	.byte	$00
	.byte	$19
	.byte	$00
	.byte	$00
	.byte	$00
	.byte	$00
	.byte	$00
	.byte	$00
	.byte	$00
	.byte	$00
	.byte	$00
	.byte	$19
	.byte	$00
	.byte	$00
	.byte	$00
	.byte	$00
	.byte	$00
	.byte	$00
	.byte	$00
	.byte	$19
	.byte	$19
	.byte	$19
	.byte	$19
	.byte	$19
	.byte	$00
	.byte	$00
	.byte	$00
	.byte	$00
	.byte	$00
	.byte	$00
	.byte	$00
	.byte	$00
	.byte	$00
	.byte	$18
	.byte	$18
	.byte	$18
	.byte	$18
	.byte	$18
	.byte	$18
	.byte	$18
	.byte	$18
	.byte	$18
	.byte	$18
	.byte	$18
	.byte	$18
	.byte	$18
	.byte	$18
	.byte	$18
	.byte	$18
	.byte	$01
	.byte	$05
	.byte	$05
	.byte	$05
	.byte	$01
	.byte	$05
	.byte	$05
	.byte	$05
	.byte	$01
	.byte	$05
	.byte	$05
	.byte	$05
	.byte	$01
	.byte	$05
	.byte	$05
	.byte	$05
_stereomadness__14:
	.byte	$00
	.byte	$00
	.byte	$00
	.byte	$00
	.byte	$00
	.byte	$00
	.byte	$00
	.byte	$00
	.byte	$00
	.byte	$00
	.byte	$00
	.byte	$00
	.byte	$00
	.byte	$00
	.byte	$00
	.byte	$00
	.byte	$00
	.byte	$00
	.byte	$00
	.byte	$00
	.byte	$00
	.byte	$00
	.byte	$00
	.byte	$00
	.byte	$00
	.byte	$00
	.byte	$00
	.byte	$00
	.byte	$00
	.byte	$00
	.byte	$00
	.byte	$00
	.byte	$00
	.byte	$00
	.byte	$00
	.byte	$00
	.byte	$00
	.byte	$00
	.byte	$00
	.byte	$00
	.byte	$00
	.byte	$00
	.byte	$00
	.byte	$00
	.byte	$00
	.byte	$00
	.byte	$00
	.byte	$00
	.byte	$00
	.byte	$00
	.byte	$00
	.byte	$00
	.byte	$00
	.byte	$00
	.byte	$00
	.byte	$00
	.byte	$00
	.byte	$00
	.byte	$00
	.byte	$00
	.byte	$00
	.byte	$00
	.byte	$00
	.byte	$00
	.byte	$00
	.byte	$00
	.byte	$00
	.byte	$00
	.byte	$00
	.byte	$00
	.byte	$00
	.byte	$00
	.byte	$00
	.byte	$00
	.byte	$00
	.byte	$00
	.byte	$00
	.byte	$00
	.byte	$00
	.byte	$00
	.byte	$00
	.byte	$00
	.byte	$00
	.byte	$00
	.byte	$00
	.byte	$00
	.byte	$00
	.byte	$00
	.byte	$00
	.byte	$00
	.byte	$00
	.byte	$00
	.byte	$00
	.byte	$00
	.byte	$11
	.byte	$00
	.byte	$00
	.byte	$00
	.byte	$00
	.byte	$00
	.byte	$00
	.byte	$00
	.byte	$00
	.byte	$00
	.byte	$00
	.byte	$00
	.byte	$00
	.byte	$00
	.byte	$00
	.byte	$00
	.byte	$19
	.byte	$00
	.byte	$00
	.byte	$00
	.byte	$00
	.byte	$00
	.byte	$00
	.byte	$00
	.byte	$00
	.byte	$00
	.byte	$00
	.byte	$00
	.byte	$19
	.byte	$00
	.byte	$00
	.byte	$00
	.byte	$00
	.byte	$00
	.byte	$00
	.byte	$00
	.byte	$00
	.byte	$00
	.byte	$00
	.byte	$00
	.byte	$19
	.byte	$00
	.byte	$00
	.byte	$00
	.byte	$00
	.byte	$00
	.byte	$00
	.byte	$00
	.byte	$00
	.byte	$00
	.byte	$00
	.byte	$00
	.byte	$19
	.byte	$00
	.byte	$00
	.byte	$00
	.byte	$00
	.byte	$00
	.byte	$00
	.byte	$00
	.byte	$00
	.byte	$00
	.byte	$00
	.byte	$00
	.byte	$00
	.byte	$00
	.byte	$00
	.byte	$00
	.byte	$00
	.byte	$00
	.byte	$00
	.byte	$00
	.byte	$00
	.byte	$00
	.byte	$00
	.byte	$00
	.byte	$00
	.byte	$00
	.byte	$33
	.byte	$2E
	.byte	$2E
	.byte	$2E
	.byte	$00
	.byte	$00
	.byte	$00
	.byte	$00
	.byte	$00
	.byte	$00
	.byte	$00
	.byte	$00
	.byte	$00
	.byte	$00
	.byte	$00
	.byte	$00
	.byte	$00
	.byte	$00
	.byte	$00
	.byte	$00
	.byte	$00
	.byte	$00
	.byte	$00
	.byte	$00
	.byte	$00
	.byte	$00
	.byte	$00
	.byte	$00
	.byte	$00
	.byte	$00
	.byte	$00
	.byte	$00
	.byte	$00
	.byte	$00
	.byte	$00
	.byte	$00
	.byte	$18
	.byte	$18
	.byte	$18
	.byte	$18
	.byte	$18
	.byte	$18
	.byte	$18
	.byte	$18
	.byte	$18
	.byte	$18
	.byte	$18
	.byte	$18
	.byte	$18
	.byte	$18
	.byte	$18
	.byte	$18
	.byte	$01
	.byte	$05
	.byte	$05
	.byte	$05
	.byte	$01
	.byte	$05
	.byte	$05
	.byte	$05
	.byte	$01
	.byte	$05
	.byte	$05
	.byte	$05
	.byte	$01
	.byte	$05
	.byte	$05
	.byte	$05
_stereomadness__15:
	.byte	$00
	.byte	$00
	.byte	$00
	.byte	$24
	.byte	$2F
	.byte	$2F
	.byte	$2F
	.byte	$2F
	.byte	$2F
	.byte	$2F
	.byte	$2F
	.byte	$2F
	.byte	$2F
	.byte	$2F
	.byte	$2F
	.byte	$2F
	.byte	$00
	.byte	$00
	.byte	$00
	.byte	$24
	.byte	$2F
	.byte	$2F
	.byte	$2F
	.byte	$2F
	.byte	$2F
	.byte	$2F
	.byte	$2F
	.byte	$2F
	.byte	$2F
	.byte	$2F
	.byte	$2F
	.byte	$2F
	.byte	$00
	.byte	$00
	.byte	$00
	.byte	$24
	.byte	$2F
	.byte	$2F
	.byte	$2F
	.byte	$2F
	.byte	$2F
	.byte	$2F
	.byte	$2F
	.byte	$2F
	.byte	$2F
	.byte	$2F
	.byte	$2F
	.byte	$2F
	.byte	$00
	.byte	$00
	.byte	$00
	.byte	$24
	.byte	$2F
	.byte	$2F
	.byte	$2F
	.byte	$2F
	.byte	$2F
	.byte	$2F
	.byte	$2F
	.byte	$2F
	.byte	$2F
	.byte	$2F
	.byte	$2F
	.byte	$2F
	.byte	$00
	.byte	$00
	.byte	$00
	.byte	$24
	.byte	$2F
	.byte	$2F
	.byte	$2F
	.byte	$2F
	.byte	$2F
	.byte	$2F
	.byte	$2F
	.byte	$2F
	.byte	$2F
	.byte	$2F
	.byte	$2F
	.byte	$2F
	.byte	$00
	.byte	$00
	.byte	$00
	.byte	$24
	.byte	$2F
	.byte	$2F
	.byte	$2F
	.byte	$2F
	.byte	$2F
	.byte	$2F
	.byte	$2F
	.byte	$2F
	.byte	$2F
	.byte	$2F
	.byte	$2F
	.byte	$2F
	.byte	$00
	.byte	$00
	.byte	$00
	.byte	$28
	.byte	$23
	.byte	$23
	.byte	$23
	.byte	$23
	.byte	$2C
	.byte	$2F
	.byte	$2F
	.byte	$2F
	.byte	$2F
	.byte	$2F
	.byte	$2F
	.byte	$2F
	.byte	$00
	.byte	$00
	.byte	$00
	.byte	$00
	.byte	$00
	.byte	$00
	.byte	$00
	.byte	$00
	.byte	$28
	.byte	$23
	.byte	$23
	.byte	$23
	.byte	$23
	.byte	$23
	.byte	$23
	.byte	$23
	.byte	$00
	.byte	$00
	.byte	$00
	.byte	$00
	.byte	$00
	.byte	$00
	.byte	$00
	.byte	$00
	.byte	$00
	.byte	$00
	.byte	$00
	.byte	$00
	.byte	$00
	.byte	$00
	.byte	$00
	.byte	$00
	.byte	$00
	.byte	$00
	.byte	$00
	.byte	$00
	.byte	$00
	.byte	$00
	.byte	$00
	.byte	$00
	.byte	$00
	.byte	$00
	.byte	$00
	.byte	$00
	.byte	$00
	.byte	$00
	.byte	$00
	.byte	$00
	.byte	$2E
	.byte	$2E
	.byte	$2E
	.byte	$21
	.byte	$21
	.byte	$21
	.byte	$21
	.byte	$21
	.byte	$21
	.byte	$21
	.byte	$21
	.byte	$21
	.byte	$21
	.byte	$21
	.byte	$21
	.byte	$21
	.byte	$00
	.byte	$00
	.byte	$00
	.byte	$24
	.byte	$2F
	.byte	$2F
	.byte	$2F
	.byte	$2F
	.byte	$2F
	.byte	$2F
	.byte	$2F
	.byte	$2F
	.byte	$2F
	.byte	$2F
	.byte	$2F
	.byte	$2F
	.byte	$00
	.byte	$00
	.byte	$00
	.byte	$24
	.byte	$2F
	.byte	$2F
	.byte	$2F
	.byte	$2F
	.byte	$2F
	.byte	$2F
	.byte	$2F
	.byte	$2F
	.byte	$2F
	.byte	$2F
	.byte	$2F
	.byte	$2F
	.byte	$18
	.byte	$18
	.byte	$18
	.byte	$24
	.byte	$2F
	.byte	$2F
	.byte	$2F
	.byte	$2F
	.byte	$2F
	.byte	$2F
	.byte	$2F
	.byte	$2F
	.byte	$2F
	.byte	$2F
	.byte	$2F
	.byte	$2F
	.byte	$01
	.byte	$05
	.byte	$05
	.byte	$05
	.byte	$01
	.byte	$05
	.byte	$05
	.byte	$05
	.byte	$01
	.byte	$05
	.byte	$05
	.byte	$05
	.byte	$01
	.byte	$05
	.byte	$05
	.byte	$05
_stereomadness__16:
	.byte	$2F
	.byte	$2F
	.byte	$2F
	.byte	$2F
	.byte	$2F
	.byte	$2F
	.byte	$2F
	.byte	$2F
	.byte	$2F
	.byte	$2F
	.byte	$22
	.byte	$07
	.byte	$03
	.byte	$07
	.byte	$07
	.byte	$07
	.byte	$2F
	.byte	$2F
	.byte	$2F
	.byte	$2F
	.byte	$2F
	.byte	$2F
	.byte	$2F
	.byte	$2F
	.byte	$2F
	.byte	$2F
	.byte	$22
	.byte	$07
	.byte	$03
	.byte	$07
	.byte	$07
	.byte	$07
	.byte	$2F
	.byte	$2F
	.byte	$2F
	.byte	$2F
	.byte	$2F
	.byte	$2F
	.byte	$2F
	.byte	$2F
	.byte	$2F
	.byte	$2F
	.byte	$22
	.byte	$06
	.byte	$02
	.byte	$06
	.byte	$06
	.byte	$06
	.byte	$2F
	.byte	$2F
	.byte	$2F
	.byte	$2F
	.byte	$2F
	.byte	$2F
	.byte	$2F
	.byte	$2F
	.byte	$2F
	.byte	$2F
	.byte	$22
	.byte	$06
	.byte	$02
	.byte	$06
	.byte	$06
	.byte	$06
	.byte	$2F
	.byte	$2F
	.byte	$2F
	.byte	$2F
	.byte	$2F
	.byte	$2F
	.byte	$2F
	.byte	$2F
	.byte	$2F
	.byte	$2F
	.byte	$22
	.byte	$00
	.byte	$00
	.byte	$00
	.byte	$00
	.byte	$00
	.byte	$2F
	.byte	$2F
	.byte	$2F
	.byte	$2F
	.byte	$2F
	.byte	$2F
	.byte	$2F
	.byte	$2F
	.byte	$2F
	.byte	$2F
	.byte	$22
	.byte	$00
	.byte	$00
	.byte	$00
	.byte	$00
	.byte	$00
	.byte	$2F
	.byte	$2F
	.byte	$2F
	.byte	$2F
	.byte	$2F
	.byte	$2B
	.byte	$23
	.byte	$23
	.byte	$23
	.byte	$23
	.byte	$27
	.byte	$00
	.byte	$00
	.byte	$00
	.byte	$00
	.byte	$00
	.byte	$23
	.byte	$23
	.byte	$23
	.byte	$23
	.byte	$23
	.byte	$27
	.byte	$00
	.byte	$00
	.byte	$00
	.byte	$00
	.byte	$00
	.byte	$00
	.byte	$00
	.byte	$00
	.byte	$00
	.byte	$00
	.byte	$00
	.byte	$00
	.byte	$00
	.byte	$00
	.byte	$00
	.byte	$00
	.byte	$00
	.byte	$00
	.byte	$00
	.byte	$00
	.byte	$00
	.byte	$00
	.byte	$00
	.byte	$00
	.byte	$00
	.byte	$00
	.byte	$00
	.byte	$00
	.byte	$00
	.byte	$00
	.byte	$00
	.byte	$00
	.byte	$00
	.byte	$00
	.byte	$00
	.byte	$00
	.byte	$00
	.byte	$00
	.byte	$00
	.byte	$00
	.byte	$00
	.byte	$00
	.byte	$21
	.byte	$21
	.byte	$21
	.byte	$21
	.byte	$21
	.byte	$21
	.byte	$21
	.byte	$21
	.byte	$21
	.byte	$21
	.byte	$26
	.byte	$00
	.byte	$00
	.byte	$00
	.byte	$00
	.byte	$00
	.byte	$2F
	.byte	$2F
	.byte	$2F
	.byte	$2F
	.byte	$2F
	.byte	$2F
	.byte	$2F
	.byte	$2F
	.byte	$2F
	.byte	$2F
	.byte	$22
	.byte	$00
	.byte	$00
	.byte	$00
	.byte	$00
	.byte	$00
	.byte	$2F
	.byte	$2F
	.byte	$2F
	.byte	$2F
	.byte	$2F
	.byte	$2F
	.byte	$2F
	.byte	$2F
	.byte	$2F
	.byte	$2F
	.byte	$22
	.byte	$00
	.byte	$00
	.byte	$00
	.byte	$00
	.byte	$00
	.byte	$2F
	.byte	$2F
	.byte	$2F
	.byte	$2F
	.byte	$2F
	.byte	$2F
	.byte	$2F
	.byte	$2F
	.byte	$2F
	.byte	$2F
	.byte	$22
	.byte	$00
	.byte	$00
	.byte	$00
	.byte	$00
	.byte	$00
	.byte	$01
	.byte	$05
	.byte	$05
	.byte	$05
	.byte	$01
	.byte	$05
	.byte	$05
	.byte	$05
	.byte	$01
	.byte	$05
	.byte	$05
	.byte	$05
	.byte	$01
	.byte	$05
	.byte	$05
	.byte	$05
_stereomadness__17:
	.byte	$03
	.byte	$07
	.byte	$07
	.byte	$07
	.byte	$03
	.byte	$07
	.byte	$07
	.byte	$07
	.byte	$03
	.byte	$07
	.byte	$07
	.byte	$07
	.byte	$03
	.byte	$07
	.byte	$07
	.byte	$07
	.byte	$03
	.byte	$07
	.byte	$07
	.byte	$07
	.byte	$03
	.byte	$07
	.byte	$07
	.byte	$07
	.byte	$03
	.byte	$07
	.byte	$07
	.byte	$07
	.byte	$03
	.byte	$07
	.byte	$07
	.byte	$07
	.byte	$02
	.byte	$06
	.byte	$06
	.byte	$06
	.byte	$02
	.byte	$06
	.byte	$06
	.byte	$06
	.byte	$02
	.byte	$06
	.byte	$06
	.byte	$06
	.byte	$02
	.byte	$06
	.byte	$06
	.byte	$06
	.byte	$02
	.byte	$06
	.byte	$06
	.byte	$06
	.byte	$02
	.byte	$06
	.byte	$06
	.byte	$06
	.byte	$02
	.byte	$06
	.byte	$06
	.byte	$06
	.byte	$02
	.byte	$06
	.byte	$06
	.byte	$06
	.byte	$00
	.byte	$00
	.byte	$00
	.byte	$00
	.byte	$00
	.byte	$00
	.byte	$00
	.byte	$00
	.byte	$00
	.byte	$00
	.byte	$00
	.byte	$00
	.byte	$00
	.byte	$00
	.byte	$00
	.byte	$00
	.byte	$00
	.byte	$00
	.byte	$00
	.byte	$00
	.byte	$00
	.byte	$00
	.byte	$00
	.byte	$00
	.byte	$00
	.byte	$00
	.byte	$00
	.byte	$00
	.byte	$00
	.byte	$00
	.byte	$00
	.byte	$00
	.byte	$00
	.byte	$00
	.byte	$00
	.byte	$00
	.byte	$00
	.byte	$00
	.byte	$00
	.byte	$00
	.byte	$00
	.byte	$00
	.byte	$00
	.byte	$00
	.byte	$00
	.byte	$00
	.byte	$00
	.byte	$00
	.byte	$00
	.byte	$00
	.byte	$00
	.byte	$00
	.byte	$00
	.byte	$00
	.byte	$00
	.byte	$00
	.byte	$00
	.byte	$00
	.byte	$00
	.byte	$00
	.byte	$00
	.byte	$00
	.byte	$00
	.byte	$00
	.byte	$00
	.byte	$00
	.byte	$00
	.byte	$00
	.byte	$00
	.byte	$00
	.byte	$00
	.byte	$00
	.byte	$00
	.byte	$00
	.byte	$00
	.byte	$00
	.byte	$00
	.byte	$00
	.byte	$00
	.byte	$00
	.byte	$00
	.byte	$00
	.byte	$00
	.byte	$00
	.byte	$00
	.byte	$00
	.byte	$00
	.byte	$00
	.byte	$00
	.byte	$00
	.byte	$00
	.byte	$00
	.byte	$00
	.byte	$00
	.byte	$00
	.byte	$00
	.byte	$00
	.byte	$00
	.byte	$00
	.byte	$00
	.byte	$00
	.byte	$00
	.byte	$00
	.byte	$00
	.byte	$00
	.byte	$00
	.byte	$00
	.byte	$00
	.byte	$00
	.byte	$00
	.byte	$00
	.byte	$00
	.byte	$00
	.byte	$00
	.byte	$00
	.byte	$00
	.byte	$00
	.byte	$00
	.byte	$00
	.byte	$00
	.byte	$00
	.byte	$00
	.byte	$00
	.byte	$00
	.byte	$00
	.byte	$00
	.byte	$00
	.byte	$00
	.byte	$00
	.byte	$00
	.byte	$00
	.byte	$00
	.byte	$00
	.byte	$00
	.byte	$00
	.byte	$00
	.byte	$00
	.byte	$00
	.byte	$00
	.byte	$00
	.byte	$00
	.byte	$00
	.byte	$00
	.byte	$00
	.byte	$00
	.byte	$00
	.byte	$00
	.byte	$00
	.byte	$00
	.byte	$00
	.byte	$00
	.byte	$00
	.byte	$00
	.byte	$00
	.byte	$00
	.byte	$00
	.byte	$00
	.byte	$00
	.byte	$00
	.byte	$00
	.byte	$01
	.byte	$05
	.byte	$05
	.byte	$05
	.byte	$01
	.byte	$05
	.byte	$05
	.byte	$05
	.byte	$01
	.byte	$05
	.byte	$05
	.byte	$05
	.byte	$01
	.byte	$05
	.byte	$05
	.byte	$05
_stereomadness__18:
	.byte	$03
	.byte	$07
	.byte	$07
	.byte	$07
	.byte	$03
	.byte	$07
	.byte	$07
	.byte	$07
	.byte	$03
	.byte	$07
	.byte	$07
	.byte	$07
	.byte	$03
	.byte	$07
	.byte	$07
	.byte	$07
	.byte	$03
	.byte	$07
	.byte	$07
	.byte	$07
	.byte	$03
	.byte	$07
	.byte	$07
	.byte	$07
	.byte	$03
	.byte	$07
	.byte	$07
	.byte	$07
	.byte	$03
	.byte	$07
	.byte	$07
	.byte	$07
	.byte	$02
	.byte	$06
	.byte	$06
	.byte	$06
	.byte	$02
	.byte	$06
	.byte	$06
	.byte	$06
	.byte	$02
	.byte	$06
	.byte	$06
	.byte	$06
	.byte	$02
	.byte	$06
	.byte	$06
	.byte	$06
	.byte	$02
	.byte	$06
	.byte	$06
	.byte	$06
	.byte	$02
	.byte	$06
	.byte	$06
	.byte	$06
	.byte	$02
	.byte	$06
	.byte	$06
	.byte	$06
	.byte	$02
	.byte	$06
	.byte	$06
	.byte	$06
	.byte	$00
	.byte	$00
	.byte	$00
	.byte	$00
	.byte	$00
	.byte	$00
	.byte	$00
	.byte	$00
	.byte	$00
	.byte	$00
	.byte	$00
	.byte	$00
	.byte	$00
	.byte	$2D
	.byte	$00
	.byte	$00
	.byte	$00
	.byte	$00
	.byte	$00
	.byte	$00
	.byte	$00
	.byte	$00
	.byte	$00
	.byte	$00
	.byte	$00
	.byte	$00
	.byte	$00
	.byte	$00
	.byte	$00
	.byte	$2D
	.byte	$00
	.byte	$00
	.byte	$00
	.byte	$00
	.byte	$00
	.byte	$00
	.byte	$00
	.byte	$00
	.byte	$00
	.byte	$00
	.byte	$00
	.byte	$00
	.byte	$00
	.byte	$00
	.byte	$00
	.byte	$32
	.byte	$00
	.byte	$00
	.byte	$00
	.byte	$00
	.byte	$00
	.byte	$00
	.byte	$00
	.byte	$00
	.byte	$00
	.byte	$00
	.byte	$00
	.byte	$00
	.byte	$00
	.byte	$00
	.byte	$00
	.byte	$00
	.byte	$00
	.byte	$00
	.byte	$00
	.byte	$00
	.byte	$00
	.byte	$00
	.byte	$00
	.byte	$00
	.byte	$00
	.byte	$00
	.byte	$00
	.byte	$00
	.byte	$00
	.byte	$00
	.byte	$00
	.byte	$00
	.byte	$00
	.byte	$00
	.byte	$00
	.byte	$00
	.byte	$00
	.byte	$00
	.byte	$00
	.byte	$00
	.byte	$00
	.byte	$00
	.byte	$00
	.byte	$00
	.byte	$00
	.byte	$00
	.byte	$00
	.byte	$00
	.byte	$00
	.byte	$00
	.byte	$00
	.byte	$00
	.byte	$00
	.byte	$00
	.byte	$00
	.byte	$00
	.byte	$00
	.byte	$00
	.byte	$00
	.byte	$00
	.byte	$00
	.byte	$00
	.byte	$00
	.byte	$00
	.byte	$00
	.byte	$00
	.byte	$00
	.byte	$00
	.byte	$00
	.byte	$00
	.byte	$00
	.byte	$00
	.byte	$00
	.byte	$00
	.byte	$00
	.byte	$00
	.byte	$00
	.byte	$00
	.byte	$00
	.byte	$00
	.byte	$00
	.byte	$00
	.byte	$00
	.byte	$00
	.byte	$00
	.byte	$00
	.byte	$00
	.byte	$00
	.byte	$00
	.byte	$00
	.byte	$00
	.byte	$00
	.byte	$00
	.byte	$00
	.byte	$00
	.byte	$00
	.byte	$00
	.byte	$00
	.byte	$00
	.byte	$00
	.byte	$00
	.byte	$00
	.byte	$00
	.byte	$00
	.byte	$00
	.byte	$00
	.byte	$00
	.byte	$00
	.byte	$00
	.byte	$00
	.byte	$00
	.byte	$00
	.byte	$00
	.byte	$00
	.byte	$01
	.byte	$05
	.byte	$05
	.byte	$05
	.byte	$01
	.byte	$05
	.byte	$05
	.byte	$05
	.byte	$01
	.byte	$05
	.byte	$05
	.byte	$05
	.byte	$01
	.byte	$05
	.byte	$05
	.byte	$05
_stereomadness__19:
	.byte	$03
	.byte	$07
	.byte	$07
	.byte	$07
	.byte	$03
	.byte	$07
	.byte	$07
	.byte	$07
	.byte	$03
	.byte	$07
	.byte	$07
	.byte	$07
	.byte	$03
	.byte	$07
	.byte	$07
	.byte	$07
	.byte	$03
	.byte	$07
	.byte	$07
	.byte	$07
	.byte	$03
	.byte	$07
	.byte	$07
	.byte	$07
	.byte	$03
	.byte	$07
	.byte	$07
	.byte	$07
	.byte	$03
	.byte	$07
	.byte	$07
	.byte	$07
	.byte	$02
	.byte	$06
	.byte	$06
	.byte	$06
	.byte	$02
	.byte	$06
	.byte	$06
	.byte	$06
	.byte	$02
	.byte	$06
	.byte	$06
	.byte	$06
	.byte	$02
	.byte	$06
	.byte	$06
	.byte	$06
	.byte	$02
	.byte	$06
	.byte	$06
	.byte	$06
	.byte	$02
	.byte	$06
	.byte	$06
	.byte	$06
	.byte	$02
	.byte	$06
	.byte	$06
	.byte	$06
	.byte	$02
	.byte	$06
	.byte	$06
	.byte	$06
	.byte	$00
	.byte	$00
	.byte	$00
	.byte	$00
	.byte	$00
	.byte	$00
	.byte	$00
	.byte	$00
	.byte	$00
	.byte	$00
	.byte	$32
	.byte	$1B
	.byte	$1B
	.byte	$1B
	.byte	$1B
	.byte	$1B
	.byte	$00
	.byte	$00
	.byte	$00
	.byte	$00
	.byte	$00
	.byte	$00
	.byte	$00
	.byte	$00
	.byte	$00
	.byte	$00
	.byte	$00
	.byte	$00
	.byte	$00
	.byte	$00
	.byte	$00
	.byte	$00
	.byte	$00
	.byte	$00
	.byte	$00
	.byte	$00
	.byte	$00
	.byte	$00
	.byte	$00
	.byte	$00
	.byte	$00
	.byte	$00
	.byte	$00
	.byte	$00
	.byte	$00
	.byte	$00
	.byte	$00
	.byte	$00
	.byte	$00
	.byte	$00
	.byte	$00
	.byte	$00
	.byte	$00
	.byte	$00
	.byte	$00
	.byte	$00
	.byte	$00
	.byte	$00
	.byte	$00
	.byte	$00
	.byte	$00
	.byte	$00
	.byte	$00
	.byte	$00
	.byte	$00
	.byte	$00
	.byte	$00
	.byte	$00
	.byte	$00
	.byte	$00
	.byte	$00
	.byte	$00
	.byte	$00
	.byte	$00
	.byte	$00
	.byte	$00
	.byte	$00
	.byte	$00
	.byte	$00
	.byte	$00
	.byte	$00
	.byte	$00
	.byte	$00
	.byte	$00
	.byte	$00
	.byte	$00
	.byte	$00
	.byte	$00
	.byte	$00
	.byte	$00
	.byte	$00
	.byte	$00
	.byte	$00
	.byte	$00
	.byte	$00
	.byte	$00
	.byte	$00
	.byte	$00
	.byte	$00
	.byte	$00
	.byte	$00
	.byte	$00
	.byte	$00
	.byte	$00
	.byte	$00
	.byte	$00
	.byte	$00
	.byte	$00
	.byte	$00
	.byte	$00
	.byte	$00
	.byte	$00
	.byte	$00
	.byte	$00
	.byte	$00
	.byte	$00
	.byte	$00
	.byte	$00
	.byte	$00
	.byte	$00
	.byte	$00
	.byte	$00
	.byte	$00
	.byte	$00
	.byte	$00
	.byte	$00
	.byte	$00
	.byte	$00
	.byte	$00
	.byte	$00
	.byte	$00
	.byte	$00
	.byte	$00
	.byte	$00
	.byte	$00
	.byte	$00
	.byte	$00
	.byte	$00
	.byte	$00
	.byte	$00
	.byte	$00
	.byte	$00
	.byte	$00
	.byte	$00
	.byte	$00
	.byte	$00
	.byte	$00
	.byte	$00
	.byte	$00
	.byte	$00
	.byte	$00
	.byte	$00
	.byte	$00
	.byte	$00
	.byte	$30
	.byte	$11
	.byte	$11
	.byte	$11
	.byte	$11
	.byte	$11
	.byte	$01
	.byte	$05
	.byte	$05
	.byte	$05
	.byte	$01
	.byte	$05
	.byte	$05
	.byte	$05
	.byte	$01
	.byte	$05
	.byte	$05
	.byte	$05
	.byte	$01
	.byte	$05
	.byte	$05
	.byte	$05
_stereomadness__20:
	.byte	$03
	.byte	$07
	.byte	$07
	.byte	$07
	.byte	$03
	.byte	$07
	.byte	$07
	.byte	$07
	.byte	$03
	.byte	$07
	.byte	$07
	.byte	$07
	.byte	$03
	.byte	$07
	.byte	$07
	.byte	$07
	.byte	$03
	.byte	$07
	.byte	$07
	.byte	$07
	.byte	$03
	.byte	$07
	.byte	$07
	.byte	$07
	.byte	$03
	.byte	$07
	.byte	$07
	.byte	$07
	.byte	$03
	.byte	$07
	.byte	$07
	.byte	$07
	.byte	$02
	.byte	$06
	.byte	$06
	.byte	$06
	.byte	$02
	.byte	$06
	.byte	$06
	.byte	$06
	.byte	$02
	.byte	$06
	.byte	$06
	.byte	$06
	.byte	$02
	.byte	$06
	.byte	$06
	.byte	$06
	.byte	$02
	.byte	$06
	.byte	$06
	.byte	$06
	.byte	$02
	.byte	$06
	.byte	$06
	.byte	$06
	.byte	$02
	.byte	$06
	.byte	$06
	.byte	$06
	.byte	$02
	.byte	$06
	.byte	$06
	.byte	$06
	.byte	$1B
	.byte	$1B
	.byte	$1B
	.byte	$1B
	.byte	$1B
	.byte	$1B
	.byte	$1B
	.byte	$1B
	.byte	$1B
	.byte	$32
	.byte	$00
	.byte	$00
	.byte	$00
	.byte	$00
	.byte	$00
	.byte	$00
	.byte	$00
	.byte	$00
	.byte	$00
	.byte	$00
	.byte	$00
	.byte	$00
	.byte	$00
	.byte	$00
	.byte	$00
	.byte	$00
	.byte	$00
	.byte	$00
	.byte	$00
	.byte	$00
	.byte	$00
	.byte	$00
	.byte	$00
	.byte	$00
	.byte	$00
	.byte	$00
	.byte	$00
	.byte	$00
	.byte	$00
	.byte	$00
	.byte	$00
	.byte	$00
	.byte	$00
	.byte	$00
	.byte	$00
	.byte	$00
	.byte	$00
	.byte	$00
	.byte	$00
	.byte	$00
	.byte	$00
	.byte	$00
	.byte	$00
	.byte	$00
	.byte	$00
	.byte	$00
	.byte	$00
	.byte	$00
	.byte	$00
	.byte	$00
	.byte	$00
	.byte	$00
	.byte	$00
	.byte	$00
	.byte	$00
	.byte	$00
	.byte	$00
	.byte	$00
	.byte	$00
	.byte	$00
	.byte	$00
	.byte	$00
	.byte	$00
	.byte	$00
	.byte	$00
	.byte	$00
	.byte	$00
	.byte	$00
	.byte	$00
	.byte	$00
	.byte	$00
	.byte	$00
	.byte	$00
	.byte	$00
	.byte	$00
	.byte	$00
	.byte	$00
	.byte	$00
	.byte	$00
	.byte	$00
	.byte	$00
	.byte	$00
	.byte	$00
	.byte	$00
	.byte	$00
	.byte	$00
	.byte	$00
	.byte	$00
	.byte	$00
	.byte	$00
	.byte	$00
	.byte	$00
	.byte	$00
	.byte	$00
	.byte	$00
	.byte	$00
	.byte	$00
	.byte	$00
	.byte	$00
	.byte	$00
	.byte	$00
	.byte	$00
	.byte	$00
	.byte	$00
	.byte	$00
	.byte	$00
	.byte	$00
	.byte	$00
	.byte	$00
	.byte	$00
	.byte	$00
	.byte	$00
	.byte	$00
	.byte	$00
	.byte	$00
	.byte	$00
	.byte	$00
	.byte	$00
	.byte	$00
	.byte	$00
	.byte	$00
	.byte	$00
	.byte	$00
	.byte	$00
	.byte	$00
	.byte	$00
	.byte	$00
	.byte	$00
	.byte	$00
	.byte	$00
	.byte	$00
	.byte	$00
	.byte	$00
	.byte	$00
	.byte	$11
	.byte	$11
	.byte	$11
	.byte	$11
	.byte	$11
	.byte	$11
	.byte	$11
	.byte	$11
	.byte	$11
	.byte	$30
	.byte	$00
	.byte	$00
	.byte	$00
	.byte	$00
	.byte	$00
	.byte	$00
	.byte	$01
	.byte	$05
	.byte	$05
	.byte	$05
	.byte	$01
	.byte	$05
	.byte	$05
	.byte	$05
	.byte	$01
	.byte	$05
	.byte	$05
	.byte	$05
	.byte	$01
	.byte	$05
	.byte	$05
	.byte	$05
_stereomadness__21:
	.byte	$03
	.byte	$07
	.byte	$07
	.byte	$07
	.byte	$03
	.byte	$07
	.byte	$07
	.byte	$07
	.byte	$03
	.byte	$07
	.byte	$07
	.byte	$07
	.byte	$03
	.byte	$07
	.byte	$07
	.byte	$07
	.byte	$03
	.byte	$07
	.byte	$07
	.byte	$07
	.byte	$03
	.byte	$07
	.byte	$07
	.byte	$07
	.byte	$03
	.byte	$07
	.byte	$07
	.byte	$07
	.byte	$03
	.byte	$07
	.byte	$07
	.byte	$07
	.byte	$02
	.byte	$06
	.byte	$06
	.byte	$06
	.byte	$02
	.byte	$06
	.byte	$06
	.byte	$06
	.byte	$02
	.byte	$06
	.byte	$06
	.byte	$06
	.byte	$02
	.byte	$06
	.byte	$06
	.byte	$06
	.byte	$02
	.byte	$06
	.byte	$06
	.byte	$06
	.byte	$02
	.byte	$06
	.byte	$06
	.byte	$06
	.byte	$02
	.byte	$06
	.byte	$06
	.byte	$06
	.byte	$02
	.byte	$06
	.byte	$06
	.byte	$06
	.byte	$00
	.byte	$00
	.byte	$00
	.byte	$00
	.byte	$00
	.byte	$00
	.byte	$00
	.byte	$00
	.byte	$00
	.byte	$00
	.byte	$00
	.byte	$00
	.byte	$00
	.byte	$00
	.byte	$00
	.byte	$00
	.byte	$00
	.byte	$00
	.byte	$00
	.byte	$00
	.byte	$00
	.byte	$00
	.byte	$00
	.byte	$00
	.byte	$00
	.byte	$00
	.byte	$00
	.byte	$00
	.byte	$00
	.byte	$00
	.byte	$00
	.byte	$00
	.byte	$00
	.byte	$00
	.byte	$00
	.byte	$00
	.byte	$00
	.byte	$00
	.byte	$00
	.byte	$00
	.byte	$00
	.byte	$00
	.byte	$00
	.byte	$00
	.byte	$00
	.byte	$00
	.byte	$00
	.byte	$00
	.byte	$00
	.byte	$00
	.byte	$00
	.byte	$00
	.byte	$00
	.byte	$00
	.byte	$00
	.byte	$00
	.byte	$00
	.byte	$00
	.byte	$00
	.byte	$00
	.byte	$00
	.byte	$00
	.byte	$00
	.byte	$00
	.byte	$00
	.byte	$00
	.byte	$00
	.byte	$00
	.byte	$00
	.byte	$00
	.byte	$00
	.byte	$00
	.byte	$00
	.byte	$00
	.byte	$00
	.byte	$00
	.byte	$00
	.byte	$00
	.byte	$00
	.byte	$00
	.byte	$00
	.byte	$00
	.byte	$00
	.byte	$00
	.byte	$00
	.byte	$00
	.byte	$00
	.byte	$00
	.byte	$00
	.byte	$00
	.byte	$00
	.byte	$00
	.byte	$00
	.byte	$00
	.byte	$00
	.byte	$00
	.byte	$00
	.byte	$00
	.byte	$00
	.byte	$00
	.byte	$00
	.byte	$00
	.byte	$00
	.byte	$00
	.byte	$00
	.byte	$00
	.byte	$00
	.byte	$00
	.byte	$00
	.byte	$00
	.byte	$00
	.byte	$00
	.byte	$00
	.byte	$00
	.byte	$00
	.byte	$00
	.byte	$00
	.byte	$00
	.byte	$00
	.byte	$00
	.byte	$00
	.byte	$00
	.byte	$00
	.byte	$00
	.byte	$00
	.byte	$00
	.byte	$00
	.byte	$00
	.byte	$00
	.byte	$00
	.byte	$00
	.byte	$00
	.byte	$00
	.byte	$00
	.byte	$30
	.byte	$00
	.byte	$00
	.byte	$00
	.byte	$00
	.byte	$00
	.byte	$00
	.byte	$00
	.byte	$00
	.byte	$00
	.byte	$00
	.byte	$00
	.byte	$00
	.byte	$00
	.byte	$00
	.byte	$00
	.byte	$2D
	.byte	$11
	.byte	$11
	.byte	$11
	.byte	$11
	.byte	$00
	.byte	$00
	.byte	$00
	.byte	$00
	.byte	$00
	.byte	$01
	.byte	$05
	.byte	$05
	.byte	$05
	.byte	$01
	.byte	$05
	.byte	$05
	.byte	$05
	.byte	$01
	.byte	$05
	.byte	$05
	.byte	$05
	.byte	$01
	.byte	$05
	.byte	$05
	.byte	$05
_stereomadness__22:
	.byte	$03
	.byte	$07
	.byte	$07
	.byte	$07
	.byte	$03
	.byte	$07
	.byte	$07
	.byte	$07
	.byte	$03
	.byte	$07
	.byte	$07
	.byte	$07
	.byte	$03
	.byte	$07
	.byte	$07
	.byte	$07
	.byte	$03
	.byte	$07
	.byte	$07
	.byte	$07
	.byte	$03
	.byte	$07
	.byte	$07
	.byte	$07
	.byte	$03
	.byte	$07
	.byte	$07
	.byte	$07
	.byte	$03
	.byte	$07
	.byte	$07
	.byte	$07
	.byte	$02
	.byte	$06
	.byte	$06
	.byte	$06
	.byte	$02
	.byte	$06
	.byte	$06
	.byte	$06
	.byte	$02
	.byte	$06
	.byte	$06
	.byte	$06
	.byte	$02
	.byte	$06
	.byte	$06
	.byte	$06
	.byte	$02
	.byte	$06
	.byte	$06
	.byte	$06
	.byte	$02
	.byte	$06
	.byte	$06
	.byte	$06
	.byte	$02
	.byte	$06
	.byte	$06
	.byte	$06
	.byte	$02
	.byte	$06
	.byte	$06
	.byte	$06
	.byte	$00
	.byte	$00
	.byte	$00
	.byte	$2D
	.byte	$1B
	.byte	$1B
	.byte	$1B
	.byte	$1B
	.byte	$00
	.byte	$00
	.byte	$00
	.byte	$00
	.byte	$00
	.byte	$00
	.byte	$00
	.byte	$00
	.byte	$00
	.byte	$00
	.byte	$00
	.byte	$32
	.byte	$00
	.byte	$00
	.byte	$00
	.byte	$00
	.byte	$00
	.byte	$00
	.byte	$00
	.byte	$00
	.byte	$00
	.byte	$00
	.byte	$00
	.byte	$00
	.byte	$00
	.byte	$00
	.byte	$00
	.byte	$00
	.byte	$00
	.byte	$00
	.byte	$00
	.byte	$00
	.byte	$00
	.byte	$00
	.byte	$00
	.byte	$00
	.byte	$00
	.byte	$00
	.byte	$00
	.byte	$00
	.byte	$00
	.byte	$00
	.byte	$00
	.byte	$00
	.byte	$00
	.byte	$00
	.byte	$00
	.byte	$00
	.byte	$00
	.byte	$00
	.byte	$00
	.byte	$00
	.byte	$00
	.byte	$00
	.byte	$00
	.byte	$00
	.byte	$00
	.byte	$00
	.byte	$00
	.byte	$00
	.byte	$00
	.byte	$00
	.byte	$00
	.byte	$00
	.byte	$00
	.byte	$00
	.byte	$00
	.byte	$00
	.byte	$00
	.byte	$00
	.byte	$00
	.byte	$00
	.byte	$00
	.byte	$00
	.byte	$00
	.byte	$00
	.byte	$00
	.byte	$00
	.byte	$00
	.byte	$00
	.byte	$00
	.byte	$00
	.byte	$00
	.byte	$00
	.byte	$00
	.byte	$00
	.byte	$00
	.byte	$00
	.byte	$00
	.byte	$00
	.byte	$00
	.byte	$00
	.byte	$00
	.byte	$00
	.byte	$00
	.byte	$00
	.byte	$00
	.byte	$00
	.byte	$00
	.byte	$00
	.byte	$00
	.byte	$00
	.byte	$00
	.byte	$00
	.byte	$00
	.byte	$00
	.byte	$00
	.byte	$00
	.byte	$00
	.byte	$00
	.byte	$00
	.byte	$00
	.byte	$00
	.byte	$00
	.byte	$00
	.byte	$00
	.byte	$00
	.byte	$00
	.byte	$00
	.byte	$00
	.byte	$00
	.byte	$00
	.byte	$00
	.byte	$00
	.byte	$00
	.byte	$00
	.byte	$00
	.byte	$00
	.byte	$00
	.byte	$00
	.byte	$00
	.byte	$00
	.byte	$00
	.byte	$00
	.byte	$00
	.byte	$00
	.byte	$00
	.byte	$00
	.byte	$00
	.byte	$00
	.byte	$00
	.byte	$00
	.byte	$00
	.byte	$00
	.byte	$00
	.byte	$00
	.byte	$00
	.byte	$00
	.byte	$30
	.byte	$11
	.byte	$11
	.byte	$11
	.byte	$01
	.byte	$05
	.byte	$05
	.byte	$05
	.byte	$01
	.byte	$05
	.byte	$05
	.byte	$05
	.byte	$01
	.byte	$05
	.byte	$05
	.byte	$05
	.byte	$01
	.byte	$05
	.byte	$05
	.byte	$05
_stereomadness__23:
	.byte	$03
	.byte	$07
	.byte	$07
	.byte	$07
	.byte	$03
	.byte	$07
	.byte	$07
	.byte	$07
	.byte	$03
	.byte	$07
	.byte	$07
	.byte	$07
	.byte	$03
	.byte	$07
	.byte	$07
	.byte	$07
	.byte	$03
	.byte	$07
	.byte	$07
	.byte	$07
	.byte	$03
	.byte	$07
	.byte	$07
	.byte	$07
	.byte	$03
	.byte	$07
	.byte	$07
	.byte	$07
	.byte	$03
	.byte	$07
	.byte	$07
	.byte	$07
	.byte	$02
	.byte	$06
	.byte	$06
	.byte	$06
	.byte	$02
	.byte	$06
	.byte	$06
	.byte	$06
	.byte	$02
	.byte	$06
	.byte	$06
	.byte	$06
	.byte	$02
	.byte	$06
	.byte	$06
	.byte	$06
	.byte	$02
	.byte	$06
	.byte	$06
	.byte	$06
	.byte	$02
	.byte	$06
	.byte	$06
	.byte	$06
	.byte	$02
	.byte	$06
	.byte	$06
	.byte	$06
	.byte	$02
	.byte	$06
	.byte	$06
	.byte	$06
	.byte	$00
	.byte	$00
	.byte	$00
	.byte	$00
	.byte	$00
	.byte	$00
	.byte	$00
	.byte	$00
	.byte	$00
	.byte	$00
	.byte	$00
	.byte	$00
	.byte	$00
	.byte	$00
	.byte	$00
	.byte	$00
	.byte	$00
	.byte	$00
	.byte	$00
	.byte	$00
	.byte	$00
	.byte	$00
	.byte	$00
	.byte	$00
	.byte	$00
	.byte	$00
	.byte	$00
	.byte	$00
	.byte	$00
	.byte	$00
	.byte	$00
	.byte	$00
	.byte	$00
	.byte	$00
	.byte	$00
	.byte	$00
	.byte	$00
	.byte	$00
	.byte	$00
	.byte	$00
	.byte	$00
	.byte	$00
	.byte	$00
	.byte	$00
	.byte	$00
	.byte	$00
	.byte	$00
	.byte	$00
	.byte	$00
	.byte	$00
	.byte	$00
	.byte	$00
	.byte	$00
	.byte	$00
	.byte	$00
	.byte	$00
	.byte	$00
	.byte	$00
	.byte	$00
	.byte	$00
	.byte	$00
	.byte	$00
	.byte	$00
	.byte	$00
	.byte	$00
	.byte	$00
	.byte	$00
	.byte	$00
	.byte	$00
	.byte	$00
	.byte	$00
	.byte	$00
	.byte	$00
	.byte	$00
	.byte	$00
	.byte	$00
	.byte	$00
	.byte	$00
	.byte	$00
	.byte	$00
	.byte	$00
	.byte	$00
	.byte	$00
	.byte	$00
	.byte	$00
	.byte	$00
	.byte	$00
	.byte	$00
	.byte	$00
	.byte	$00
	.byte	$00
	.byte	$00
	.byte	$00
	.byte	$00
	.byte	$00
	.byte	$00
	.byte	$00
	.byte	$00
	.byte	$00
	.byte	$00
	.byte	$00
	.byte	$00
	.byte	$00
	.byte	$00
	.byte	$00
	.byte	$00
	.byte	$00
	.byte	$00
	.byte	$00
	.byte	$00
	.byte	$00
	.byte	$00
	.byte	$00
	.byte	$00
	.byte	$00
	.byte	$00
	.byte	$00
	.byte	$00
	.byte	$00
	.byte	$00
	.byte	$30
	.byte	$00
	.byte	$00
	.byte	$00
	.byte	$00
	.byte	$00
	.byte	$00
	.byte	$00
	.byte	$00
	.byte	$00
	.byte	$30
	.byte	$00
	.byte	$00
	.byte	$00
	.byte	$00
	.byte	$00
	.byte	$2D
	.byte	$00
	.byte	$00
	.byte	$00
	.byte	$00
	.byte	$00
	.byte	$00
	.byte	$00
	.byte	$11
	.byte	$11
	.byte	$2D
	.byte	$11
	.byte	$11
	.byte	$11
	.byte	$11
	.byte	$11
	.byte	$2D
	.byte	$00
	.byte	$00
	.byte	$00
	.byte	$00
	.byte	$00
	.byte	$00
	.byte	$00
	.byte	$01
	.byte	$05
	.byte	$05
	.byte	$05
	.byte	$01
	.byte	$05
	.byte	$05
	.byte	$05
	.byte	$01
	.byte	$05
	.byte	$05
	.byte	$05
	.byte	$01
	.byte	$05
	.byte	$05
	.byte	$05
_stereomadness__24:
	.byte	$03
	.byte	$07
	.byte	$07
	.byte	$07
	.byte	$03
	.byte	$07
	.byte	$07
	.byte	$07
	.byte	$03
	.byte	$07
	.byte	$07
	.byte	$07
	.byte	$03
	.byte	$07
	.byte	$07
	.byte	$07
	.byte	$03
	.byte	$07
	.byte	$07
	.byte	$07
	.byte	$03
	.byte	$07
	.byte	$07
	.byte	$07
	.byte	$03
	.byte	$07
	.byte	$07
	.byte	$07
	.byte	$03
	.byte	$07
	.byte	$07
	.byte	$07
	.byte	$02
	.byte	$06
	.byte	$06
	.byte	$06
	.byte	$02
	.byte	$06
	.byte	$06
	.byte	$06
	.byte	$02
	.byte	$06
	.byte	$06
	.byte	$06
	.byte	$02
	.byte	$06
	.byte	$06
	.byte	$06
	.byte	$02
	.byte	$06
	.byte	$06
	.byte	$06
	.byte	$02
	.byte	$06
	.byte	$06
	.byte	$06
	.byte	$02
	.byte	$06
	.byte	$06
	.byte	$06
	.byte	$02
	.byte	$06
	.byte	$06
	.byte	$06
	.byte	$1B
	.byte	$1B
	.byte	$1B
	.byte	$1B
	.byte	$1B
	.byte	$1B
	.byte	$1B
	.byte	$2D
	.byte	$1B
	.byte	$1B
	.byte	$1B
	.byte	$1B
	.byte	$1B
	.byte	$1B
	.byte	$1B
	.byte	$1B
	.byte	$00
	.byte	$00
	.byte	$00
	.byte	$00
	.byte	$00
	.byte	$00
	.byte	$00
	.byte	$2D
	.byte	$00
	.byte	$00
	.byte	$00
	.byte	$00
	.byte	$00
	.byte	$00
	.byte	$00
	.byte	$00
	.byte	$00
	.byte	$00
	.byte	$00
	.byte	$00
	.byte	$00
	.byte	$00
	.byte	$00
	.byte	$2D
	.byte	$00
	.byte	$00
	.byte	$00
	.byte	$00
	.byte	$00
	.byte	$00
	.byte	$00
	.byte	$00
	.byte	$00
	.byte	$00
	.byte	$00
	.byte	$00
	.byte	$00
	.byte	$00
	.byte	$00
	.byte	$32
	.byte	$00
	.byte	$00
	.byte	$00
	.byte	$00
	.byte	$00
	.byte	$00
	.byte	$00
	.byte	$00
	.byte	$00
	.byte	$00
	.byte	$00
	.byte	$00
	.byte	$00
	.byte	$00
	.byte	$00
	.byte	$00
	.byte	$00
	.byte	$00
	.byte	$00
	.byte	$00
	.byte	$00
	.byte	$00
	.byte	$00
	.byte	$00
	.byte	$00
	.byte	$00
	.byte	$00
	.byte	$00
	.byte	$00
	.byte	$00
	.byte	$00
	.byte	$00
	.byte	$00
	.byte	$00
	.byte	$00
	.byte	$00
	.byte	$00
	.byte	$00
	.byte	$00
	.byte	$00
	.byte	$00
	.byte	$00
	.byte	$00
	.byte	$00
	.byte	$00
	.byte	$00
	.byte	$00
	.byte	$00
	.byte	$00
	.byte	$00
	.byte	$00
	.byte	$00
	.byte	$00
	.byte	$00
	.byte	$00
	.byte	$00
	.byte	$00
	.byte	$00
	.byte	$00
	.byte	$00
	.byte	$00
	.byte	$00
	.byte	$00
	.byte	$00
	.byte	$00
	.byte	$00
	.byte	$00
	.byte	$00
	.byte	$00
	.byte	$00
	.byte	$00
	.byte	$00
	.byte	$00
	.byte	$00
	.byte	$00
	.byte	$00
	.byte	$00
	.byte	$00
	.byte	$00
	.byte	$00
	.byte	$00
	.byte	$00
	.byte	$00
	.byte	$00
	.byte	$00
	.byte	$00
	.byte	$00
	.byte	$00
	.byte	$00
	.byte	$00
	.byte	$00
	.byte	$00
	.byte	$00
	.byte	$00
	.byte	$00
	.byte	$00
	.byte	$00
	.byte	$00
	.byte	$00
	.byte	$00
	.byte	$00
	.byte	$00
	.byte	$00
	.byte	$00
	.byte	$01
	.byte	$05
	.byte	$05
	.byte	$05
	.byte	$01
	.byte	$05
	.byte	$05
	.byte	$05
	.byte	$01
	.byte	$05
	.byte	$05
	.byte	$05
	.byte	$01
	.byte	$05
	.byte	$05
	.byte	$05
_stereomadness__25:
	.byte	$03
	.byte	$07
	.byte	$07
	.byte	$07
	.byte	$03
	.byte	$07
	.byte	$07
	.byte	$07
	.byte	$03
	.byte	$07
	.byte	$07
	.byte	$07
	.byte	$03
	.byte	$07
	.byte	$07
	.byte	$07
	.byte	$03
	.byte	$07
	.byte	$07
	.byte	$07
	.byte	$03
	.byte	$07
	.byte	$07
	.byte	$07
	.byte	$03
	.byte	$07
	.byte	$07
	.byte	$07
	.byte	$03
	.byte	$07
	.byte	$07
	.byte	$07
	.byte	$02
	.byte	$06
	.byte	$06
	.byte	$06
	.byte	$02
	.byte	$06
	.byte	$06
	.byte	$06
	.byte	$02
	.byte	$06
	.byte	$06
	.byte	$06
	.byte	$02
	.byte	$06
	.byte	$06
	.byte	$06
	.byte	$02
	.byte	$06
	.byte	$06
	.byte	$06
	.byte	$02
	.byte	$06
	.byte	$06
	.byte	$06
	.byte	$02
	.byte	$06
	.byte	$06
	.byte	$06
	.byte	$02
	.byte	$06
	.byte	$06
	.byte	$06
	.byte	$1B
	.byte	$1B
	.byte	$1B
	.byte	$1B
	.byte	$24
	.byte	$2F
	.byte	$2F
	.byte	$2F
	.byte	$2F
	.byte	$2F
	.byte	$2F
	.byte	$2F
	.byte	$2F
	.byte	$2F
	.byte	$2F
	.byte	$2F
	.byte	$00
	.byte	$00
	.byte	$00
	.byte	$00
	.byte	$24
	.byte	$2F
	.byte	$2F
	.byte	$2F
	.byte	$2F
	.byte	$2F
	.byte	$2F
	.byte	$2F
	.byte	$2F
	.byte	$2F
	.byte	$2F
	.byte	$2F
	.byte	$00
	.byte	$00
	.byte	$00
	.byte	$00
	.byte	$28
	.byte	$23
	.byte	$23
	.byte	$23
	.byte	$23
	.byte	$23
	.byte	$23
	.byte	$23
	.byte	$23
	.byte	$23
	.byte	$23
	.byte	$23
	.byte	$00
	.byte	$00
	.byte	$00
	.byte	$00
	.byte	$00
	.byte	$00
	.byte	$00
	.byte	$00
	.byte	$00
	.byte	$00
	.byte	$00
	.byte	$00
	.byte	$00
	.byte	$00
	.byte	$00
	.byte	$00
	.byte	$00
	.byte	$00
	.byte	$00
	.byte	$00
	.byte	$00
	.byte	$00
	.byte	$00
	.byte	$00
	.byte	$00
	.byte	$00
	.byte	$00
	.byte	$00
	.byte	$00
	.byte	$00
	.byte	$00
	.byte	$00
	.byte	$00
	.byte	$00
	.byte	$00
	.byte	$00
	.byte	$00
	.byte	$00
	.byte	$00
	.byte	$00
	.byte	$00
	.byte	$00
	.byte	$00
	.byte	$00
	.byte	$00
	.byte	$00
	.byte	$00
	.byte	$00
	.byte	$00
	.byte	$00
	.byte	$00
	.byte	$00
	.byte	$00
	.byte	$00
	.byte	$00
	.byte	$00
	.byte	$00
	.byte	$00
	.byte	$00
	.byte	$00
	.byte	$00
	.byte	$00
	.byte	$00
	.byte	$00
	.byte	$00
	.byte	$00
	.byte	$00
	.byte	$00
	.byte	$25
	.byte	$21
	.byte	$21
	.byte	$21
	.byte	$21
	.byte	$21
	.byte	$21
	.byte	$21
	.byte	$21
	.byte	$21
	.byte	$21
	.byte	$21
	.byte	$00
	.byte	$00
	.byte	$00
	.byte	$00
	.byte	$24
	.byte	$2F
	.byte	$2F
	.byte	$2F
	.byte	$2F
	.byte	$2F
	.byte	$2F
	.byte	$2F
	.byte	$2F
	.byte	$2F
	.byte	$2F
	.byte	$2F
	.byte	$00
	.byte	$00
	.byte	$00
	.byte	$00
	.byte	$24
	.byte	$2F
	.byte	$2F
	.byte	$2F
	.byte	$2F
	.byte	$2F
	.byte	$2F
	.byte	$2F
	.byte	$2F
	.byte	$2F
	.byte	$2F
	.byte	$2F
	.byte	$01
	.byte	$05
	.byte	$05
	.byte	$05
	.byte	$01
	.byte	$05
	.byte	$05
	.byte	$05
	.byte	$01
	.byte	$05
	.byte	$05
	.byte	$05
	.byte	$01
	.byte	$05
	.byte	$05
	.byte	$05
_stereomadness__26:
	.byte	$03
	.byte	$07
	.byte	$07
	.byte	$00
	.byte	$00
	.byte	$00
	.byte	$00
	.byte	$00
	.byte	$00
	.byte	$00
	.byte	$00
	.byte	$00
	.byte	$00
	.byte	$00
	.byte	$00
	.byte	$00
	.byte	$03
	.byte	$07
	.byte	$07
	.byte	$00
	.byte	$00
	.byte	$00
	.byte	$00
	.byte	$00
	.byte	$00
	.byte	$00
	.byte	$00
	.byte	$00
	.byte	$00
	.byte	$00
	.byte	$00
	.byte	$00
	.byte	$02
	.byte	$06
	.byte	$06
	.byte	$00
	.byte	$00
	.byte	$00
	.byte	$00
	.byte	$00
	.byte	$00
	.byte	$00
	.byte	$00
	.byte	$00
	.byte	$00
	.byte	$00
	.byte	$00
	.byte	$00
	.byte	$02
	.byte	$06
	.byte	$06
	.byte	$00
	.byte	$00
	.byte	$00
	.byte	$00
	.byte	$00
	.byte	$00
	.byte	$00
	.byte	$00
	.byte	$00
	.byte	$00
	.byte	$00
	.byte	$00
	.byte	$00
	.byte	$2F
	.byte	$2F
	.byte	$22
	.byte	$00
	.byte	$00
	.byte	$00
	.byte	$00
	.byte	$00
	.byte	$00
	.byte	$00
	.byte	$00
	.byte	$00
	.byte	$00
	.byte	$00
	.byte	$00
	.byte	$00
	.byte	$2F
	.byte	$2F
	.byte	$22
	.byte	$00
	.byte	$00
	.byte	$00
	.byte	$00
	.byte	$00
	.byte	$00
	.byte	$00
	.byte	$00
	.byte	$00
	.byte	$00
	.byte	$00
	.byte	$00
	.byte	$00
	.byte	$23
	.byte	$23
	.byte	$27
	.byte	$00
	.byte	$00
	.byte	$00
	.byte	$00
	.byte	$00
	.byte	$00
	.byte	$00
	.byte	$00
	.byte	$00
	.byte	$00
	.byte	$00
	.byte	$00
	.byte	$00
	.byte	$00
	.byte	$00
	.byte	$00
	.byte	$00
	.byte	$00
	.byte	$00
	.byte	$00
	.byte	$00
	.byte	$00
	.byte	$00
	.byte	$00
	.byte	$00
	.byte	$00
	.byte	$00
	.byte	$00
	.byte	$00
	.byte	$00
	.byte	$00
	.byte	$00
	.byte	$00
	.byte	$00
	.byte	$00
	.byte	$00
	.byte	$00
	.byte	$00
	.byte	$00
	.byte	$00
	.byte	$00
	.byte	$00
	.byte	$00
	.byte	$00
	.byte	$00
	.byte	$00
	.byte	$00
	.byte	$00
	.byte	$00
	.byte	$00
	.byte	$00
	.byte	$00
	.byte	$00
	.byte	$00
	.byte	$00
	.byte	$00
	.byte	$00
	.byte	$00
	.byte	$00
	.byte	$00
	.byte	$00
	.byte	$00
	.byte	$00
	.byte	$00
	.byte	$00
	.byte	$00
	.byte	$00
	.byte	$00
	.byte	$00
	.byte	$00
	.byte	$00
	.byte	$00
	.byte	$00
	.byte	$00
	.byte	$00
	.byte	$00
	.byte	$00
	.byte	$21
	.byte	$21
	.byte	$26
	.byte	$00
	.byte	$00
	.byte	$00
	.byte	$00
	.byte	$00
	.byte	$00
	.byte	$00
	.byte	$00
	.byte	$00
	.byte	$00
	.byte	$00
	.byte	$00
	.byte	$00
	.byte	$2F
	.byte	$2F
	.byte	$2A
	.byte	$21
	.byte	$21
	.byte	$21
	.byte	$21
	.byte	$21
	.byte	$21
	.byte	$21
	.byte	$21
	.byte	$21
	.byte	$21
	.byte	$21
	.byte	$21
	.byte	$21
	.byte	$2F
	.byte	$2F
	.byte	$2F
	.byte	$2F
	.byte	$2F
	.byte	$2F
	.byte	$2F
	.byte	$2F
	.byte	$2F
	.byte	$2F
	.byte	$2F
	.byte	$2F
	.byte	$2F
	.byte	$2F
	.byte	$2F
	.byte	$2F
	.byte	$01
	.byte	$05
	.byte	$05
	.byte	$05
	.byte	$01
	.byte	$05
	.byte	$05
	.byte	$05
	.byte	$01
	.byte	$05
	.byte	$05
	.byte	$05
	.byte	$01
	.byte	$05
	.byte	$05
	.byte	$05
_stereomadness__27:
	.byte	$00
	.byte	$00
	.byte	$00
	.byte	$00
	.byte	$00
	.byte	$00
	.byte	$00
	.byte	$00
	.byte	$00
	.byte	$00
	.byte	$00
	.byte	$00
	.byte	$00
	.byte	$00
	.byte	$00
	.byte	$00
	.byte	$00
	.byte	$00
	.byte	$00
	.byte	$00
	.byte	$00
	.byte	$00
	.byte	$00
	.byte	$00
	.byte	$00
	.byte	$00
	.byte	$00
	.byte	$00
	.byte	$00
	.byte	$00
	.byte	$00
	.byte	$00
	.byte	$00
	.byte	$00
	.byte	$00
	.byte	$00
	.byte	$00
	.byte	$00
	.byte	$00
	.byte	$00
	.byte	$00
	.byte	$00
	.byte	$00
	.byte	$00
	.byte	$00
	.byte	$00
	.byte	$00
	.byte	$00
	.byte	$00
	.byte	$00
	.byte	$00
	.byte	$00
	.byte	$00
	.byte	$00
	.byte	$00
	.byte	$00
	.byte	$00
	.byte	$00
	.byte	$00
	.byte	$00
	.byte	$00
	.byte	$00
	.byte	$00
	.byte	$00
	.byte	$00
	.byte	$00
	.byte	$00
	.byte	$00
	.byte	$00
	.byte	$00
	.byte	$00
	.byte	$00
	.byte	$00
	.byte	$00
	.byte	$00
	.byte	$00
	.byte	$00
	.byte	$00
	.byte	$00
	.byte	$00
	.byte	$00
	.byte	$00
	.byte	$00
	.byte	$00
	.byte	$00
	.byte	$00
	.byte	$00
	.byte	$00
	.byte	$00
	.byte	$00
	.byte	$00
	.byte	$00
	.byte	$00
	.byte	$00
	.byte	$00
	.byte	$00
	.byte	$00
	.byte	$00
	.byte	$00
	.byte	$00
	.byte	$00
	.byte	$00
	.byte	$00
	.byte	$00
	.byte	$00
	.byte	$00
	.byte	$00
	.byte	$00
	.byte	$00
	.byte	$00
	.byte	$00
	.byte	$00
	.byte	$00
	.byte	$00
	.byte	$00
	.byte	$00
	.byte	$00
	.byte	$00
	.byte	$00
	.byte	$00
	.byte	$00
	.byte	$00
	.byte	$00
	.byte	$00
	.byte	$00
	.byte	$00
	.byte	$00
	.byte	$00
	.byte	$00
	.byte	$00
	.byte	$00
	.byte	$00
	.byte	$00
	.byte	$00
	.byte	$00
	.byte	$00
	.byte	$00
	.byte	$00
	.byte	$00
	.byte	$00
	.byte	$00
	.byte	$00
	.byte	$00
	.byte	$00
	.byte	$00
	.byte	$00
	.byte	$00
	.byte	$00
	.byte	$00
	.byte	$00
	.byte	$00
	.byte	$00
	.byte	$00
	.byte	$00
	.byte	$00
	.byte	$00
	.byte	$30
	.byte	$00
	.byte	$00
	.byte	$00
	.byte	$00
	.byte	$00
	.byte	$00
	.byte	$00
	.byte	$00
	.byte	$00
	.byte	$00
	.byte	$00
	.byte	$30
	.byte	$00
	.byte	$00
	.byte	$00
	.byte	$32
	.byte	$00
	.byte	$00
	.byte	$00
	.byte	$00
	.byte	$00
	.byte	$00
	.byte	$00
	.byte	$30
	.byte	$00
	.byte	$00
	.byte	$00
	.byte	$2D
	.byte	$00
	.byte	$00
	.byte	$00
	.byte	$2F
	.byte	$00
	.byte	$00
	.byte	$00
	.byte	$26
	.byte	$00
	.byte	$00
	.byte	$00
	.byte	$2D
	.byte	$00
	.byte	$00
	.byte	$00
	.byte	$2D
	.byte	$00
	.byte	$00
	.byte	$00
	.byte	$2F
	.byte	$00
	.byte	$00
	.byte	$00
	.byte	$22
	.byte	$18
	.byte	$18
	.byte	$18
	.byte	$2D
	.byte	$18
	.byte	$18
	.byte	$18
	.byte	$2D
	.byte	$18
	.byte	$18
	.byte	$18
	.byte	$30
	.byte	$18
	.byte	$18
	.byte	$18
	.byte	$01
	.byte	$05
	.byte	$05
	.byte	$05
	.byte	$01
	.byte	$05
	.byte	$05
	.byte	$05
	.byte	$01
	.byte	$05
	.byte	$05
	.byte	$05
	.byte	$01
	.byte	$05
	.byte	$05
	.byte	$05
_stereomadness__28:
	.byte	$00
	.byte	$00
	.byte	$00
	.byte	$00
	.byte	$00
	.byte	$00
	.byte	$00
	.byte	$00
	.byte	$00
	.byte	$00
	.byte	$00
	.byte	$00
	.byte	$00
	.byte	$00
	.byte	$00
	.byte	$00
	.byte	$00
	.byte	$00
	.byte	$00
	.byte	$00
	.byte	$00
	.byte	$00
	.byte	$00
	.byte	$00
	.byte	$00
	.byte	$00
	.byte	$00
	.byte	$00
	.byte	$00
	.byte	$00
	.byte	$00
	.byte	$00
	.byte	$00
	.byte	$00
	.byte	$00
	.byte	$00
	.byte	$00
	.byte	$00
	.byte	$00
	.byte	$00
	.byte	$00
	.byte	$00
	.byte	$00
	.byte	$00
	.byte	$00
	.byte	$00
	.byte	$00
	.byte	$00
	.byte	$00
	.byte	$00
	.byte	$00
	.byte	$00
	.byte	$00
	.byte	$00
	.byte	$00
	.byte	$00
	.byte	$00
	.byte	$00
	.byte	$00
	.byte	$00
	.byte	$00
	.byte	$00
	.byte	$00
	.byte	$00
	.byte	$10
	.byte	$10
	.byte	$10
	.byte	$00
	.byte	$00
	.byte	$00
	.byte	$00
	.byte	$00
	.byte	$00
	.byte	$00
	.byte	$00
	.byte	$00
	.byte	$00
	.byte	$00
	.byte	$00
	.byte	$00
	.byte	$1B
	.byte	$1B
	.byte	$1B
	.byte	$00
	.byte	$00
	.byte	$00
	.byte	$00
	.byte	$00
	.byte	$00
	.byte	$00
	.byte	$00
	.byte	$00
	.byte	$00
	.byte	$00
	.byte	$00
	.byte	$00
	.byte	$00
	.byte	$00
	.byte	$00
	.byte	$00
	.byte	$00
	.byte	$00
	.byte	$00
	.byte	$00
	.byte	$00
	.byte	$00
	.byte	$00
	.byte	$00
	.byte	$00
	.byte	$00
	.byte	$00
	.byte	$00
	.byte	$00
	.byte	$00
	.byte	$00
	.byte	$00
	.byte	$00
	.byte	$00
	.byte	$00
	.byte	$00
	.byte	$00
	.byte	$00
	.byte	$00
	.byte	$00
	.byte	$00
	.byte	$00
	.byte	$00
	.byte	$00
	.byte	$30
	.byte	$00
	.byte	$00
	.byte	$00
	.byte	$00
	.byte	$00
	.byte	$00
	.byte	$00
	.byte	$00
	.byte	$00
	.byte	$00
	.byte	$00
	.byte	$00
	.byte	$00
	.byte	$00
	.byte	$00
	.byte	$32
	.byte	$00
	.byte	$00
	.byte	$00
	.byte	$00
	.byte	$00
	.byte	$00
	.byte	$00
	.byte	$00
	.byte	$00
	.byte	$00
	.byte	$00
	.byte	$00
	.byte	$00
	.byte	$00
	.byte	$00
	.byte	$2F
	.byte	$00
	.byte	$14
	.byte	$00
	.byte	$00
	.byte	$00
	.byte	$00
	.byte	$00
	.byte	$00
	.byte	$00
	.byte	$00
	.byte	$00
	.byte	$00
	.byte	$00
	.byte	$00
	.byte	$30
	.byte	$2F
	.byte	$00
	.byte	$00
	.byte	$00
	.byte	$00
	.byte	$00
	.byte	$00
	.byte	$00
	.byte	$00
	.byte	$00
	.byte	$00
	.byte	$30
	.byte	$00
	.byte	$00
	.byte	$00
	.byte	$2D
	.byte	$25
	.byte	$21
	.byte	$21
	.byte	$21
	.byte	$21
	.byte	$21
	.byte	$21
	.byte	$26
	.byte	$00
	.byte	$00
	.byte	$00
	.byte	$2D
	.byte	$00
	.byte	$00
	.byte	$00
	.byte	$2D
	.byte	$24
	.byte	$2F
	.byte	$2F
	.byte	$2F
	.byte	$2F
	.byte	$2F
	.byte	$2F
	.byte	$22
	.byte	$18
	.byte	$18
	.byte	$18
	.byte	$2D
	.byte	$18
	.byte	$18
	.byte	$18
	.byte	$2D
	.byte	$01
	.byte	$05
	.byte	$05
	.byte	$05
	.byte	$01
	.byte	$05
	.byte	$05
	.byte	$05
	.byte	$01
	.byte	$05
	.byte	$05
	.byte	$05
	.byte	$01
	.byte	$05
	.byte	$05
	.byte	$05
_stereomadness__29:
	.byte	$00
	.byte	$00
	.byte	$00
	.byte	$00
	.byte	$00
	.byte	$00
	.byte	$00
	.byte	$00
	.byte	$00
	.byte	$00
	.byte	$00
	.byte	$00
	.byte	$00
	.byte	$00
	.byte	$00
	.byte	$00
	.byte	$00
	.byte	$00
	.byte	$00
	.byte	$00
	.byte	$00
	.byte	$00
	.byte	$00
	.byte	$00
	.byte	$00
	.byte	$00
	.byte	$00
	.byte	$00
	.byte	$00
	.byte	$00
	.byte	$00
	.byte	$00
	.byte	$00
	.byte	$00
	.byte	$00
	.byte	$00
	.byte	$00
	.byte	$00
	.byte	$00
	.byte	$00
	.byte	$00
	.byte	$00
	.byte	$00
	.byte	$00
	.byte	$00
	.byte	$00
	.byte	$00
	.byte	$00
	.byte	$00
	.byte	$00
	.byte	$00
	.byte	$00
	.byte	$00
	.byte	$00
	.byte	$00
	.byte	$00
	.byte	$00
	.byte	$00
	.byte	$00
	.byte	$00
	.byte	$00
	.byte	$00
	.byte	$00
	.byte	$00
	.byte	$00
	.byte	$00
	.byte	$00
	.byte	$00
	.byte	$00
	.byte	$00
	.byte	$00
	.byte	$00
	.byte	$00
	.byte	$00
	.byte	$00
	.byte	$00
	.byte	$00
	.byte	$00
	.byte	$00
	.byte	$00
	.byte	$00
	.byte	$00
	.byte	$00
	.byte	$00
	.byte	$00
	.byte	$00
	.byte	$00
	.byte	$00
	.byte	$00
	.byte	$00
	.byte	$00
	.byte	$00
	.byte	$00
	.byte	$00
	.byte	$00
	.byte	$00
	.byte	$00
	.byte	$00
	.byte	$00
	.byte	$00
	.byte	$00
	.byte	$00
	.byte	$00
	.byte	$00
	.byte	$00
	.byte	$00
	.byte	$00
	.byte	$00
	.byte	$00
	.byte	$00
	.byte	$00
	.byte	$30
	.byte	$00
	.byte	$00
	.byte	$00
	.byte	$00
	.byte	$00
	.byte	$00
	.byte	$00
	.byte	$00
	.byte	$00
	.byte	$00
	.byte	$00
	.byte	$30
	.byte	$00
	.byte	$00
	.byte	$00
	.byte	$2D
	.byte	$00
	.byte	$00
	.byte	$00
	.byte	$00
	.byte	$00
	.byte	$00
	.byte	$00
	.byte	$30
	.byte	$00
	.byte	$00
	.byte	$00
	.byte	$2D
	.byte	$00
	.byte	$00
	.byte	$00
	.byte	$2D
	.byte	$00
	.byte	$00
	.byte	$00
	.byte	$30
	.byte	$00
	.byte	$00
	.byte	$00
	.byte	$2D
	.byte	$00
	.byte	$00
	.byte	$00
	.byte	$2D
	.byte	$00
	.byte	$00
	.byte	$00
	.byte	$2D
	.byte	$00
	.byte	$00
	.byte	$00
	.byte	$2D
	.byte	$00
	.byte	$00
	.byte	$00
	.byte	$2D
	.byte	$00
	.byte	$00
	.byte	$00
	.byte	$2D
	.byte	$00
	.byte	$00
	.byte	$00
	.byte	$2D
	.byte	$00
	.byte	$00
	.byte	$00
	.byte	$2D
	.byte	$00
	.byte	$00
	.byte	$00
	.byte	$2D
	.byte	$00
	.byte	$00
	.byte	$00
	.byte	$2D
	.byte	$00
	.byte	$00
	.byte	$00
	.byte	$2D
	.byte	$00
	.byte	$00
	.byte	$00
	.byte	$2D
	.byte	$00
	.byte	$00
	.byte	$00
	.byte	$2D
	.byte	$00
	.byte	$00
	.byte	$00
	.byte	$2D
	.byte	$00
	.byte	$00
	.byte	$00
	.byte	$2D
	.byte	$18
	.byte	$18
	.byte	$18
	.byte	$2D
	.byte	$18
	.byte	$18
	.byte	$18
	.byte	$2D
	.byte	$18
	.byte	$18
	.byte	$18
	.byte	$2D
	.byte	$18
	.byte	$18
	.byte	$18
	.byte	$2D
	.byte	$01
	.byte	$05
	.byte	$05
	.byte	$05
	.byte	$01
	.byte	$05
	.byte	$05
	.byte	$05
	.byte	$01
	.byte	$05
	.byte	$05
	.byte	$05
	.byte	$01
	.byte	$05
	.byte	$05
	.byte	$05
_stereomadness__30:
	.byte	$00
	.byte	$00
	.byte	$00
	.byte	$00
	.byte	$00
	.byte	$00
	.byte	$00
	.byte	$00
	.byte	$00
	.byte	$00
	.byte	$00
	.byte	$00
	.byte	$00
	.byte	$00
	.byte	$00
	.byte	$00
	.byte	$00
	.byte	$00
	.byte	$00
	.byte	$00
	.byte	$00
	.byte	$00
	.byte	$00
	.byte	$00
	.byte	$00
	.byte	$00
	.byte	$00
	.byte	$00
	.byte	$00
	.byte	$00
	.byte	$00
	.byte	$00
	.byte	$00
	.byte	$00
	.byte	$00
	.byte	$00
	.byte	$00
	.byte	$00
	.byte	$00
	.byte	$00
	.byte	$00
	.byte	$00
	.byte	$00
	.byte	$00
	.byte	$00
	.byte	$00
	.byte	$00
	.byte	$00
	.byte	$00
	.byte	$00
	.byte	$00
	.byte	$00
	.byte	$00
	.byte	$00
	.byte	$00
	.byte	$00
	.byte	$00
	.byte	$00
	.byte	$00
	.byte	$00
	.byte	$00
	.byte	$00
	.byte	$00
	.byte	$00
	.byte	$00
	.byte	$00
	.byte	$00
	.byte	$00
	.byte	$00
	.byte	$00
	.byte	$00
	.byte	$00
	.byte	$00
	.byte	$00
	.byte	$00
	.byte	$00
	.byte	$00
	.byte	$00
	.byte	$00
	.byte	$00
	.byte	$00
	.byte	$00
	.byte	$00
	.byte	$30
	.byte	$19
	.byte	$00
	.byte	$00
	.byte	$00
	.byte	$00
	.byte	$00
	.byte	$00
	.byte	$00
	.byte	$00
	.byte	$00
	.byte	$00
	.byte	$00
	.byte	$00
	.byte	$00
	.byte	$00
	.byte	$2D
	.byte	$00
	.byte	$00
	.byte	$19
	.byte	$19
	.byte	$00
	.byte	$00
	.byte	$00
	.byte	$00
	.byte	$00
	.byte	$00
	.byte	$00
	.byte	$00
	.byte	$00
	.byte	$00
	.byte	$00
	.byte	$2D
	.byte	$00
	.byte	$00
	.byte	$00
	.byte	$00
	.byte	$00
	.byte	$19
	.byte	$19
	.byte	$00
	.byte	$00
	.byte	$00
	.byte	$00
	.byte	$00
	.byte	$00
	.byte	$00
	.byte	$00
	.byte	$2D
	.byte	$00
	.byte	$00
	.byte	$00
	.byte	$00
	.byte	$00
	.byte	$00
	.byte	$00
	.byte	$00
	.byte	$19
	.byte	$19
	.byte	$19
	.byte	$00
	.byte	$00
	.byte	$00
	.byte	$00
	.byte	$2D
	.byte	$00
	.byte	$00
	.byte	$00
	.byte	$00
	.byte	$00
	.byte	$00
	.byte	$00
	.byte	$00
	.byte	$00
	.byte	$00
	.byte	$00
	.byte	$00
	.byte	$00
	.byte	$00
	.byte	$00
	.byte	$2D
	.byte	$00
	.byte	$00
	.byte	$00
	.byte	$00
	.byte	$00
	.byte	$00
	.byte	$00
	.byte	$00
	.byte	$00
	.byte	$00
	.byte	$00
	.byte	$00
	.byte	$00
	.byte	$00
	.byte	$00
	.byte	$2D
	.byte	$00
	.byte	$00
	.byte	$00
	.byte	$00
	.byte	$00
	.byte	$00
	.byte	$00
	.byte	$00
	.byte	$00
	.byte	$00
	.byte	$00
	.byte	$00
	.byte	$00
	.byte	$00
	.byte	$00
	.byte	$2D
	.byte	$00
	.byte	$00
	.byte	$00
	.byte	$00
	.byte	$00
	.byte	$00
	.byte	$00
	.byte	$00
	.byte	$00
	.byte	$00
	.byte	$00
	.byte	$00
	.byte	$18
	.byte	$18
	.byte	$18
	.byte	$2D
	.byte	$18
	.byte	$18
	.byte	$18
	.byte	$18
	.byte	$18
	.byte	$18
	.byte	$18
	.byte	$18
	.byte	$18
	.byte	$18
	.byte	$18
	.byte	$18
	.byte	$01
	.byte	$05
	.byte	$05
	.byte	$05
	.byte	$01
	.byte	$05
	.byte	$05
	.byte	$05
	.byte	$01
	.byte	$05
	.byte	$05
	.byte	$05
	.byte	$01
	.byte	$05
	.byte	$05
	.byte	$05
_stereomadness__31:
	.byte	$00
	.byte	$00
	.byte	$00
	.byte	$00
	.byte	$00
	.byte	$00
	.byte	$00
	.byte	$00
	.byte	$00
	.byte	$00
	.byte	$00
	.byte	$00
	.byte	$00
	.byte	$00
	.byte	$00
	.byte	$00
	.byte	$00
	.byte	$00
	.byte	$00
	.byte	$00
	.byte	$00
	.byte	$00
	.byte	$00
	.byte	$00
	.byte	$00
	.byte	$00
	.byte	$00
	.byte	$00
	.byte	$00
	.byte	$00
	.byte	$00
	.byte	$00
	.byte	$00
	.byte	$00
	.byte	$00
	.byte	$00
	.byte	$00
	.byte	$00
	.byte	$00
	.byte	$00
	.byte	$00
	.byte	$00
	.byte	$00
	.byte	$00
	.byte	$00
	.byte	$00
	.byte	$00
	.byte	$00
	.byte	$00
	.byte	$00
	.byte	$00
	.byte	$00
	.byte	$00
	.byte	$00
	.byte	$00
	.byte	$00
	.byte	$00
	.byte	$00
	.byte	$00
	.byte	$00
	.byte	$00
	.byte	$00
	.byte	$00
	.byte	$00
	.byte	$00
	.byte	$00
	.byte	$00
	.byte	$00
	.byte	$00
	.byte	$00
	.byte	$00
	.byte	$00
	.byte	$00
	.byte	$00
	.byte	$00
	.byte	$00
	.byte	$00
	.byte	$00
	.byte	$00
	.byte	$00
	.byte	$00
	.byte	$00
	.byte	$00
	.byte	$00
	.byte	$00
	.byte	$00
	.byte	$00
	.byte	$00
	.byte	$00
	.byte	$00
	.byte	$00
	.byte	$00
	.byte	$00
	.byte	$00
	.byte	$00
	.byte	$00
	.byte	$00
	.byte	$00
	.byte	$00
	.byte	$00
	.byte	$00
	.byte	$00
	.byte	$00
	.byte	$00
	.byte	$00
	.byte	$00
	.byte	$00
	.byte	$00
	.byte	$00
	.byte	$00
	.byte	$00
	.byte	$00
	.byte	$00
	.byte	$00
	.byte	$00
	.byte	$00
	.byte	$00
	.byte	$00
	.byte	$00
	.byte	$00
	.byte	$00
	.byte	$00
	.byte	$00
	.byte	$00
	.byte	$00
	.byte	$00
	.byte	$00
	.byte	$00
	.byte	$00
	.byte	$00
	.byte	$00
	.byte	$00
	.byte	$00
	.byte	$00
	.byte	$00
	.byte	$00
	.byte	$00
	.byte	$00
	.byte	$00
	.byte	$00
	.byte	$00
	.byte	$00
	.byte	$00
	.byte	$00
	.byte	$00
	.byte	$00
	.byte	$19
	.byte	$19
	.byte	$00
	.byte	$10
	.byte	$10
	.byte	$10
	.byte	$00
	.byte	$00
	.byte	$00
	.byte	$00
	.byte	$00
	.byte	$00
	.byte	$00
	.byte	$00
	.byte	$00
	.byte	$00
	.byte	$00
	.byte	$00
	.byte	$00
	.byte	$24
	.byte	$2F
	.byte	$22
	.byte	$00
	.byte	$00
	.byte	$00
	.byte	$10
	.byte	$10
	.byte	$10
	.byte	$10
	.byte	$00
	.byte	$00
	.byte	$00
	.byte	$00
	.byte	$00
	.byte	$00
	.byte	$24
	.byte	$2F
	.byte	$22
	.byte	$00
	.byte	$00
	.byte	$00
	.byte	$24
	.byte	$2F
	.byte	$2F
	.byte	$22
	.byte	$00
	.byte	$00
	.byte	$00
	.byte	$00
	.byte	$00
	.byte	$00
	.byte	$24
	.byte	$2F
	.byte	$22
	.byte	$00
	.byte	$00
	.byte	$00
	.byte	$24
	.byte	$2F
	.byte	$2F
	.byte	$22
	.byte	$00
	.byte	$18
	.byte	$18
	.byte	$18
	.byte	$18
	.byte	$18
	.byte	$24
	.byte	$2F
	.byte	$22
	.byte	$18
	.byte	$18
	.byte	$18
	.byte	$24
	.byte	$2F
	.byte	$2F
	.byte	$22
	.byte	$18
	.byte	$01
	.byte	$05
	.byte	$05
	.byte	$05
	.byte	$01
	.byte	$05
	.byte	$05
	.byte	$05
	.byte	$01
	.byte	$05
	.byte	$05
	.byte	$05
	.byte	$01
	.byte	$05
	.byte	$05
	.byte	$05
_stereomadness__32:
	.byte	$00
	.byte	$00
	.byte	$00
	.byte	$00
	.byte	$00
	.byte	$00
	.byte	$00
	.byte	$00
	.byte	$00
	.byte	$00
	.byte	$00
	.byte	$00
	.byte	$00
	.byte	$00
	.byte	$00
	.byte	$00
	.byte	$00
	.byte	$00
	.byte	$00
	.byte	$00
	.byte	$00
	.byte	$00
	.byte	$00
	.byte	$00
	.byte	$00
	.byte	$00
	.byte	$00
	.byte	$00
	.byte	$00
	.byte	$00
	.byte	$00
	.byte	$00
	.byte	$00
	.byte	$00
	.byte	$00
	.byte	$00
	.byte	$00
	.byte	$00
	.byte	$00
	.byte	$00
	.byte	$00
	.byte	$00
	.byte	$00
	.byte	$00
	.byte	$00
	.byte	$00
	.byte	$00
	.byte	$00
	.byte	$00
	.byte	$00
	.byte	$00
	.byte	$00
	.byte	$00
	.byte	$00
	.byte	$00
	.byte	$00
	.byte	$00
	.byte	$00
	.byte	$00
	.byte	$00
	.byte	$00
	.byte	$00
	.byte	$00
	.byte	$00
	.byte	$00
	.byte	$00
	.byte	$00
	.byte	$00
	.byte	$00
	.byte	$00
	.byte	$00
	.byte	$00
	.byte	$00
	.byte	$00
	.byte	$00
	.byte	$00
	.byte	$00
	.byte	$00
	.byte	$00
	.byte	$00
	.byte	$00
	.byte	$00
	.byte	$00
	.byte	$00
	.byte	$00
	.byte	$00
	.byte	$00
	.byte	$00
	.byte	$00
	.byte	$00
	.byte	$00
	.byte	$00
	.byte	$00
	.byte	$00
	.byte	$00
	.byte	$00
	.byte	$00
	.byte	$00
	.byte	$00
	.byte	$00
	.byte	$00
	.byte	$00
	.byte	$00
	.byte	$00
	.byte	$00
	.byte	$00
	.byte	$00
	.byte	$00
	.byte	$00
	.byte	$00
	.byte	$00
	.byte	$00
	.byte	$00
	.byte	$00
	.byte	$00
	.byte	$00
	.byte	$00
	.byte	$00
	.byte	$00
	.byte	$00
	.byte	$00
	.byte	$00
	.byte	$00
	.byte	$00
	.byte	$00
	.byte	$00
	.byte	$00
	.byte	$00
	.byte	$00
	.byte	$00
	.byte	$00
	.byte	$00
	.byte	$00
	.byte	$00
	.byte	$00
	.byte	$00
	.byte	$00
	.byte	$00
	.byte	$00
	.byte	$00
	.byte	$00
	.byte	$00
	.byte	$00
	.byte	$00
	.byte	$00
	.byte	$00
	.byte	$00
	.byte	$00
	.byte	$00
	.byte	$00
	.byte	$00
	.byte	$00
	.byte	$00
	.byte	$00
	.byte	$00
	.byte	$00
	.byte	$00
	.byte	$00
	.byte	$00
	.byte	$00
	.byte	$00
	.byte	$00
	.byte	$00
	.byte	$00
	.byte	$00
	.byte	$00
	.byte	$00
	.byte	$00
	.byte	$00
	.byte	$00
	.byte	$00
	.byte	$00
	.byte	$00
	.byte	$00
	.byte	$00
	.byte	$00
	.byte	$19
	.byte	$00
	.byte	$00
	.byte	$00
	.byte	$00
	.byte	$00
	.byte	$00
	.byte	$00
	.byte	$00
	.byte	$00
	.byte	$00
	.byte	$00
	.byte	$00
	.byte	$00
	.byte	$00
	.byte	$00
	.byte	$00
	.byte	$00
	.byte	$19
	.byte	$00
	.byte	$00
	.byte	$00
	.byte	$00
	.byte	$00
	.byte	$00
	.byte	$00
	.byte	$00
	.byte	$00
	.byte	$00
	.byte	$00
	.byte	$00
	.byte	$00
	.byte	$18
	.byte	$18
	.byte	$18
	.byte	$18
	.byte	$19
	.byte	$00
	.byte	$00
	.byte	$00
	.byte	$00
	.byte	$00
	.byte	$00
	.byte	$11
	.byte	$11
	.byte	$10
	.byte	$18
	.byte	$18
	.byte	$01
	.byte	$05
	.byte	$05
	.byte	$05
	.byte	$01
	.byte	$05
	.byte	$05
	.byte	$05
	.byte	$01
	.byte	$05
	.byte	$05
	.byte	$05
	.byte	$01
	.byte	$05
	.byte	$05
	.byte	$05
_stereomadness__33:
	.byte	$00
	.byte	$00
	.byte	$00
	.byte	$00
	.byte	$00
	.byte	$00
	.byte	$00
	.byte	$00
	.byte	$00
	.byte	$00
	.byte	$00
	.byte	$00
	.byte	$00
	.byte	$00
	.byte	$00
	.byte	$00
	.byte	$00
	.byte	$00
	.byte	$00
	.byte	$00
	.byte	$00
	.byte	$00
	.byte	$00
	.byte	$00
	.byte	$00
	.byte	$00
	.byte	$00
	.byte	$00
	.byte	$00
	.byte	$00
	.byte	$00
	.byte	$00
	.byte	$00
	.byte	$00
	.byte	$00
	.byte	$00
	.byte	$00
	.byte	$00
	.byte	$00
	.byte	$00
	.byte	$00
	.byte	$00
	.byte	$00
	.byte	$00
	.byte	$00
	.byte	$00
	.byte	$00
	.byte	$00
	.byte	$00
	.byte	$00
	.byte	$00
	.byte	$00
	.byte	$00
	.byte	$00
	.byte	$00
	.byte	$00
	.byte	$00
	.byte	$00
	.byte	$00
	.byte	$00
	.byte	$00
	.byte	$00
	.byte	$00
	.byte	$00
	.byte	$00
	.byte	$00
	.byte	$00
	.byte	$00
	.byte	$00
	.byte	$00
	.byte	$00
	.byte	$00
	.byte	$00
	.byte	$00
	.byte	$00
	.byte	$00
	.byte	$00
	.byte	$00
	.byte	$00
	.byte	$00
	.byte	$00
	.byte	$00
	.byte	$00
	.byte	$00
	.byte	$00
	.byte	$00
	.byte	$00
	.byte	$00
	.byte	$00
	.byte	$00
	.byte	$00
	.byte	$00
	.byte	$00
	.byte	$00
	.byte	$00
	.byte	$00
	.byte	$00
	.byte	$00
	.byte	$00
	.byte	$00
	.byte	$00
	.byte	$00
	.byte	$00
	.byte	$00
	.byte	$00
	.byte	$00
	.byte	$00
	.byte	$00
	.byte	$00
	.byte	$00
	.byte	$00
	.byte	$00
	.byte	$00
	.byte	$00
	.byte	$00
	.byte	$00
	.byte	$00
	.byte	$00
	.byte	$00
	.byte	$00
	.byte	$00
	.byte	$00
	.byte	$00
	.byte	$00
	.byte	$00
	.byte	$00
	.byte	$00
	.byte	$00
	.byte	$00
	.byte	$00
	.byte	$00
	.byte	$00
	.byte	$00
	.byte	$00
	.byte	$00
	.byte	$00
	.byte	$00
	.byte	$00
	.byte	$00
	.byte	$00
	.byte	$00
	.byte	$00
	.byte	$00
	.byte	$00
	.byte	$00
	.byte	$00
	.byte	$00
	.byte	$00
	.byte	$00
	.byte	$00
	.byte	$00
	.byte	$00
	.byte	$00
	.byte	$00
	.byte	$00
	.byte	$00
	.byte	$00
	.byte	$00
	.byte	$00
	.byte	$00
	.byte	$00
	.byte	$00
	.byte	$00
	.byte	$00
	.byte	$00
	.byte	$00
	.byte	$00
	.byte	$00
	.byte	$00
	.byte	$00
	.byte	$00
	.byte	$00
	.byte	$00
	.byte	$00
	.byte	$00
	.byte	$00
	.byte	$00
	.byte	$00
	.byte	$00
	.byte	$00
	.byte	$00
	.byte	$00
	.byte	$00
	.byte	$00
	.byte	$00
	.byte	$00
	.byte	$00
	.byte	$00
	.byte	$19
	.byte	$19
	.byte	$00
	.byte	$00
	.byte	$19
	.byte	$19
	.byte	$00
	.byte	$00
	.byte	$00
	.byte	$00
	.byte	$00
	.byte	$00
	.byte	$19
	.byte	$19
	.byte	$00
	.byte	$00
	.byte	$00
	.byte	$00
	.byte	$00
	.byte	$00
	.byte	$18
	.byte	$18
	.byte	$18
	.byte	$10
	.byte	$10
	.byte	$10
	.byte	$18
	.byte	$18
	.byte	$18
	.byte	$18
	.byte	$18
	.byte	$18
	.byte	$18
	.byte	$18
	.byte	$18
	.byte	$10
	.byte	$01
	.byte	$05
	.byte	$05
	.byte	$05
	.byte	$01
	.byte	$05
	.byte	$05
	.byte	$05
	.byte	$01
	.byte	$05
	.byte	$05
	.byte	$05
	.byte	$01
	.byte	$05
	.byte	$05
	.byte	$05
_stereomadness__34:
	.byte	$00
	.byte	$00
	.byte	$00
	.byte	$00
	.byte	$00
	.byte	$00
	.byte	$00
	.byte	$00
	.byte	$00
	.byte	$00
	.byte	$00
	.byte	$00
	.byte	$00
	.byte	$00
	.byte	$00
	.byte	$00
	.byte	$00
	.byte	$00
	.byte	$00
	.byte	$00
	.byte	$00
	.byte	$00
	.byte	$00
	.byte	$00
	.byte	$00
	.byte	$00
	.byte	$00
	.byte	$00
	.byte	$00
	.byte	$00
	.byte	$00
	.byte	$00
	.byte	$00
	.byte	$00
	.byte	$00
	.byte	$00
	.byte	$00
	.byte	$00
	.byte	$00
	.byte	$00
	.byte	$00
	.byte	$00
	.byte	$00
	.byte	$00
	.byte	$00
	.byte	$00
	.byte	$00
	.byte	$00
	.byte	$00
	.byte	$00
	.byte	$00
	.byte	$00
	.byte	$00
	.byte	$00
	.byte	$00
	.byte	$00
	.byte	$00
	.byte	$00
	.byte	$00
	.byte	$00
	.byte	$00
	.byte	$00
	.byte	$00
	.byte	$00
	.byte	$00
	.byte	$00
	.byte	$00
	.byte	$00
	.byte	$00
	.byte	$00
	.byte	$00
	.byte	$00
	.byte	$00
	.byte	$00
	.byte	$00
	.byte	$00
	.byte	$00
	.byte	$00
	.byte	$00
	.byte	$00
	.byte	$00
	.byte	$00
	.byte	$00
	.byte	$00
	.byte	$00
	.byte	$00
	.byte	$00
	.byte	$00
	.byte	$00
	.byte	$00
	.byte	$00
	.byte	$00
	.byte	$00
	.byte	$00
	.byte	$00
	.byte	$00
	.byte	$00
	.byte	$00
	.byte	$00
	.byte	$00
	.byte	$00
	.byte	$00
	.byte	$00
	.byte	$00
	.byte	$00
	.byte	$00
	.byte	$00
	.byte	$00
	.byte	$00
	.byte	$00
	.byte	$00
	.byte	$00
	.byte	$00
	.byte	$00
	.byte	$00
	.byte	$00
	.byte	$00
	.byte	$00
	.byte	$00
	.byte	$00
	.byte	$00
	.byte	$00
	.byte	$00
	.byte	$00
	.byte	$00
	.byte	$00
	.byte	$00
	.byte	$00
	.byte	$00
	.byte	$00
	.byte	$00
	.byte	$00
	.byte	$00
	.byte	$00
	.byte	$00
	.byte	$00
	.byte	$00
	.byte	$00
	.byte	$10
	.byte	$10
	.byte	$00
	.byte	$00
	.byte	$00
	.byte	$00
	.byte	$00
	.byte	$00
	.byte	$00
	.byte	$00
	.byte	$00
	.byte	$00
	.byte	$00
	.byte	$00
	.byte	$00
	.byte	$00
	.byte	$1B
	.byte	$1B
	.byte	$00
	.byte	$00
	.byte	$00
	.byte	$00
	.byte	$00
	.byte	$00
	.byte	$00
	.byte	$00
	.byte	$00
	.byte	$00
	.byte	$00
	.byte	$00
	.byte	$00
	.byte	$00
	.byte	$00
	.byte	$00
	.byte	$00
	.byte	$00
	.byte	$00
	.byte	$00
	.byte	$00
	.byte	$00
	.byte	$00
	.byte	$00
	.byte	$00
	.byte	$00
	.byte	$00
	.byte	$00
	.byte	$00
	.byte	$00
	.byte	$00
	.byte	$00
	.byte	$00
	.byte	$00
	.byte	$00
	.byte	$00
	.byte	$00
	.byte	$00
	.byte	$00
	.byte	$00
	.byte	$00
	.byte	$00
	.byte	$00
	.byte	$00
	.byte	$00
	.byte	$00
	.byte	$00
	.byte	$00
	.byte	$00
	.byte	$00
	.byte	$00
	.byte	$00
	.byte	$10
	.byte	$10
	.byte	$11
	.byte	$11
	.byte	$00
	.byte	$00
	.byte	$00
	.byte	$00
	.byte	$00
	.byte	$00
	.byte	$11
	.byte	$11
	.byte	$00
	.byte	$00
	.byte	$00
	.byte	$00
	.byte	$01
	.byte	$05
	.byte	$05
	.byte	$05
	.byte	$01
	.byte	$05
	.byte	$05
	.byte	$05
	.byte	$01
	.byte	$05
	.byte	$05
	.byte	$05
	.byte	$01
	.byte	$05
	.byte	$05
	.byte	$05
_stereomadness__35:
	.byte	$00
	.byte	$00
	.byte	$00
	.byte	$00
	.byte	$00
	.byte	$00
	.byte	$00
	.byte	$00
	.byte	$00
	.byte	$00
	.byte	$00
	.byte	$00
	.byte	$00
	.byte	$00
	.byte	$00
	.byte	$00
	.byte	$00
	.byte	$00
	.byte	$00
	.byte	$00
	.byte	$00
	.byte	$00
	.byte	$00
	.byte	$00
	.byte	$00
	.byte	$00
	.byte	$00
	.byte	$00
	.byte	$00
	.byte	$00
	.byte	$00
	.byte	$00
	.byte	$00
	.byte	$00
	.byte	$00
	.byte	$00
	.byte	$00
	.byte	$00
	.byte	$00
	.byte	$00
	.byte	$00
	.byte	$00
	.byte	$00
	.byte	$00
	.byte	$00
	.byte	$00
	.byte	$00
	.byte	$00
	.byte	$00
	.byte	$00
	.byte	$00
	.byte	$00
	.byte	$00
	.byte	$00
	.byte	$00
	.byte	$00
	.byte	$00
	.byte	$00
	.byte	$00
	.byte	$00
	.byte	$00
	.byte	$00
	.byte	$00
	.byte	$00
	.byte	$00
	.byte	$00
	.byte	$00
	.byte	$00
	.byte	$00
	.byte	$00
	.byte	$00
	.byte	$00
	.byte	$00
	.byte	$00
	.byte	$00
	.byte	$00
	.byte	$00
	.byte	$00
	.byte	$00
	.byte	$00
	.byte	$00
	.byte	$00
	.byte	$00
	.byte	$00
	.byte	$00
	.byte	$00
	.byte	$00
	.byte	$00
	.byte	$00
	.byte	$00
	.byte	$00
	.byte	$00
	.byte	$00
	.byte	$00
	.byte	$00
	.byte	$00
	.byte	$00
	.byte	$00
	.byte	$00
	.byte	$00
	.byte	$00
	.byte	$00
	.byte	$00
	.byte	$00
	.byte	$00
	.byte	$00
	.byte	$00
	.byte	$00
	.byte	$00
	.byte	$00
	.byte	$00
	.byte	$00
	.byte	$00
	.byte	$00
	.byte	$00
	.byte	$00
	.byte	$00
	.byte	$00
	.byte	$00
	.byte	$00
	.byte	$00
	.byte	$00
	.byte	$00
	.byte	$00
	.byte	$00
	.byte	$00
	.byte	$00
	.byte	$00
	.byte	$00
	.byte	$00
	.byte	$10
	.byte	$10
	.byte	$10
	.byte	$00
	.byte	$00
	.byte	$00
	.byte	$00
	.byte	$00
	.byte	$10
	.byte	$00
	.byte	$00
	.byte	$00
	.byte	$00
	.byte	$00
	.byte	$00
	.byte	$00
	.byte	$1B
	.byte	$1B
	.byte	$1B
	.byte	$00
	.byte	$00
	.byte	$00
	.byte	$00
	.byte	$00
	.byte	$1B
	.byte	$00
	.byte	$00
	.byte	$00
	.byte	$00
	.byte	$00
	.byte	$00
	.byte	$00
	.byte	$00
	.byte	$00
	.byte	$00
	.byte	$00
	.byte	$00
	.byte	$00
	.byte	$00
	.byte	$00
	.byte	$00
	.byte	$00
	.byte	$00
	.byte	$00
	.byte	$00
	.byte	$00
	.byte	$00
	.byte	$00
	.byte	$00
	.byte	$00
	.byte	$00
	.byte	$00
	.byte	$00
	.byte	$00
	.byte	$00
	.byte	$00
	.byte	$00
	.byte	$00
	.byte	$00
	.byte	$00
	.byte	$00
	.byte	$00
	.byte	$00
	.byte	$00
	.byte	$00
	.byte	$00
	.byte	$00
	.byte	$00
	.byte	$00
	.byte	$00
	.byte	$00
	.byte	$00
	.byte	$00
	.byte	$00
	.byte	$00
	.byte	$00
	.byte	$00
	.byte	$00
	.byte	$00
	.byte	$00
	.byte	$11
	.byte	$11
	.byte	$11
	.byte	$00
	.byte	$00
	.byte	$00
	.byte	$00
	.byte	$00
	.byte	$11
	.byte	$00
	.byte	$00
	.byte	$00
	.byte	$00
	.byte	$00
	.byte	$01
	.byte	$05
	.byte	$05
	.byte	$05
	.byte	$01
	.byte	$05
	.byte	$05
	.byte	$05
	.byte	$01
	.byte	$05
	.byte	$05
	.byte	$05
	.byte	$01
	.byte	$05
	.byte	$05
	.byte	$05
_stereomadness__36:
	.byte	$00
	.byte	$00
	.byte	$00
	.byte	$00
	.byte	$00
	.byte	$00
	.byte	$00
	.byte	$00
	.byte	$00
	.byte	$00
	.byte	$00
	.byte	$00
	.byte	$00
	.byte	$00
	.byte	$00
	.byte	$00
	.byte	$00
	.byte	$00
	.byte	$00
	.byte	$00
	.byte	$00
	.byte	$00
	.byte	$00
	.byte	$00
	.byte	$00
	.byte	$00
	.byte	$00
	.byte	$00
	.byte	$00
	.byte	$00
	.byte	$00
	.byte	$00
	.byte	$00
	.byte	$00
	.byte	$00
	.byte	$00
	.byte	$00
	.byte	$00
	.byte	$00
	.byte	$00
	.byte	$00
	.byte	$00
	.byte	$00
	.byte	$00
	.byte	$00
	.byte	$00
	.byte	$00
	.byte	$00
	.byte	$00
	.byte	$00
	.byte	$00
	.byte	$00
	.byte	$00
	.byte	$00
	.byte	$00
	.byte	$00
	.byte	$00
	.byte	$00
	.byte	$00
	.byte	$00
	.byte	$00
	.byte	$00
	.byte	$00
	.byte	$00
	.byte	$00
	.byte	$00
	.byte	$00
	.byte	$00
	.byte	$00
	.byte	$00
	.byte	$00
	.byte	$00
	.byte	$00
	.byte	$00
	.byte	$00
	.byte	$00
	.byte	$00
	.byte	$00
	.byte	$00
	.byte	$00
	.byte	$00
	.byte	$00
	.byte	$00
	.byte	$00
	.byte	$00
	.byte	$00
	.byte	$00
	.byte	$00
	.byte	$00
	.byte	$00
	.byte	$00
	.byte	$00
	.byte	$00
	.byte	$00
	.byte	$00
	.byte	$00
	.byte	$00
	.byte	$00
	.byte	$00
	.byte	$00
	.byte	$00
	.byte	$00
	.byte	$00
	.byte	$00
	.byte	$00
	.byte	$00
	.byte	$00
	.byte	$00
	.byte	$00
	.byte	$00
	.byte	$00
	.byte	$00
	.byte	$00
	.byte	$00
	.byte	$00
	.byte	$00
	.byte	$00
	.byte	$00
	.byte	$00
	.byte	$00
	.byte	$00
	.byte	$00
	.byte	$00
	.byte	$00
	.byte	$00
	.byte	$00
	.byte	$00
	.byte	$00
	.byte	$00
	.byte	$10
	.byte	$00
	.byte	$00
	.byte	$00
	.byte	$00
	.byte	$00
	.byte	$00
	.byte	$00
	.byte	$00
	.byte	$00
	.byte	$00
	.byte	$00
	.byte	$00
	.byte	$00
	.byte	$00
	.byte	$00
	.byte	$1B
	.byte	$00
	.byte	$00
	.byte	$00
	.byte	$00
	.byte	$00
	.byte	$00
	.byte	$00
	.byte	$00
	.byte	$00
	.byte	$00
	.byte	$00
	.byte	$00
	.byte	$00
	.byte	$00
	.byte	$00
	.byte	$00
	.byte	$00
	.byte	$00
	.byte	$00
	.byte	$00
	.byte	$00
	.byte	$00
	.byte	$00
	.byte	$00
	.byte	$00
	.byte	$00
	.byte	$00
	.byte	$00
	.byte	$00
	.byte	$00
	.byte	$00
	.byte	$00
	.byte	$00
	.byte	$00
	.byte	$00
	.byte	$00
	.byte	$00
	.byte	$00
	.byte	$00
	.byte	$00
	.byte	$00
	.byte	$00
	.byte	$00
	.byte	$00
	.byte	$00
	.byte	$00
	.byte	$00
	.byte	$00
	.byte	$00
	.byte	$00
	.byte	$00
	.byte	$00
	.byte	$00
	.byte	$00
	.byte	$00
	.byte	$00
	.byte	$00
	.byte	$00
	.byte	$00
	.byte	$00
	.byte	$00
	.byte	$00
	.byte	$00
	.byte	$11
	.byte	$00
	.byte	$00
	.byte	$00
	.byte	$00
	.byte	$00
	.byte	$00
	.byte	$00
	.byte	$00
	.byte	$11
	.byte	$11
	.byte	$10
	.byte	$18
	.byte	$18
	.byte	$18
	.byte	$01
	.byte	$05
	.byte	$05
	.byte	$05
	.byte	$01
	.byte	$05
	.byte	$05
	.byte	$05
	.byte	$01
	.byte	$05
	.byte	$05
	.byte	$05
	.byte	$01
	.byte	$05
	.byte	$05
	.byte	$05
_stereomadness__37:
	.byte	$00
	.byte	$00
	.byte	$00
	.byte	$00
	.byte	$00
	.byte	$00
	.byte	$00
	.byte	$00
	.byte	$00
	.byte	$00
	.byte	$00
	.byte	$00
	.byte	$00
	.byte	$00
	.byte	$00
	.byte	$00
	.byte	$00
	.byte	$00
	.byte	$00
	.byte	$00
	.byte	$00
	.byte	$00
	.byte	$00
	.byte	$00
	.byte	$00
	.byte	$00
	.byte	$00
	.byte	$00
	.byte	$00
	.byte	$00
	.byte	$00
	.byte	$00
	.byte	$00
	.byte	$00
	.byte	$00
	.byte	$00
	.byte	$00
	.byte	$00
	.byte	$00
	.byte	$00
	.byte	$00
	.byte	$00
	.byte	$00
	.byte	$00
	.byte	$00
	.byte	$00
	.byte	$00
	.byte	$00
	.byte	$00
	.byte	$00
	.byte	$00
	.byte	$00
	.byte	$00
	.byte	$00
	.byte	$00
	.byte	$00
	.byte	$00
	.byte	$00
	.byte	$00
	.byte	$00
	.byte	$00
	.byte	$00
	.byte	$00
	.byte	$00
	.byte	$00
	.byte	$00
	.byte	$00
	.byte	$00
	.byte	$00
	.byte	$00
	.byte	$00
	.byte	$00
	.byte	$00
	.byte	$00
	.byte	$00
	.byte	$00
	.byte	$00
	.byte	$00
	.byte	$00
	.byte	$00
	.byte	$00
	.byte	$00
	.byte	$00
	.byte	$00
	.byte	$00
	.byte	$00
	.byte	$00
	.byte	$00
	.byte	$00
	.byte	$00
	.byte	$00
	.byte	$00
	.byte	$00
	.byte	$00
	.byte	$00
	.byte	$00
	.byte	$00
	.byte	$00
	.byte	$00
	.byte	$00
	.byte	$00
	.byte	$00
	.byte	$00
	.byte	$00
	.byte	$00
	.byte	$00
	.byte	$00
	.byte	$00
	.byte	$00
	.byte	$00
	.byte	$00
	.byte	$00
	.byte	$00
	.byte	$00
	.byte	$00
	.byte	$00
	.byte	$00
	.byte	$00
	.byte	$00
	.byte	$00
	.byte	$00
	.byte	$00
	.byte	$00
	.byte	$00
	.byte	$00
	.byte	$00
	.byte	$00
	.byte	$00
	.byte	$00
	.byte	$00
	.byte	$00
	.byte	$00
	.byte	$00
	.byte	$00
	.byte	$00
	.byte	$00
	.byte	$00
	.byte	$00
	.byte	$00
	.byte	$00
	.byte	$00
	.byte	$00
	.byte	$00
	.byte	$00
	.byte	$00
	.byte	$00
	.byte	$00
	.byte	$00
	.byte	$00
	.byte	$00
	.byte	$00
	.byte	$00
	.byte	$00
	.byte	$00
	.byte	$00
	.byte	$00
	.byte	$00
	.byte	$00
	.byte	$00
	.byte	$00
	.byte	$00
	.byte	$00
	.byte	$00
	.byte	$00
	.byte	$00
	.byte	$00
	.byte	$00
	.byte	$00
	.byte	$10
	.byte	$19
	.byte	$00
	.byte	$00
	.byte	$00
	.byte	$00
	.byte	$00
	.byte	$00
	.byte	$00
	.byte	$00
	.byte	$00
	.byte	$00
	.byte	$10
	.byte	$00
	.byte	$00
	.byte	$00
	.byte	$2D
	.byte	$00
	.byte	$00
	.byte	$19
	.byte	$00
	.byte	$00
	.byte	$00
	.byte	$00
	.byte	$10
	.byte	$00
	.byte	$00
	.byte	$00
	.byte	$2D
	.byte	$00
	.byte	$00
	.byte	$00
	.byte	$2D
	.byte	$00
	.byte	$00
	.byte	$00
	.byte	$00
	.byte	$19
	.byte	$00
	.byte	$00
	.byte	$2D
	.byte	$18
	.byte	$18
	.byte	$18
	.byte	$2D
	.byte	$18
	.byte	$18
	.byte	$18
	.byte	$2D
	.byte	$18
	.byte	$18
	.byte	$18
	.byte	$18
	.byte	$18
	.byte	$18
	.byte	$19
	.byte	$01
	.byte	$05
	.byte	$05
	.byte	$05
	.byte	$01
	.byte	$05
	.byte	$05
	.byte	$05
	.byte	$01
	.byte	$05
	.byte	$05
	.byte	$05
	.byte	$01
	.byte	$05
	.byte	$05
	.byte	$05
_stereomadness__38:
	.byte	$00
	.byte	$00
	.byte	$00
	.byte	$00
	.byte	$00
	.byte	$00
	.byte	$00
	.byte	$00
	.byte	$00
	.byte	$00
	.byte	$00
	.byte	$00
	.byte	$00
	.byte	$00
	.byte	$00
	.byte	$00
	.byte	$00
	.byte	$00
	.byte	$00
	.byte	$00
	.byte	$00
	.byte	$00
	.byte	$00
	.byte	$00
	.byte	$00
	.byte	$00
	.byte	$00
	.byte	$00
	.byte	$00
	.byte	$00
	.byte	$00
	.byte	$00
	.byte	$00
	.byte	$00
	.byte	$00
	.byte	$00
	.byte	$00
	.byte	$00
	.byte	$00
	.byte	$00
	.byte	$00
	.byte	$00
	.byte	$00
	.byte	$00
	.byte	$00
	.byte	$00
	.byte	$00
	.byte	$00
	.byte	$00
	.byte	$00
	.byte	$00
	.byte	$00
	.byte	$00
	.byte	$00
	.byte	$00
	.byte	$00
	.byte	$00
	.byte	$00
	.byte	$00
	.byte	$00
	.byte	$00
	.byte	$00
	.byte	$00
	.byte	$00
	.byte	$00
	.byte	$00
	.byte	$00
	.byte	$00
	.byte	$00
	.byte	$00
	.byte	$00
	.byte	$00
	.byte	$00
	.byte	$00
	.byte	$00
	.byte	$00
	.byte	$00
	.byte	$00
	.byte	$00
	.byte	$00
	.byte	$00
	.byte	$00
	.byte	$00
	.byte	$00
	.byte	$00
	.byte	$00
	.byte	$00
	.byte	$00
	.byte	$00
	.byte	$00
	.byte	$00
	.byte	$00
	.byte	$00
	.byte	$00
	.byte	$00
	.byte	$00
	.byte	$00
	.byte	$00
	.byte	$00
	.byte	$00
	.byte	$00
	.byte	$00
	.byte	$00
	.byte	$00
	.byte	$00
	.byte	$00
	.byte	$00
	.byte	$00
	.byte	$00
	.byte	$00
	.byte	$00
	.byte	$00
	.byte	$00
	.byte	$00
	.byte	$00
	.byte	$00
	.byte	$00
	.byte	$00
	.byte	$00
	.byte	$00
	.byte	$00
	.byte	$00
	.byte	$00
	.byte	$00
	.byte	$00
	.byte	$00
	.byte	$00
	.byte	$00
	.byte	$00
	.byte	$00
	.byte	$00
	.byte	$00
	.byte	$00
	.byte	$00
	.byte	$00
	.byte	$00
	.byte	$00
	.byte	$00
	.byte	$00
	.byte	$00
	.byte	$00
	.byte	$00
	.byte	$00
	.byte	$00
	.byte	$00
	.byte	$00
	.byte	$00
	.byte	$00
	.byte	$00
	.byte	$00
	.byte	$00
	.byte	$00
	.byte	$00
	.byte	$00
	.byte	$00
	.byte	$00
	.byte	$00
	.byte	$00
	.byte	$00
	.byte	$00
	.byte	$00
	.byte	$00
	.byte	$00
	.byte	$00
	.byte	$00
	.byte	$00
	.byte	$00
	.byte	$00
	.byte	$00
	.byte	$00
	.byte	$00
	.byte	$00
	.byte	$00
	.byte	$00
	.byte	$00
	.byte	$00
	.byte	$00
	.byte	$00
	.byte	$00
	.byte	$00
	.byte	$00
	.byte	$00
	.byte	$00
	.byte	$00
	.byte	$00
	.byte	$00
	.byte	$00
	.byte	$00
	.byte	$00
	.byte	$10
	.byte	$10
	.byte	$10
	.byte	$00
	.byte	$00
	.byte	$00
	.byte	$00
	.byte	$00
	.byte	$00
	.byte	$00
	.byte	$00
	.byte	$00
	.byte	$00
	.byte	$00
	.byte	$00
	.byte	$00
	.byte	$1B
	.byte	$1B
	.byte	$1B
	.byte	$00
	.byte	$00
	.byte	$00
	.byte	$00
	.byte	$00
	.byte	$11
	.byte	$11
	.byte	$00
	.byte	$00
	.byte	$00
	.byte	$00
	.byte	$00
	.byte	$00
	.byte	$00
	.byte	$00
	.byte	$00
	.byte	$01
	.byte	$05
	.byte	$05
	.byte	$05
	.byte	$01
	.byte	$05
	.byte	$05
	.byte	$05
	.byte	$01
	.byte	$05
	.byte	$05
	.byte	$05
	.byte	$01
	.byte	$05
	.byte	$05
	.byte	$05
_stereomadness__39:
	.byte	$00
	.byte	$00
	.byte	$00
	.byte	$00
	.byte	$00
	.byte	$00
	.byte	$00
	.byte	$00
	.byte	$00
	.byte	$00
	.byte	$00
	.byte	$00
	.byte	$00
	.byte	$00
	.byte	$00
	.byte	$00
	.byte	$00
	.byte	$00
	.byte	$00
	.byte	$00
	.byte	$00
	.byte	$00
	.byte	$00
	.byte	$00
	.byte	$00
	.byte	$00
	.byte	$00
	.byte	$00
	.byte	$00
	.byte	$00
	.byte	$00
	.byte	$00
	.byte	$00
	.byte	$00
	.byte	$00
	.byte	$00
	.byte	$00
	.byte	$00
	.byte	$00
	.byte	$00
	.byte	$00
	.byte	$00
	.byte	$00
	.byte	$00
	.byte	$00
	.byte	$00
	.byte	$00
	.byte	$00
	.byte	$00
	.byte	$00
	.byte	$00
	.byte	$00
	.byte	$00
	.byte	$00
	.byte	$00
	.byte	$00
	.byte	$00
	.byte	$00
	.byte	$00
	.byte	$00
	.byte	$00
	.byte	$00
	.byte	$00
	.byte	$00
	.byte	$00
	.byte	$00
	.byte	$00
	.byte	$00
	.byte	$00
	.byte	$00
	.byte	$00
	.byte	$00
	.byte	$00
	.byte	$00
	.byte	$00
	.byte	$00
	.byte	$00
	.byte	$00
	.byte	$00
	.byte	$00
	.byte	$00
	.byte	$00
	.byte	$00
	.byte	$00
	.byte	$00
	.byte	$00
	.byte	$00
	.byte	$00
	.byte	$00
	.byte	$00
	.byte	$00
	.byte	$00
	.byte	$00
	.byte	$00
	.byte	$00
	.byte	$00
	.byte	$00
	.byte	$00
	.byte	$00
	.byte	$00
	.byte	$00
	.byte	$00
	.byte	$00
	.byte	$00
	.byte	$00
	.byte	$00
	.byte	$00
	.byte	$00
	.byte	$00
	.byte	$00
	.byte	$00
	.byte	$00
	.byte	$00
	.byte	$00
	.byte	$00
	.byte	$00
	.byte	$00
	.byte	$00
	.byte	$00
	.byte	$00
	.byte	$00
	.byte	$00
	.byte	$00
	.byte	$00
	.byte	$00
	.byte	$00
	.byte	$00
	.byte	$00
	.byte	$00
	.byte	$00
	.byte	$00
	.byte	$00
	.byte	$00
	.byte	$00
	.byte	$00
	.byte	$00
	.byte	$00
	.byte	$00
	.byte	$00
	.byte	$00
	.byte	$00
	.byte	$00
	.byte	$00
	.byte	$00
	.byte	$00
	.byte	$00
	.byte	$00
	.byte	$00
	.byte	$00
	.byte	$00
	.byte	$00
	.byte	$00
	.byte	$00
	.byte	$00
	.byte	$00
	.byte	$00
	.byte	$00
	.byte	$00
	.byte	$00
	.byte	$00
	.byte	$00
	.byte	$00
	.byte	$00
	.byte	$00
	.byte	$00
	.byte	$00
	.byte	$00
	.byte	$00
	.byte	$00
	.byte	$00
	.byte	$00
	.byte	$00
	.byte	$00
	.byte	$00
	.byte	$00
	.byte	$00
	.byte	$10
	.byte	$00
	.byte	$00
	.byte	$00
	.byte	$00
	.byte	$00
	.byte	$00
	.byte	$00
	.byte	$00
	.byte	$00
	.byte	$00
	.byte	$00
	.byte	$00
	.byte	$00
	.byte	$00
	.byte	$00
	.byte	$1B
	.byte	$00
	.byte	$00
	.byte	$00
	.byte	$00
	.byte	$00
	.byte	$00
	.byte	$00
	.byte	$00
	.byte	$00
	.byte	$00
	.byte	$00
	.byte	$00
	.byte	$00
	.byte	$00
	.byte	$00
	.byte	$00
	.byte	$00
	.byte	$00
	.byte	$00
	.byte	$00
	.byte	$11
	.byte	$10
	.byte	$00
	.byte	$00
	.byte	$00
	.byte	$00
	.byte	$00
	.byte	$00
	.byte	$00
	.byte	$00
	.byte	$19
	.byte	$01
	.byte	$05
	.byte	$05
	.byte	$05
	.byte	$01
	.byte	$05
	.byte	$05
	.byte	$05
	.byte	$01
	.byte	$05
	.byte	$05
	.byte	$05
	.byte	$01
	.byte	$05
	.byte	$05
	.byte	$05
_stereomadness__40:
	.byte	$00
	.byte	$00
	.byte	$00
	.byte	$00
	.byte	$00
	.byte	$00
	.byte	$00
	.byte	$00
	.byte	$00
	.byte	$00
	.byte	$00
	.byte	$00
	.byte	$00
	.byte	$00
	.byte	$00
	.byte	$00
	.byte	$00
	.byte	$00
	.byte	$00
	.byte	$00
	.byte	$00
	.byte	$00
	.byte	$00
	.byte	$00
	.byte	$00
	.byte	$00
	.byte	$00
	.byte	$00
	.byte	$00
	.byte	$00
	.byte	$00
	.byte	$00
	.byte	$00
	.byte	$00
	.byte	$00
	.byte	$00
	.byte	$00
	.byte	$00
	.byte	$00
	.byte	$00
	.byte	$00
	.byte	$00
	.byte	$00
	.byte	$00
	.byte	$00
	.byte	$00
	.byte	$00
	.byte	$00
	.byte	$00
	.byte	$00
	.byte	$00
	.byte	$00
	.byte	$00
	.byte	$00
	.byte	$00
	.byte	$00
	.byte	$00
	.byte	$00
	.byte	$00
	.byte	$00
	.byte	$00
	.byte	$00
	.byte	$00
	.byte	$00
	.byte	$00
	.byte	$00
	.byte	$00
	.byte	$00
	.byte	$00
	.byte	$00
	.byte	$00
	.byte	$00
	.byte	$00
	.byte	$00
	.byte	$00
	.byte	$00
	.byte	$00
	.byte	$00
	.byte	$00
	.byte	$00
	.byte	$00
	.byte	$00
	.byte	$00
	.byte	$00
	.byte	$00
	.byte	$00
	.byte	$00
	.byte	$00
	.byte	$00
	.byte	$00
	.byte	$00
	.byte	$00
	.byte	$00
	.byte	$00
	.byte	$00
	.byte	$00
	.byte	$00
	.byte	$00
	.byte	$00
	.byte	$00
	.byte	$00
	.byte	$00
	.byte	$00
	.byte	$00
	.byte	$00
	.byte	$00
	.byte	$00
	.byte	$00
	.byte	$00
	.byte	$00
	.byte	$00
	.byte	$00
	.byte	$00
	.byte	$00
	.byte	$00
	.byte	$00
	.byte	$00
	.byte	$00
	.byte	$00
	.byte	$00
	.byte	$00
	.byte	$00
	.byte	$00
	.byte	$00
	.byte	$00
	.byte	$00
	.byte	$00
	.byte	$00
	.byte	$00
	.byte	$00
	.byte	$00
	.byte	$00
	.byte	$00
	.byte	$00
	.byte	$00
	.byte	$00
	.byte	$00
	.byte	$00
	.byte	$00
	.byte	$00
	.byte	$00
	.byte	$00
	.byte	$00
	.byte	$00
	.byte	$00
	.byte	$00
	.byte	$00
	.byte	$00
	.byte	$00
	.byte	$00
	.byte	$00
	.byte	$00
	.byte	$00
	.byte	$00
	.byte	$00
	.byte	$00
	.byte	$00
	.byte	$00
	.byte	$00
	.byte	$00
	.byte	$00
	.byte	$00
	.byte	$00
	.byte	$00
	.byte	$00
	.byte	$00
	.byte	$00
	.byte	$00
	.byte	$00
	.byte	$00
	.byte	$00
	.byte	$00
	.byte	$00
	.byte	$00
	.byte	$19
	.byte	$00
	.byte	$00
	.byte	$00
	.byte	$00
	.byte	$00
	.byte	$00
	.byte	$00
	.byte	$00
	.byte	$00
	.byte	$00
	.byte	$00
	.byte	$19
	.byte	$00
	.byte	$00
	.byte	$00
	.byte	$00
	.byte	$00
	.byte	$00
	.byte	$00
	.byte	$00
	.byte	$00
	.byte	$00
	.byte	$00
	.byte	$19
	.byte	$00
	.byte	$00
	.byte	$00
	.byte	$00
	.byte	$00
	.byte	$00
	.byte	$00
	.byte	$00
	.byte	$00
	.byte	$19
	.byte	$19
	.byte	$19
	.byte	$18
	.byte	$18
	.byte	$18
	.byte	$18
	.byte	$18
	.byte	$18
	.byte	$18
	.byte	$18
	.byte	$18
	.byte	$18
	.byte	$18
	.byte	$18
	.byte	$18
	.byte	$01
	.byte	$05
	.byte	$05
	.byte	$05
	.byte	$01
	.byte	$05
	.byte	$05
	.byte	$05
	.byte	$01
	.byte	$05
	.byte	$05
	.byte	$05
	.byte	$01
	.byte	$05
	.byte	$05
	.byte	$05
_stereomadness__41:
	.byte	$00
	.byte	$00
	.byte	$00
	.byte	$00
	.byte	$00
	.byte	$00
	.byte	$00
	.byte	$00
	.byte	$00
	.byte	$00
	.byte	$00
	.byte	$00
	.byte	$00
	.byte	$00
	.byte	$00
	.byte	$00
	.byte	$00
	.byte	$00
	.byte	$00
	.byte	$00
	.byte	$00
	.byte	$00
	.byte	$00
	.byte	$00
	.byte	$00
	.byte	$00
	.byte	$00
	.byte	$00
	.byte	$00
	.byte	$00
	.byte	$00
	.byte	$00
	.byte	$00
	.byte	$00
	.byte	$00
	.byte	$00
	.byte	$00
	.byte	$00
	.byte	$00
	.byte	$00
	.byte	$00
	.byte	$00
	.byte	$00
	.byte	$00
	.byte	$00
	.byte	$00
	.byte	$00
	.byte	$00
	.byte	$00
	.byte	$00
	.byte	$00
	.byte	$00
	.byte	$00
	.byte	$00
	.byte	$00
	.byte	$00
	.byte	$00
	.byte	$00
	.byte	$00
	.byte	$00
	.byte	$00
	.byte	$00
	.byte	$00
	.byte	$00
	.byte	$00
	.byte	$00
	.byte	$00
	.byte	$00
	.byte	$00
	.byte	$00
	.byte	$00
	.byte	$00
	.byte	$00
	.byte	$00
	.byte	$00
	.byte	$00
	.byte	$00
	.byte	$00
	.byte	$00
	.byte	$00
	.byte	$00
	.byte	$00
	.byte	$00
	.byte	$00
	.byte	$00
	.byte	$00
	.byte	$00
	.byte	$00
	.byte	$00
	.byte	$00
	.byte	$00
	.byte	$00
	.byte	$00
	.byte	$00
	.byte	$00
	.byte	$00
	.byte	$00
	.byte	$00
	.byte	$00
	.byte	$00
	.byte	$00
	.byte	$00
	.byte	$00
	.byte	$00
	.byte	$00
	.byte	$00
	.byte	$00
	.byte	$00
	.byte	$00
	.byte	$00
	.byte	$00
	.byte	$00
	.byte	$00
	.byte	$00
	.byte	$00
	.byte	$00
	.byte	$00
	.byte	$00
	.byte	$10
	.byte	$00
	.byte	$00
	.byte	$00
	.byte	$00
	.byte	$00
	.byte	$00
	.byte	$00
	.byte	$00
	.byte	$00
	.byte	$00
	.byte	$00
	.byte	$00
	.byte	$00
	.byte	$00
	.byte	$00
	.byte	$00
	.byte	$00
	.byte	$10
	.byte	$00
	.byte	$00
	.byte	$00
	.byte	$00
	.byte	$00
	.byte	$00
	.byte	$00
	.byte	$00
	.byte	$00
	.byte	$19
	.byte	$19
	.byte	$19
	.byte	$00
	.byte	$00
	.byte	$00
	.byte	$00
	.byte	$00
	.byte	$10
	.byte	$00
	.byte	$12
	.byte	$00
	.byte	$00
	.byte	$00
	.byte	$00
	.byte	$00
	.byte	$00
	.byte	$00
	.byte	$00
	.byte	$00
	.byte	$10
	.byte	$00
	.byte	$00
	.byte	$00
	.byte	$00
	.byte	$00
	.byte	$10
	.byte	$00
	.byte	$00
	.byte	$00
	.byte	$00
	.byte	$00
	.byte	$00
	.byte	$00
	.byte	$00
	.byte	$00
	.byte	$00
	.byte	$00
	.byte	$10
	.byte	$00
	.byte	$00
	.byte	$00
	.byte	$00
	.byte	$00
	.byte	$00
	.byte	$00
	.byte	$00
	.byte	$00
	.byte	$00
	.byte	$00
	.byte	$00
	.byte	$00
	.byte	$00
	.byte	$00
	.byte	$00
	.byte	$00
	.byte	$10
	.byte	$00
	.byte	$00
	.byte	$00
	.byte	$00
	.byte	$00
	.byte	$18
	.byte	$18
	.byte	$18
	.byte	$18
	.byte	$18
	.byte	$18
	.byte	$18
	.byte	$18
	.byte	$18
	.byte	$18
	.byte	$18
	.byte	$18
	.byte	$10
	.byte	$10
	.byte	$18
	.byte	$18
	.byte	$01
	.byte	$05
	.byte	$05
	.byte	$05
	.byte	$01
	.byte	$05
	.byte	$05
	.byte	$05
	.byte	$01
	.byte	$05
	.byte	$05
	.byte	$05
	.byte	$01
	.byte	$05
	.byte	$05
	.byte	$05
_stereomadness__42:
	.byte	$00
	.byte	$00
	.byte	$00
	.byte	$00
	.byte	$00
	.byte	$00
	.byte	$00
	.byte	$00
	.byte	$00
	.byte	$00
	.byte	$00
	.byte	$00
	.byte	$00
	.byte	$00
	.byte	$00
	.byte	$00
	.byte	$00
	.byte	$00
	.byte	$00
	.byte	$00
	.byte	$00
	.byte	$00
	.byte	$00
	.byte	$00
	.byte	$00
	.byte	$00
	.byte	$00
	.byte	$00
	.byte	$00
	.byte	$00
	.byte	$00
	.byte	$00
	.byte	$00
	.byte	$00
	.byte	$00
	.byte	$00
	.byte	$00
	.byte	$00
	.byte	$00
	.byte	$00
	.byte	$00
	.byte	$00
	.byte	$00
	.byte	$00
	.byte	$00
	.byte	$00
	.byte	$00
	.byte	$00
	.byte	$00
	.byte	$00
	.byte	$00
	.byte	$00
	.byte	$00
	.byte	$00
	.byte	$00
	.byte	$00
	.byte	$00
	.byte	$00
	.byte	$00
	.byte	$00
	.byte	$00
	.byte	$00
	.byte	$00
	.byte	$00
	.byte	$00
	.byte	$00
	.byte	$00
	.byte	$00
	.byte	$00
	.byte	$00
	.byte	$00
	.byte	$00
	.byte	$00
	.byte	$00
	.byte	$00
	.byte	$00
	.byte	$00
	.byte	$00
	.byte	$00
	.byte	$00
	.byte	$00
	.byte	$00
	.byte	$00
	.byte	$00
	.byte	$00
	.byte	$00
	.byte	$00
	.byte	$00
	.byte	$00
	.byte	$00
	.byte	$00
	.byte	$00
	.byte	$00
	.byte	$00
	.byte	$00
	.byte	$00
	.byte	$00
	.byte	$00
	.byte	$00
	.byte	$00
	.byte	$00
	.byte	$00
	.byte	$00
	.byte	$00
	.byte	$00
	.byte	$00
	.byte	$00
	.byte	$00
	.byte	$00
	.byte	$00
	.byte	$00
	.byte	$00
	.byte	$00
	.byte	$00
	.byte	$00
	.byte	$00
	.byte	$00
	.byte	$00
	.byte	$00
	.byte	$00
	.byte	$00
	.byte	$00
	.byte	$00
	.byte	$00
	.byte	$00
	.byte	$00
	.byte	$00
	.byte	$00
	.byte	$00
	.byte	$00
	.byte	$00
	.byte	$00
	.byte	$00
	.byte	$00
	.byte	$00
	.byte	$00
	.byte	$00
	.byte	$00
	.byte	$00
	.byte	$00
	.byte	$00
	.byte	$00
	.byte	$00
	.byte	$00
	.byte	$00
	.byte	$00
	.byte	$00
	.byte	$00
	.byte	$00
	.byte	$00
	.byte	$00
	.byte	$00
	.byte	$00
	.byte	$00
	.byte	$00
	.byte	$00
	.byte	$00
	.byte	$00
	.byte	$00
	.byte	$00
	.byte	$00
	.byte	$00
	.byte	$00
	.byte	$00
	.byte	$00
	.byte	$00
	.byte	$00
	.byte	$00
	.byte	$00
	.byte	$00
	.byte	$00
	.byte	$00
	.byte	$00
	.byte	$00
	.byte	$00
	.byte	$00
	.byte	$00
	.byte	$00
	.byte	$00
	.byte	$11
	.byte	$00
	.byte	$00
	.byte	$00
	.byte	$00
	.byte	$00
	.byte	$19
	.byte	$19
	.byte	$19
	.byte	$00
	.byte	$00
	.byte	$00
	.byte	$00
	.byte	$19
	.byte	$00
	.byte	$00
	.byte	$19
	.byte	$00
	.byte	$19
	.byte	$00
	.byte	$00
	.byte	$00
	.byte	$00
	.byte	$00
	.byte	$00
	.byte	$00
	.byte	$19
	.byte	$00
	.byte	$00
	.byte	$18
	.byte	$18
	.byte	$18
	.byte	$18
	.byte	$18
	.byte	$18
	.byte	$18
	.byte	$18
	.byte	$18
	.byte	$18
	.byte	$18
	.byte	$18
	.byte	$18
	.byte	$18
	.byte	$18
	.byte	$19
	.byte	$01
	.byte	$05
	.byte	$05
	.byte	$05
	.byte	$01
	.byte	$05
	.byte	$05
	.byte	$05
	.byte	$01
	.byte	$05
	.byte	$05
	.byte	$05
	.byte	$01
	.byte	$05
	.byte	$05
	.byte	$05
_stereomadness__43:
	.byte	$00
	.byte	$00
	.byte	$00
	.byte	$00
	.byte	$00
	.byte	$00
	.byte	$00
	.byte	$00
	.byte	$00
	.byte	$00
	.byte	$00
	.byte	$00
	.byte	$00
	.byte	$00
	.byte	$00
	.byte	$00
	.byte	$00
	.byte	$00
	.byte	$00
	.byte	$00
	.byte	$00
	.byte	$00
	.byte	$00
	.byte	$00
	.byte	$00
	.byte	$00
	.byte	$00
	.byte	$00
	.byte	$00
	.byte	$00
	.byte	$00
	.byte	$00
	.byte	$00
	.byte	$00
	.byte	$00
	.byte	$00
	.byte	$00
	.byte	$00
	.byte	$00
	.byte	$00
	.byte	$00
	.byte	$00
	.byte	$00
	.byte	$00
	.byte	$00
	.byte	$00
	.byte	$00
	.byte	$00
	.byte	$00
	.byte	$00
	.byte	$00
	.byte	$00
	.byte	$00
	.byte	$00
	.byte	$00
	.byte	$00
	.byte	$00
	.byte	$00
	.byte	$00
	.byte	$00
	.byte	$00
	.byte	$00
	.byte	$00
	.byte	$00
	.byte	$00
	.byte	$00
	.byte	$00
	.byte	$00
	.byte	$00
	.byte	$00
	.byte	$00
	.byte	$00
	.byte	$00
	.byte	$00
	.byte	$00
	.byte	$00
	.byte	$00
	.byte	$00
	.byte	$00
	.byte	$00
	.byte	$00
	.byte	$00
	.byte	$00
	.byte	$00
	.byte	$00
	.byte	$00
	.byte	$00
	.byte	$00
	.byte	$00
	.byte	$00
	.byte	$00
	.byte	$00
	.byte	$00
	.byte	$00
	.byte	$00
	.byte	$00
	.byte	$00
	.byte	$00
	.byte	$00
	.byte	$00
	.byte	$00
	.byte	$00
	.byte	$00
	.byte	$00
	.byte	$00
	.byte	$00
	.byte	$00
	.byte	$00
	.byte	$00
	.byte	$00
	.byte	$00
	.byte	$00
	.byte	$00
	.byte	$00
	.byte	$00
	.byte	$00
	.byte	$00
	.byte	$00
	.byte	$00
	.byte	$00
	.byte	$00
	.byte	$00
	.byte	$00
	.byte	$00
	.byte	$00
	.byte	$00
	.byte	$00
	.byte	$00
	.byte	$00
	.byte	$00
	.byte	$00
	.byte	$00
	.byte	$00
	.byte	$00
	.byte	$00
	.byte	$00
	.byte	$00
	.byte	$00
	.byte	$10
	.byte	$10
	.byte	$10
	.byte	$00
	.byte	$00
	.byte	$00
	.byte	$00
	.byte	$00
	.byte	$00
	.byte	$00
	.byte	$00
	.byte	$00
	.byte	$00
	.byte	$00
	.byte	$00
	.byte	$00
	.byte	$1B
	.byte	$1B
	.byte	$1B
	.byte	$00
	.byte	$00
	.byte	$00
	.byte	$00
	.byte	$00
	.byte	$00
	.byte	$00
	.byte	$00
	.byte	$00
	.byte	$00
	.byte	$00
	.byte	$00
	.byte	$00
	.byte	$00
	.byte	$00
	.byte	$00
	.byte	$00
	.byte	$00
	.byte	$00
	.byte	$00
	.byte	$00
	.byte	$00
	.byte	$00
	.byte	$00
	.byte	$00
	.byte	$00
	.byte	$00
	.byte	$00
	.byte	$00
	.byte	$00
	.byte	$00
	.byte	$00
	.byte	$00
	.byte	$00
	.byte	$00
	.byte	$00
	.byte	$00
	.byte	$00
	.byte	$00
	.byte	$00
	.byte	$00
	.byte	$00
	.byte	$00
	.byte	$00
	.byte	$00
	.byte	$00
	.byte	$00
	.byte	$00
	.byte	$00
	.byte	$00
	.byte	$00
	.byte	$19
	.byte	$19
	.byte	$11
	.byte	$11
	.byte	$00
	.byte	$00
	.byte	$00
	.byte	$00
	.byte	$00
	.byte	$00
	.byte	$11
	.byte	$11
	.byte	$11
	.byte	$00
	.byte	$00
	.byte	$00
	.byte	$01
	.byte	$05
	.byte	$05
	.byte	$05
	.byte	$01
	.byte	$05
	.byte	$05
	.byte	$05
	.byte	$01
	.byte	$05
	.byte	$05
	.byte	$05
	.byte	$01
	.byte	$05
	.byte	$05
	.byte	$05
_stereomadness__44:
	.byte	$00
	.byte	$00
	.byte	$00
	.byte	$00
	.byte	$00
	.byte	$00
	.byte	$00
	.byte	$00
	.byte	$00
	.byte	$00
	.byte	$00
	.byte	$00
	.byte	$00
	.byte	$00
	.byte	$00
	.byte	$00
	.byte	$00
	.byte	$00
	.byte	$00
	.byte	$00
	.byte	$00
	.byte	$00
	.byte	$00
	.byte	$00
	.byte	$00
	.byte	$00
	.byte	$00
	.byte	$00
	.byte	$00
	.byte	$00
	.byte	$00
	.byte	$00
	.byte	$00
	.byte	$00
	.byte	$00
	.byte	$00
	.byte	$00
	.byte	$00
	.byte	$00
	.byte	$00
	.byte	$00
	.byte	$00
	.byte	$00
	.byte	$00
	.byte	$00
	.byte	$00
	.byte	$00
	.byte	$00
	.byte	$00
	.byte	$00
	.byte	$00
	.byte	$00
	.byte	$00
	.byte	$00
	.byte	$00
	.byte	$00
	.byte	$00
	.byte	$00
	.byte	$00
	.byte	$00
	.byte	$00
	.byte	$00
	.byte	$00
	.byte	$00
	.byte	$00
	.byte	$00
	.byte	$00
	.byte	$00
	.byte	$00
	.byte	$00
	.byte	$00
	.byte	$00
	.byte	$00
	.byte	$00
	.byte	$00
	.byte	$00
	.byte	$00
	.byte	$00
	.byte	$00
	.byte	$00
	.byte	$00
	.byte	$00
	.byte	$00
	.byte	$00
	.byte	$00
	.byte	$00
	.byte	$00
	.byte	$00
	.byte	$00
	.byte	$00
	.byte	$00
	.byte	$00
	.byte	$00
	.byte	$00
	.byte	$00
	.byte	$00
	.byte	$00
	.byte	$00
	.byte	$00
	.byte	$00
	.byte	$00
	.byte	$00
	.byte	$00
	.byte	$00
	.byte	$00
	.byte	$00
	.byte	$00
	.byte	$00
	.byte	$00
	.byte	$00
	.byte	$00
	.byte	$00
	.byte	$00
	.byte	$00
	.byte	$00
	.byte	$00
	.byte	$00
	.byte	$00
	.byte	$00
	.byte	$00
	.byte	$00
	.byte	$00
	.byte	$00
	.byte	$00
	.byte	$00
	.byte	$00
	.byte	$00
	.byte	$00
	.byte	$00
	.byte	$00
	.byte	$00
	.byte	$00
	.byte	$00
	.byte	$00
	.byte	$00
	.byte	$00
	.byte	$00
	.byte	$00
	.byte	$00
	.byte	$00
	.byte	$00
	.byte	$00
	.byte	$00
	.byte	$00
	.byte	$00
	.byte	$00
	.byte	$00
	.byte	$00
	.byte	$00
	.byte	$00
	.byte	$00
	.byte	$00
	.byte	$00
	.byte	$00
	.byte	$00
	.byte	$00
	.byte	$00
	.byte	$00
	.byte	$00
	.byte	$00
	.byte	$00
	.byte	$00
	.byte	$00
	.byte	$00
	.byte	$00
	.byte	$00
	.byte	$00
	.byte	$00
	.byte	$00
	.byte	$00
	.byte	$00
	.byte	$00
	.byte	$00
	.byte	$00
	.byte	$00
	.byte	$00
	.byte	$00
	.byte	$00
	.byte	$00
	.byte	$00
	.byte	$00
	.byte	$00
	.byte	$00
	.byte	$00
	.byte	$00
	.byte	$00
	.byte	$00
	.byte	$00
	.byte	$00
	.byte	$00
	.byte	$00
	.byte	$00
	.byte	$00
	.byte	$00
	.byte	$00
	.byte	$00
	.byte	$00
	.byte	$00
	.byte	$00
	.byte	$00
	.byte	$00
	.byte	$00
	.byte	$00
	.byte	$00
	.byte	$00
	.byte	$00
	.byte	$00
	.byte	$00
	.byte	$00
	.byte	$00
	.byte	$00
	.byte	$00
	.byte	$00
	.byte	$00
	.byte	$10
	.byte	$19
	.byte	$19
	.byte	$18
	.byte	$18
	.byte	$18
	.byte	$19
	.byte	$19
	.byte	$18
	.byte	$18
	.byte	$01
	.byte	$05
	.byte	$05
	.byte	$05
	.byte	$01
	.byte	$05
	.byte	$05
	.byte	$05
	.byte	$01
	.byte	$05
	.byte	$05
	.byte	$05
	.byte	$01
	.byte	$05
	.byte	$05
	.byte	$05
_stereomadness__45:
	.byte	$00
	.byte	$00
	.byte	$00
	.byte	$00
	.byte	$00
	.byte	$00
	.byte	$00
	.byte	$00
	.byte	$00
	.byte	$00
	.byte	$00
	.byte	$00
	.byte	$00
	.byte	$00
	.byte	$00
	.byte	$00
	.byte	$00
	.byte	$00
	.byte	$00
	.byte	$00
	.byte	$00
	.byte	$00
	.byte	$00
	.byte	$00
	.byte	$00
	.byte	$00
	.byte	$00
	.byte	$00
	.byte	$00
	.byte	$00
	.byte	$00
	.byte	$00
	.byte	$00
	.byte	$00
	.byte	$00
	.byte	$00
	.byte	$00
	.byte	$00
	.byte	$00
	.byte	$00
	.byte	$00
	.byte	$00
	.byte	$00
	.byte	$00
	.byte	$00
	.byte	$00
	.byte	$00
	.byte	$00
	.byte	$00
	.byte	$00
	.byte	$00
	.byte	$00
	.byte	$00
	.byte	$00
	.byte	$00
	.byte	$00
	.byte	$00
	.byte	$00
	.byte	$00
	.byte	$00
	.byte	$00
	.byte	$00
	.byte	$00
	.byte	$00
	.byte	$00
	.byte	$00
	.byte	$00
	.byte	$00
	.byte	$00
	.byte	$00
	.byte	$00
	.byte	$00
	.byte	$00
	.byte	$00
	.byte	$00
	.byte	$00
	.byte	$00
	.byte	$00
	.byte	$00
	.byte	$00
	.byte	$00
	.byte	$00
	.byte	$00
	.byte	$00
	.byte	$00
	.byte	$00
	.byte	$00
	.byte	$00
	.byte	$00
	.byte	$00
	.byte	$00
	.byte	$00
	.byte	$00
	.byte	$00
	.byte	$00
	.byte	$00
	.byte	$00
	.byte	$00
	.byte	$00
	.byte	$00
	.byte	$00
	.byte	$00
	.byte	$00
	.byte	$00
	.byte	$00
	.byte	$00
	.byte	$00
	.byte	$00
	.byte	$00
	.byte	$00
	.byte	$00
	.byte	$00
	.byte	$00
	.byte	$00
	.byte	$00
	.byte	$00
	.byte	$00
	.byte	$00
	.byte	$00
	.byte	$00
	.byte	$00
	.byte	$00
	.byte	$00
	.byte	$00
	.byte	$00
	.byte	$00
	.byte	$00
	.byte	$00
	.byte	$00
	.byte	$00
	.byte	$00
	.byte	$00
	.byte	$00
	.byte	$00
	.byte	$00
	.byte	$00
	.byte	$00
	.byte	$00
	.byte	$00
	.byte	$00
	.byte	$00
	.byte	$00
	.byte	$00
	.byte	$00
	.byte	$00
	.byte	$00
	.byte	$00
	.byte	$00
	.byte	$00
	.byte	$00
	.byte	$00
	.byte	$00
	.byte	$00
	.byte	$00
	.byte	$00
	.byte	$00
	.byte	$00
	.byte	$00
	.byte	$00
	.byte	$00
	.byte	$00
	.byte	$00
	.byte	$00
	.byte	$00
	.byte	$00
	.byte	$00
	.byte	$00
	.byte	$00
	.byte	$00
	.byte	$00
	.byte	$00
	.byte	$00
	.byte	$00
	.byte	$00
	.byte	$00
	.byte	$00
	.byte	$00
	.byte	$00
	.byte	$00
	.byte	$00
	.byte	$00
	.byte	$00
	.byte	$00
	.byte	$00
	.byte	$00
	.byte	$00
	.byte	$19
	.byte	$00
	.byte	$00
	.byte	$00
	.byte	$00
	.byte	$00
	.byte	$00
	.byte	$00
	.byte	$00
	.byte	$00
	.byte	$10
	.byte	$19
	.byte	$19
	.byte	$00
	.byte	$00
	.byte	$00
	.byte	$00
	.byte	$00
	.byte	$19
	.byte	$00
	.byte	$00
	.byte	$00
	.byte	$18
	.byte	$19
	.byte	$19
	.byte	$10
	.byte	$10
	.byte	$18
	.byte	$18
	.byte	$18
	.byte	$18
	.byte	$18
	.byte	$18
	.byte	$18
	.byte	$18
	.byte	$18
	.byte	$19
	.byte	$19
	.byte	$01
	.byte	$05
	.byte	$05
	.byte	$05
	.byte	$01
	.byte	$05
	.byte	$05
	.byte	$05
	.byte	$01
	.byte	$05
	.byte	$05
	.byte	$05
	.byte	$01
	.byte	$05
	.byte	$05
	.byte	$05
_stereomadness__46:
	.byte	$00
	.byte	$00
	.byte	$00
	.byte	$00
	.byte	$00
	.byte	$00
	.byte	$00
	.byte	$00
	.byte	$00
	.byte	$00
	.byte	$00
	.byte	$00
	.byte	$00
	.byte	$00
	.byte	$00
	.byte	$00
	.byte	$00
	.byte	$00
	.byte	$00
	.byte	$00
	.byte	$00
	.byte	$00
	.byte	$00
	.byte	$00
	.byte	$00
	.byte	$00
	.byte	$00
	.byte	$00
	.byte	$00
	.byte	$00
	.byte	$00
	.byte	$00
	.byte	$00
	.byte	$00
	.byte	$00
	.byte	$00
	.byte	$00
	.byte	$00
	.byte	$00
	.byte	$00
	.byte	$00
	.byte	$00
	.byte	$00
	.byte	$00
	.byte	$00
	.byte	$00
	.byte	$00
	.byte	$00
	.byte	$00
	.byte	$00
	.byte	$00
	.byte	$00
	.byte	$00
	.byte	$00
	.byte	$00
	.byte	$00
	.byte	$00
	.byte	$00
	.byte	$00
	.byte	$00
	.byte	$00
	.byte	$00
	.byte	$00
	.byte	$00
	.byte	$00
	.byte	$00
	.byte	$00
	.byte	$00
	.byte	$00
	.byte	$00
	.byte	$00
	.byte	$00
	.byte	$00
	.byte	$00
	.byte	$00
	.byte	$00
	.byte	$00
	.byte	$00
	.byte	$00
	.byte	$00
	.byte	$00
	.byte	$00
	.byte	$00
	.byte	$00
	.byte	$00
	.byte	$00
	.byte	$00
	.byte	$00
	.byte	$00
	.byte	$00
	.byte	$00
	.byte	$00
	.byte	$00
	.byte	$00
	.byte	$00
	.byte	$00
	.byte	$00
	.byte	$00
	.byte	$00
	.byte	$00
	.byte	$00
	.byte	$00
	.byte	$00
	.byte	$00
	.byte	$00
	.byte	$00
	.byte	$00
	.byte	$00
	.byte	$00
	.byte	$00
	.byte	$00
	.byte	$00
	.byte	$00
	.byte	$00
	.byte	$00
	.byte	$00
	.byte	$00
	.byte	$00
	.byte	$00
	.byte	$00
	.byte	$00
	.byte	$00
	.byte	$00
	.byte	$00
	.byte	$00
	.byte	$00
	.byte	$00
	.byte	$00
	.byte	$00
	.byte	$00
	.byte	$00
	.byte	$00
	.byte	$00
	.byte	$00
	.byte	$00
	.byte	$00
	.byte	$00
	.byte	$00
	.byte	$00
	.byte	$00
	.byte	$00
	.byte	$00
	.byte	$00
	.byte	$00
	.byte	$00
	.byte	$00
	.byte	$00
	.byte	$00
	.byte	$00
	.byte	$00
	.byte	$00
	.byte	$00
	.byte	$00
	.byte	$00
	.byte	$00
	.byte	$00
	.byte	$00
	.byte	$00
	.byte	$00
	.byte	$00
	.byte	$00
	.byte	$00
	.byte	$00
	.byte	$00
	.byte	$00
	.byte	$00
	.byte	$00
	.byte	$00
	.byte	$00
	.byte	$00
	.byte	$00
	.byte	$00
	.byte	$00
	.byte	$00
	.byte	$00
	.byte	$00
	.byte	$00
	.byte	$00
	.byte	$00
	.byte	$00
	.byte	$00
	.byte	$00
	.byte	$11
	.byte	$00
	.byte	$00
	.byte	$00
	.byte	$00
	.byte	$00
	.byte	$00
	.byte	$00
	.byte	$11
	.byte	$00
	.byte	$00
	.byte	$00
	.byte	$00
	.byte	$00
	.byte	$19
	.byte	$00
	.byte	$19
	.byte	$00
	.byte	$19
	.byte	$19
	.byte	$19
	.byte	$19
	.byte	$00
	.byte	$00
	.byte	$19
	.byte	$00
	.byte	$19
	.byte	$18
	.byte	$18
	.byte	$18
	.byte	$18
	.byte	$18
	.byte	$18
	.byte	$18
	.byte	$18
	.byte	$18
	.byte	$18
	.byte	$18
	.byte	$18
	.byte	$18
	.byte	$18
	.byte	$18
	.byte	$01
	.byte	$05
	.byte	$05
	.byte	$05
	.byte	$01
	.byte	$05
	.byte	$05
	.byte	$05
	.byte	$01
	.byte	$05
	.byte	$05
	.byte	$05
	.byte	$01
	.byte	$05
	.byte	$05
	.byte	$05
_stereomadness__47:
	.byte	$00
	.byte	$00
	.byte	$00
	.byte	$00
	.byte	$00
	.byte	$00
	.byte	$00
	.byte	$00
	.byte	$00
	.byte	$00
	.byte	$00
	.byte	$00
	.byte	$03
	.byte	$07
	.byte	$07
	.byte	$07
	.byte	$00
	.byte	$00
	.byte	$00
	.byte	$00
	.byte	$00
	.byte	$00
	.byte	$00
	.byte	$00
	.byte	$00
	.byte	$00
	.byte	$00
	.byte	$00
	.byte	$03
	.byte	$07
	.byte	$07
	.byte	$07
	.byte	$00
	.byte	$00
	.byte	$00
	.byte	$00
	.byte	$00
	.byte	$00
	.byte	$00
	.byte	$00
	.byte	$00
	.byte	$00
	.byte	$00
	.byte	$00
	.byte	$02
	.byte	$06
	.byte	$06
	.byte	$06
	.byte	$00
	.byte	$00
	.byte	$00
	.byte	$00
	.byte	$00
	.byte	$00
	.byte	$00
	.byte	$00
	.byte	$00
	.byte	$00
	.byte	$00
	.byte	$00
	.byte	$02
	.byte	$06
	.byte	$06
	.byte	$06
	.byte	$00
	.byte	$00
	.byte	$00
	.byte	$00
	.byte	$00
	.byte	$00
	.byte	$00
	.byte	$00
	.byte	$00
	.byte	$00
	.byte	$00
	.byte	$00
	.byte	$10
	.byte	$00
	.byte	$00
	.byte	$00
	.byte	$00
	.byte	$00
	.byte	$00
	.byte	$00
	.byte	$00
	.byte	$00
	.byte	$00
	.byte	$00
	.byte	$00
	.byte	$00
	.byte	$00
	.byte	$00
	.byte	$10
	.byte	$00
	.byte	$00
	.byte	$00
	.byte	$00
	.byte	$00
	.byte	$00
	.byte	$00
	.byte	$00
	.byte	$00
	.byte	$00
	.byte	$00
	.byte	$00
	.byte	$00
	.byte	$00
	.byte	$00
	.byte	$10
	.byte	$00
	.byte	$00
	.byte	$00
	.byte	$00
	.byte	$00
	.byte	$00
	.byte	$00
	.byte	$00
	.byte	$00
	.byte	$00
	.byte	$00
	.byte	$00
	.byte	$00
	.byte	$00
	.byte	$00
	.byte	$00
	.byte	$00
	.byte	$00
	.byte	$00
	.byte	$00
	.byte	$00
	.byte	$00
	.byte	$00
	.byte	$00
	.byte	$00
	.byte	$00
	.byte	$00
	.byte	$00
	.byte	$00
	.byte	$00
	.byte	$00
	.byte	$00
	.byte	$00
	.byte	$00
	.byte	$00
	.byte	$00
	.byte	$00
	.byte	$00
	.byte	$00
	.byte	$00
	.byte	$00
	.byte	$00
	.byte	$00
	.byte	$00
	.byte	$00
	.byte	$00
	.byte	$00
	.byte	$00
	.byte	$00
	.byte	$00
	.byte	$00
	.byte	$00
	.byte	$00
	.byte	$00
	.byte	$00
	.byte	$00
	.byte	$00
	.byte	$00
	.byte	$00
	.byte	$00
	.byte	$00
	.byte	$00
	.byte	$00
	.byte	$00
	.byte	$00
	.byte	$00
	.byte	$00
	.byte	$00
	.byte	$00
	.byte	$00
	.byte	$00
	.byte	$19
	.byte	$19
	.byte	$19
	.byte	$00
	.byte	$00
	.byte	$00
	.byte	$00
	.byte	$00
	.byte	$10
	.byte	$00
	.byte	$00
	.byte	$00
	.byte	$19
	.byte	$00
	.byte	$00
	.byte	$00
	.byte	$00
	.byte	$00
	.byte	$00
	.byte	$00
	.byte	$19
	.byte	$19
	.byte	$19
	.byte	$00
	.byte	$10
	.byte	$00
	.byte	$00
	.byte	$00
	.byte	$18
	.byte	$18
	.byte	$18
	.byte	$18
	.byte	$18
	.byte	$18
	.byte	$18
	.byte	$18
	.byte	$18
	.byte	$18
	.byte	$18
	.byte	$18
	.byte	$10
	.byte	$00
	.byte	$00
	.byte	$00
	.byte	$01
	.byte	$05
	.byte	$05
	.byte	$05
	.byte	$01
	.byte	$05
	.byte	$05
	.byte	$05
	.byte	$01
	.byte	$05
	.byte	$05
	.byte	$05
	.byte	$01
	.byte	$05
	.byte	$05
	.byte	$05
_stereomadness__48:
	.byte	$03
	.byte	$07
	.byte	$07
	.byte	$07
	.byte	$03
	.byte	$07
	.byte	$07
	.byte	$07
	.byte	$03
	.byte	$07
	.byte	$07
	.byte	$07
	.byte	$03
	.byte	$07
	.byte	$07
	.byte	$07
	.byte	$03
	.byte	$07
	.byte	$07
	.byte	$07
	.byte	$03
	.byte	$07
	.byte	$07
	.byte	$07
	.byte	$03
	.byte	$07
	.byte	$07
	.byte	$07
	.byte	$03
	.byte	$07
	.byte	$07
	.byte	$07
	.byte	$02
	.byte	$06
	.byte	$06
	.byte	$06
	.byte	$02
	.byte	$06
	.byte	$06
	.byte	$06
	.byte	$02
	.byte	$06
	.byte	$06
	.byte	$06
	.byte	$02
	.byte	$06
	.byte	$06
	.byte	$06
	.byte	$02
	.byte	$06
	.byte	$06
	.byte	$06
	.byte	$02
	.byte	$06
	.byte	$06
	.byte	$06
	.byte	$02
	.byte	$06
	.byte	$06
	.byte	$06
	.byte	$02
	.byte	$06
	.byte	$06
	.byte	$06
	.byte	$00
	.byte	$00
	.byte	$00
	.byte	$00
	.byte	$00
	.byte	$00
	.byte	$00
	.byte	$00
	.byte	$00
	.byte	$10
	.byte	$2F
	.byte	$2F
	.byte	$2F
	.byte	$2F
	.byte	$2F
	.byte	$2F
	.byte	$00
	.byte	$00
	.byte	$00
	.byte	$00
	.byte	$00
	.byte	$00
	.byte	$00
	.byte	$00
	.byte	$00
	.byte	$00
	.byte	$10
	.byte	$2F
	.byte	$2F
	.byte	$2F
	.byte	$2F
	.byte	$2F
	.byte	$00
	.byte	$00
	.byte	$00
	.byte	$00
	.byte	$00
	.byte	$00
	.byte	$00
	.byte	$00
	.byte	$00
	.byte	$00
	.byte	$00
	.byte	$10
	.byte	$10
	.byte	$10
	.byte	$10
	.byte	$10
	.byte	$00
	.byte	$00
	.byte	$00
	.byte	$00
	.byte	$00
	.byte	$00
	.byte	$00
	.byte	$00
	.byte	$00
	.byte	$00
	.byte	$00
	.byte	$00
	.byte	$00
	.byte	$00
	.byte	$00
	.byte	$00
	.byte	$00
	.byte	$00
	.byte	$00
	.byte	$00
	.byte	$00
	.byte	$00
	.byte	$00
	.byte	$00
	.byte	$00
	.byte	$00
	.byte	$00
	.byte	$00
	.byte	$00
	.byte	$00
	.byte	$00
	.byte	$00
	.byte	$00
	.byte	$00
	.byte	$00
	.byte	$00
	.byte	$00
	.byte	$00
	.byte	$00
	.byte	$00
	.byte	$00
	.byte	$00
	.byte	$00
	.byte	$00
	.byte	$00
	.byte	$00
	.byte	$00
	.byte	$00
	.byte	$00
	.byte	$00
	.byte	$00
	.byte	$00
	.byte	$00
	.byte	$00
	.byte	$00
	.byte	$00
	.byte	$00
	.byte	$00
	.byte	$00
	.byte	$00
	.byte	$00
	.byte	$00
	.byte	$00
	.byte	$00
	.byte	$00
	.byte	$00
	.byte	$00
	.byte	$00
	.byte	$00
	.byte	$00
	.byte	$00
	.byte	$00
	.byte	$00
	.byte	$00
	.byte	$00
	.byte	$10
	.byte	$10
	.byte	$10
	.byte	$10
	.byte	$10
	.byte	$00
	.byte	$00
	.byte	$00
	.byte	$00
	.byte	$00
	.byte	$00
	.byte	$00
	.byte	$00
	.byte	$00
	.byte	$00
	.byte	$10
	.byte	$2F
	.byte	$2F
	.byte	$2F
	.byte	$2F
	.byte	$2F
	.byte	$00
	.byte	$00
	.byte	$00
	.byte	$00
	.byte	$00
	.byte	$00
	.byte	$00
	.byte	$00
	.byte	$00
	.byte	$10
	.byte	$2F
	.byte	$2F
	.byte	$2F
	.byte	$2F
	.byte	$2F
	.byte	$2F
	.byte	$01
	.byte	$05
	.byte	$05
	.byte	$05
	.byte	$01
	.byte	$05
	.byte	$05
	.byte	$05
	.byte	$01
	.byte	$05
	.byte	$05
	.byte	$05
	.byte	$01
	.byte	$05
	.byte	$05
	.byte	$05
_stereomadness__49:
	.byte	$03
	.byte	$07
	.byte	$07
	.byte	$07
	.byte	$03
	.byte	$07
	.byte	$07
	.byte	$07
	.byte	$03
	.byte	$07
	.byte	$07
	.byte	$07
	.byte	$03
	.byte	$07
	.byte	$07
	.byte	$07
	.byte	$03
	.byte	$07
	.byte	$07
	.byte	$07
	.byte	$03
	.byte	$07
	.byte	$07
	.byte	$07
	.byte	$03
	.byte	$07
	.byte	$07
	.byte	$07
	.byte	$03
	.byte	$07
	.byte	$07
	.byte	$07
	.byte	$02
	.byte	$06
	.byte	$06
	.byte	$06
	.byte	$02
	.byte	$06
	.byte	$06
	.byte	$06
	.byte	$02
	.byte	$06
	.byte	$06
	.byte	$06
	.byte	$02
	.byte	$06
	.byte	$06
	.byte	$06
	.byte	$02
	.byte	$06
	.byte	$06
	.byte	$06
	.byte	$02
	.byte	$06
	.byte	$06
	.byte	$06
	.byte	$02
	.byte	$06
	.byte	$06
	.byte	$06
	.byte	$02
	.byte	$06
	.byte	$06
	.byte	$06
	.byte	$2F
	.byte	$2F
	.byte	$10
	.byte	$17
	.byte	$17
	.byte	$17
	.byte	$17
	.byte	$17
	.byte	$17
	.byte	$17
	.byte	$17
	.byte	$10
	.byte	$2F
	.byte	$2F
	.byte	$2F
	.byte	$2F
	.byte	$2F
	.byte	$10
	.byte	$00
	.byte	$00
	.byte	$00
	.byte	$00
	.byte	$00
	.byte	$00
	.byte	$00
	.byte	$00
	.byte	$00
	.byte	$00
	.byte	$10
	.byte	$2F
	.byte	$2F
	.byte	$2F
	.byte	$10
	.byte	$00
	.byte	$00
	.byte	$00
	.byte	$00
	.byte	$00
	.byte	$00
	.byte	$00
	.byte	$00
	.byte	$00
	.byte	$00
	.byte	$00
	.byte	$00
	.byte	$10
	.byte	$10
	.byte	$10
	.byte	$00
	.byte	$00
	.byte	$00
	.byte	$00
	.byte	$00
	.byte	$00
	.byte	$00
	.byte	$00
	.byte	$00
	.byte	$00
	.byte	$00
	.byte	$00
	.byte	$00
	.byte	$00
	.byte	$00
	.byte	$00
	.byte	$00
	.byte	$00
	.byte	$00
	.byte	$00
	.byte	$00
	.byte	$00
	.byte	$00
	.byte	$00
	.byte	$00
	.byte	$00
	.byte	$00
	.byte	$00
	.byte	$00
	.byte	$00
	.byte	$00
	.byte	$00
	.byte	$00
	.byte	$00
	.byte	$00
	.byte	$00
	.byte	$00
	.byte	$00
	.byte	$00
	.byte	$00
	.byte	$00
	.byte	$00
	.byte	$00
	.byte	$00
	.byte	$00
	.byte	$00
	.byte	$00
	.byte	$00
	.byte	$00
	.byte	$00
	.byte	$00
	.byte	$00
	.byte	$00
	.byte	$00
	.byte	$00
	.byte	$00
	.byte	$00
	.byte	$00
	.byte	$00
	.byte	$00
	.byte	$00
	.byte	$00
	.byte	$00
	.byte	$00
	.byte	$10
	.byte	$00
	.byte	$00
	.byte	$00
	.byte	$00
	.byte	$00
	.byte	$00
	.byte	$00
	.byte	$00
	.byte	$00
	.byte	$00
	.byte	$00
	.byte	$00
	.byte	$10
	.byte	$10
	.byte	$10
	.byte	$2F
	.byte	$10
	.byte	$00
	.byte	$00
	.byte	$00
	.byte	$00
	.byte	$00
	.byte	$00
	.byte	$00
	.byte	$00
	.byte	$00
	.byte	$00
	.byte	$10
	.byte	$2F
	.byte	$2F
	.byte	$2F
	.byte	$2F
	.byte	$2F
	.byte	$10
	.byte	$18
	.byte	$18
	.byte	$18
	.byte	$18
	.byte	$18
	.byte	$18
	.byte	$18
	.byte	$18
	.byte	$10
	.byte	$2F
	.byte	$2F
	.byte	$2F
	.byte	$2F
	.byte	$01
	.byte	$05
	.byte	$05
	.byte	$05
	.byte	$01
	.byte	$05
	.byte	$05
	.byte	$05
	.byte	$01
	.byte	$05
	.byte	$05
	.byte	$05
	.byte	$01
	.byte	$05
	.byte	$05
	.byte	$05
_stereomadness__50:
	.byte	$03
	.byte	$07
	.byte	$07
	.byte	$07
	.byte	$03
	.byte	$07
	.byte	$07
	.byte	$07
	.byte	$03
	.byte	$07
	.byte	$07
	.byte	$07
	.byte	$03
	.byte	$07
	.byte	$07
	.byte	$07
	.byte	$03
	.byte	$07
	.byte	$07
	.byte	$07
	.byte	$03
	.byte	$07
	.byte	$07
	.byte	$07
	.byte	$03
	.byte	$07
	.byte	$07
	.byte	$07
	.byte	$03
	.byte	$07
	.byte	$07
	.byte	$07
	.byte	$02
	.byte	$06
	.byte	$06
	.byte	$06
	.byte	$02
	.byte	$06
	.byte	$06
	.byte	$06
	.byte	$02
	.byte	$06
	.byte	$06
	.byte	$06
	.byte	$02
	.byte	$06
	.byte	$06
	.byte	$06
	.byte	$02
	.byte	$06
	.byte	$06
	.byte	$06
	.byte	$02
	.byte	$06
	.byte	$06
	.byte	$06
	.byte	$02
	.byte	$06
	.byte	$06
	.byte	$06
	.byte	$02
	.byte	$06
	.byte	$06
	.byte	$06
	.byte	$2F
	.byte	$2F
	.byte	$2F
	.byte	$2F
	.byte	$10
	.byte	$17
	.byte	$17
	.byte	$17
	.byte	$17
	.byte	$17
	.byte	$17
	.byte	$17
	.byte	$17
	.byte	$17
	.byte	$17
	.byte	$17
	.byte	$2F
	.byte	$2F
	.byte	$2F
	.byte	$10
	.byte	$00
	.byte	$00
	.byte	$00
	.byte	$00
	.byte	$00
	.byte	$00
	.byte	$00
	.byte	$00
	.byte	$00
	.byte	$00
	.byte	$00
	.byte	$00
	.byte	$10
	.byte	$10
	.byte	$10
	.byte	$00
	.byte	$00
	.byte	$00
	.byte	$00
	.byte	$00
	.byte	$00
	.byte	$00
	.byte	$00
	.byte	$00
	.byte	$00
	.byte	$00
	.byte	$00
	.byte	$00
	.byte	$00
	.byte	$00
	.byte	$00
	.byte	$00
	.byte	$00
	.byte	$00
	.byte	$00
	.byte	$00
	.byte	$00
	.byte	$00
	.byte	$00
	.byte	$00
	.byte	$00
	.byte	$00
	.byte	$00
	.byte	$00
	.byte	$00
	.byte	$00
	.byte	$00
	.byte	$00
	.byte	$00
	.byte	$00
	.byte	$00
	.byte	$00
	.byte	$00
	.byte	$00
	.byte	$00
	.byte	$00
	.byte	$00
	.byte	$00
	.byte	$00
	.byte	$00
	.byte	$00
	.byte	$00
	.byte	$00
	.byte	$00
	.byte	$00
	.byte	$00
	.byte	$00
	.byte	$00
	.byte	$00
	.byte	$00
	.byte	$00
	.byte	$00
	.byte	$00
	.byte	$00
	.byte	$00
	.byte	$00
	.byte	$00
	.byte	$00
	.byte	$00
	.byte	$00
	.byte	$00
	.byte	$00
	.byte	$00
	.byte	$00
	.byte	$00
	.byte	$00
	.byte	$00
	.byte	$00
	.byte	$10
	.byte	$10
	.byte	$10
	.byte	$00
	.byte	$10
	.byte	$10
	.byte	$10
	.byte	$00
	.byte	$00
	.byte	$00
	.byte	$00
	.byte	$00
	.byte	$00
	.byte	$00
	.byte	$00
	.byte	$00
	.byte	$10
	.byte	$2F
	.byte	$10
	.byte	$00
	.byte	$2F
	.byte	$2F
	.byte	$2F
	.byte	$10
	.byte	$00
	.byte	$00
	.byte	$00
	.byte	$00
	.byte	$00
	.byte	$00
	.byte	$00
	.byte	$00
	.byte	$10
	.byte	$2F
	.byte	$10
	.byte	$00
	.byte	$2F
	.byte	$2F
	.byte	$2F
	.byte	$2F
	.byte	$10
	.byte	$18
	.byte	$18
	.byte	$18
	.byte	$18
	.byte	$18
	.byte	$18
	.byte	$18
	.byte	$10
	.byte	$2F
	.byte	$10
	.byte	$18
	.byte	$01
	.byte	$05
	.byte	$05
	.byte	$05
	.byte	$01
	.byte	$05
	.byte	$05
	.byte	$05
	.byte	$01
	.byte	$05
	.byte	$05
	.byte	$05
	.byte	$01
	.byte	$05
	.byte	$05
	.byte	$05
_stereomadness__51:
	.byte	$03
	.byte	$07
	.byte	$07
	.byte	$07
	.byte	$03
	.byte	$07
	.byte	$07
	.byte	$07
	.byte	$03
	.byte	$07
	.byte	$07
	.byte	$07
	.byte	$03
	.byte	$07
	.byte	$07
	.byte	$07
	.byte	$03
	.byte	$07
	.byte	$07
	.byte	$07
	.byte	$03
	.byte	$07
	.byte	$07
	.byte	$07
	.byte	$03
	.byte	$07
	.byte	$07
	.byte	$07
	.byte	$03
	.byte	$07
	.byte	$07
	.byte	$07
	.byte	$02
	.byte	$06
	.byte	$06
	.byte	$06
	.byte	$02
	.byte	$06
	.byte	$06
	.byte	$06
	.byte	$02
	.byte	$06
	.byte	$06
	.byte	$06
	.byte	$02
	.byte	$06
	.byte	$06
	.byte	$06
	.byte	$02
	.byte	$06
	.byte	$06
	.byte	$06
	.byte	$02
	.byte	$06
	.byte	$06
	.byte	$06
	.byte	$02
	.byte	$06
	.byte	$06
	.byte	$06
	.byte	$02
	.byte	$06
	.byte	$06
	.byte	$06
	.byte	$17
	.byte	$17
	.byte	$17
	.byte	$17
	.byte	$17
	.byte	$17
	.byte	$17
	.byte	$17
	.byte	$17
	.byte	$17
	.byte	$17
	.byte	$10
	.byte	$2F
	.byte	$10
	.byte	$17
	.byte	$17
	.byte	$00
	.byte	$00
	.byte	$00
	.byte	$00
	.byte	$00
	.byte	$00
	.byte	$00
	.byte	$00
	.byte	$00
	.byte	$00
	.byte	$00
	.byte	$10
	.byte	$2F
	.byte	$10
	.byte	$00
	.byte	$00
	.byte	$00
	.byte	$00
	.byte	$00
	.byte	$00
	.byte	$00
	.byte	$00
	.byte	$00
	.byte	$00
	.byte	$00
	.byte	$00
	.byte	$00
	.byte	$10
	.byte	$2F
	.byte	$10
	.byte	$00
	.byte	$00
	.byte	$00
	.byte	$00
	.byte	$00
	.byte	$00
	.byte	$00
	.byte	$00
	.byte	$00
	.byte	$00
	.byte	$00
	.byte	$00
	.byte	$00
	.byte	$10
	.byte	$10
	.byte	$10
	.byte	$00
	.byte	$00
	.byte	$00
	.byte	$00
	.byte	$00
	.byte	$00
	.byte	$00
	.byte	$00
	.byte	$00
	.byte	$00
	.byte	$00
	.byte	$00
	.byte	$00
	.byte	$00
	.byte	$00
	.byte	$00
	.byte	$00
	.byte	$00
	.byte	$00
	.byte	$00
	.byte	$00
	.byte	$00
	.byte	$00
	.byte	$00
	.byte	$00
	.byte	$00
	.byte	$00
	.byte	$00
	.byte	$00
	.byte	$00
	.byte	$00
	.byte	$00
	.byte	$00
	.byte	$00
	.byte	$00
	.byte	$00
	.byte	$00
	.byte	$00
	.byte	$00
	.byte	$00
	.byte	$00
	.byte	$00
	.byte	$00
	.byte	$00
	.byte	$00
	.byte	$00
	.byte	$00
	.byte	$00
	.byte	$00
	.byte	$00
	.byte	$00
	.byte	$00
	.byte	$00
	.byte	$00
	.byte	$00
	.byte	$00
	.byte	$00
	.byte	$00
	.byte	$00
	.byte	$00
	.byte	$00
	.byte	$00
	.byte	$00
	.byte	$00
	.byte	$00
	.byte	$00
	.byte	$00
	.byte	$00
	.byte	$00
	.byte	$00
	.byte	$00
	.byte	$00
	.byte	$00
	.byte	$00
	.byte	$00
	.byte	$00
	.byte	$00
	.byte	$00
	.byte	$00
	.byte	$00
	.byte	$00
	.byte	$00
	.byte	$18
	.byte	$18
	.byte	$18
	.byte	$18
	.byte	$18
	.byte	$18
	.byte	$18
	.byte	$18
	.byte	$18
	.byte	$18
	.byte	$18
	.byte	$18
	.byte	$18
	.byte	$18
	.byte	$18
	.byte	$18
	.byte	$01
	.byte	$05
	.byte	$05
	.byte	$05
	.byte	$01
	.byte	$05
	.byte	$05
	.byte	$05
	.byte	$01
	.byte	$05
	.byte	$05
	.byte	$05
	.byte	$01
	.byte	$05
	.byte	$05
	.byte	$05
_stereomadness__52:
	.byte	$03
	.byte	$07
	.byte	$07
	.byte	$07
	.byte	$03
	.byte	$07
	.byte	$07
	.byte	$07
	.byte	$03
	.byte	$07
	.byte	$07
	.byte	$07
	.byte	$03
	.byte	$07
	.byte	$07
	.byte	$07
	.byte	$03
	.byte	$07
	.byte	$07
	.byte	$07
	.byte	$03
	.byte	$07
	.byte	$07
	.byte	$07
	.byte	$03
	.byte	$07
	.byte	$07
	.byte	$07
	.byte	$03
	.byte	$07
	.byte	$07
	.byte	$07
	.byte	$02
	.byte	$06
	.byte	$06
	.byte	$06
	.byte	$02
	.byte	$06
	.byte	$06
	.byte	$06
	.byte	$02
	.byte	$06
	.byte	$06
	.byte	$06
	.byte	$02
	.byte	$06
	.byte	$06
	.byte	$06
	.byte	$02
	.byte	$06
	.byte	$06
	.byte	$06
	.byte	$02
	.byte	$06
	.byte	$06
	.byte	$06
	.byte	$02
	.byte	$06
	.byte	$06
	.byte	$06
	.byte	$02
	.byte	$06
	.byte	$06
	.byte	$06
	.byte	$17
	.byte	$17
	.byte	$17
	.byte	$17
	.byte	$17
	.byte	$17
	.byte	$17
	.byte	$17
	.byte	$17
	.byte	$17
	.byte	$17
	.byte	$17
	.byte	$10
	.byte	$10
	.byte	$10
	.byte	$10
	.byte	$00
	.byte	$00
	.byte	$00
	.byte	$00
	.byte	$00
	.byte	$00
	.byte	$00
	.byte	$00
	.byte	$00
	.byte	$00
	.byte	$00
	.byte	$00
	.byte	$1B
	.byte	$1B
	.byte	$1B
	.byte	$1B
	.byte	$00
	.byte	$00
	.byte	$00
	.byte	$00
	.byte	$00
	.byte	$00
	.byte	$00
	.byte	$00
	.byte	$00
	.byte	$00
	.byte	$00
	.byte	$00
	.byte	$00
	.byte	$00
	.byte	$00
	.byte	$00
	.byte	$00
	.byte	$00
	.byte	$00
	.byte	$00
	.byte	$00
	.byte	$00
	.byte	$00
	.byte	$00
	.byte	$00
	.byte	$00
	.byte	$00
	.byte	$00
	.byte	$00
	.byte	$00
	.byte	$00
	.byte	$00
	.byte	$00
	.byte	$00
	.byte	$00
	.byte	$00
	.byte	$00
	.byte	$00
	.byte	$00
	.byte	$00
	.byte	$00
	.byte	$00
	.byte	$00
	.byte	$00
	.byte	$00
	.byte	$00
	.byte	$00
	.byte	$00
	.byte	$00
	.byte	$00
	.byte	$00
	.byte	$00
	.byte	$00
	.byte	$00
	.byte	$00
	.byte	$00
	.byte	$00
	.byte	$00
	.byte	$00
	.byte	$00
	.byte	$00
	.byte	$00
	.byte	$00
	.byte	$00
	.byte	$00
	.byte	$00
	.byte	$00
	.byte	$00
	.byte	$00
	.byte	$00
	.byte	$00
	.byte	$00
	.byte	$00
	.byte	$00
	.byte	$00
	.byte	$00
	.byte	$00
	.byte	$00
	.byte	$00
	.byte	$00
	.byte	$00
	.byte	$00
	.byte	$00
	.byte	$00
	.byte	$00
	.byte	$00
	.byte	$00
	.byte	$00
	.byte	$00
	.byte	$00
	.byte	$00
	.byte	$00
	.byte	$00
	.byte	$00
	.byte	$00
	.byte	$00
	.byte	$00
	.byte	$00
	.byte	$00
	.byte	$00
	.byte	$00
	.byte	$00
	.byte	$00
	.byte	$00
	.byte	$00
	.byte	$00
	.byte	$00
	.byte	$00
	.byte	$11
	.byte	$11
	.byte	$11
	.byte	$11
	.byte	$18
	.byte	$18
	.byte	$18
	.byte	$18
	.byte	$18
	.byte	$18
	.byte	$18
	.byte	$18
	.byte	$18
	.byte	$18
	.byte	$18
	.byte	$18
	.byte	$10
	.byte	$10
	.byte	$10
	.byte	$10
	.byte	$01
	.byte	$05
	.byte	$05
	.byte	$05
	.byte	$01
	.byte	$05
	.byte	$05
	.byte	$05
	.byte	$01
	.byte	$05
	.byte	$05
	.byte	$05
	.byte	$01
	.byte	$05
	.byte	$05
	.byte	$05
_stereomadness__53:
	.byte	$03
	.byte	$07
	.byte	$07
	.byte	$07
	.byte	$03
	.byte	$07
	.byte	$07
	.byte	$07
	.byte	$03
	.byte	$07
	.byte	$07
	.byte	$07
	.byte	$03
	.byte	$07
	.byte	$07
	.byte	$07
	.byte	$03
	.byte	$07
	.byte	$07
	.byte	$07
	.byte	$03
	.byte	$07
	.byte	$07
	.byte	$07
	.byte	$03
	.byte	$07
	.byte	$07
	.byte	$07
	.byte	$03
	.byte	$07
	.byte	$07
	.byte	$07
	.byte	$02
	.byte	$06
	.byte	$06
	.byte	$06
	.byte	$02
	.byte	$06
	.byte	$06
	.byte	$06
	.byte	$02
	.byte	$06
	.byte	$06
	.byte	$06
	.byte	$02
	.byte	$06
	.byte	$06
	.byte	$06
	.byte	$02
	.byte	$06
	.byte	$06
	.byte	$06
	.byte	$02
	.byte	$06
	.byte	$06
	.byte	$06
	.byte	$02
	.byte	$06
	.byte	$06
	.byte	$06
	.byte	$02
	.byte	$06
	.byte	$06
	.byte	$06
	.byte	$10
	.byte	$10
	.byte	$17
	.byte	$17
	.byte	$17
	.byte	$17
	.byte	$17
	.byte	$10
	.byte	$2F
	.byte	$2F
	.byte	$2F
	.byte	$2F
	.byte	$10
	.byte	$17
	.byte	$17
	.byte	$17
	.byte	$1B
	.byte	$1B
	.byte	$00
	.byte	$00
	.byte	$00
	.byte	$00
	.byte	$00
	.byte	$10
	.byte	$10
	.byte	$10
	.byte	$10
	.byte	$10
	.byte	$10
	.byte	$00
	.byte	$00
	.byte	$00
	.byte	$00
	.byte	$00
	.byte	$00
	.byte	$00
	.byte	$00
	.byte	$00
	.byte	$00
	.byte	$1B
	.byte	$1B
	.byte	$1B
	.byte	$1B
	.byte	$1B
	.byte	$1B
	.byte	$00
	.byte	$00
	.byte	$00
	.byte	$00
	.byte	$00
	.byte	$00
	.byte	$00
	.byte	$00
	.byte	$00
	.byte	$00
	.byte	$00
	.byte	$00
	.byte	$00
	.byte	$00
	.byte	$00
	.byte	$00
	.byte	$00
	.byte	$00
	.byte	$00
	.byte	$00
	.byte	$00
	.byte	$00
	.byte	$00
	.byte	$00
	.byte	$00
	.byte	$00
	.byte	$00
	.byte	$00
	.byte	$00
	.byte	$00
	.byte	$00
	.byte	$00
	.byte	$00
	.byte	$00
	.byte	$00
	.byte	$00
	.byte	$00
	.byte	$00
	.byte	$00
	.byte	$00
	.byte	$00
	.byte	$00
	.byte	$00
	.byte	$00
	.byte	$00
	.byte	$00
	.byte	$00
	.byte	$00
	.byte	$00
	.byte	$00
	.byte	$00
	.byte	$00
	.byte	$00
	.byte	$00
	.byte	$00
	.byte	$00
	.byte	$00
	.byte	$00
	.byte	$00
	.byte	$00
	.byte	$00
	.byte	$00
	.byte	$00
	.byte	$00
	.byte	$00
	.byte	$00
	.byte	$00
	.byte	$00
	.byte	$00
	.byte	$00
	.byte	$00
	.byte	$00
	.byte	$00
	.byte	$00
	.byte	$11
	.byte	$11
	.byte	$11
	.byte	$11
	.byte	$11
	.byte	$11
	.byte	$00
	.byte	$00
	.byte	$00
	.byte	$11
	.byte	$11
	.byte	$00
	.byte	$00
	.byte	$00
	.byte	$00
	.byte	$00
	.byte	$10
	.byte	$10
	.byte	$10
	.byte	$10
	.byte	$10
	.byte	$10
	.byte	$00
	.byte	$00
	.byte	$00
	.byte	$10
	.byte	$10
	.byte	$18
	.byte	$18
	.byte	$18
	.byte	$18
	.byte	$18
	.byte	$10
	.byte	$2F
	.byte	$2F
	.byte	$2F
	.byte	$2F
	.byte	$10
	.byte	$18
	.byte	$18
	.byte	$18
	.byte	$01
	.byte	$05
	.byte	$05
	.byte	$05
	.byte	$01
	.byte	$05
	.byte	$05
	.byte	$05
	.byte	$01
	.byte	$05
	.byte	$05
	.byte	$05
	.byte	$01
	.byte	$05
	.byte	$05
	.byte	$05
_stereomadness__54:
	.byte	$03
	.byte	$07
	.byte	$07
	.byte	$07
	.byte	$03
	.byte	$07
	.byte	$07
	.byte	$07
	.byte	$03
	.byte	$07
	.byte	$07
	.byte	$07
	.byte	$03
	.byte	$07
	.byte	$07
	.byte	$07
	.byte	$03
	.byte	$07
	.byte	$07
	.byte	$07
	.byte	$03
	.byte	$07
	.byte	$07
	.byte	$07
	.byte	$03
	.byte	$07
	.byte	$07
	.byte	$07
	.byte	$03
	.byte	$07
	.byte	$07
	.byte	$07
	.byte	$02
	.byte	$06
	.byte	$06
	.byte	$06
	.byte	$02
	.byte	$06
	.byte	$06
	.byte	$06
	.byte	$02
	.byte	$06
	.byte	$06
	.byte	$06
	.byte	$02
	.byte	$06
	.byte	$06
	.byte	$06
	.byte	$02
	.byte	$06
	.byte	$06
	.byte	$06
	.byte	$02
	.byte	$06
	.byte	$06
	.byte	$06
	.byte	$02
	.byte	$06
	.byte	$06
	.byte	$06
	.byte	$02
	.byte	$06
	.byte	$06
	.byte	$06
	.byte	$17
	.byte	$17
	.byte	$17
	.byte	$10
	.byte	$2F
	.byte	$2F
	.byte	$2F
	.byte	$2F
	.byte	$2F
	.byte	$2F
	.byte	$2F
	.byte	$2F
	.byte	$2F
	.byte	$2F
	.byte	$2F
	.byte	$10
	.byte	$00
	.byte	$00
	.byte	$00
	.byte	$10
	.byte	$2F
	.byte	$2F
	.byte	$2F
	.byte	$2F
	.byte	$2F
	.byte	$2F
	.byte	$2F
	.byte	$2F
	.byte	$2F
	.byte	$2F
	.byte	$2F
	.byte	$10
	.byte	$00
	.byte	$00
	.byte	$00
	.byte	$10
	.byte	$10
	.byte	$10
	.byte	$10
	.byte	$10
	.byte	$10
	.byte	$10
	.byte	$10
	.byte	$10
	.byte	$10
	.byte	$10
	.byte	$10
	.byte	$10
	.byte	$00
	.byte	$00
	.byte	$00
	.byte	$00
	.byte	$00
	.byte	$00
	.byte	$00
	.byte	$00
	.byte	$00
	.byte	$00
	.byte	$00
	.byte	$00
	.byte	$00
	.byte	$00
	.byte	$00
	.byte	$00
	.byte	$00
	.byte	$00
	.byte	$00
	.byte	$00
	.byte	$00
	.byte	$00
	.byte	$00
	.byte	$00
	.byte	$00
	.byte	$00
	.byte	$00
	.byte	$00
	.byte	$00
	.byte	$00
	.byte	$00
	.byte	$00
	.byte	$00
	.byte	$00
	.byte	$00
	.byte	$00
	.byte	$00
	.byte	$00
	.byte	$00
	.byte	$00
	.byte	$00
	.byte	$00
	.byte	$00
	.byte	$00
	.byte	$00
	.byte	$00
	.byte	$00
	.byte	$00
	.byte	$00
	.byte	$00
	.byte	$00
	.byte	$00
	.byte	$00
	.byte	$00
	.byte	$00
	.byte	$00
	.byte	$00
	.byte	$00
	.byte	$00
	.byte	$00
	.byte	$00
	.byte	$00
	.byte	$00
	.byte	$00
	.byte	$00
	.byte	$00
	.byte	$00
	.byte	$10
	.byte	$10
	.byte	$10
	.byte	$10
	.byte	$10
	.byte	$10
	.byte	$10
	.byte	$10
	.byte	$10
	.byte	$10
	.byte	$10
	.byte	$10
	.byte	$10
	.byte	$00
	.byte	$00
	.byte	$00
	.byte	$10
	.byte	$2F
	.byte	$2F
	.byte	$2F
	.byte	$2F
	.byte	$2F
	.byte	$2F
	.byte	$2F
	.byte	$2F
	.byte	$2F
	.byte	$2F
	.byte	$2F
	.byte	$10
	.byte	$18
	.byte	$18
	.byte	$18
	.byte	$10
	.byte	$2F
	.byte	$2F
	.byte	$2F
	.byte	$2F
	.byte	$2F
	.byte	$2F
	.byte	$2F
	.byte	$2F
	.byte	$2F
	.byte	$2F
	.byte	$2F
	.byte	$10
	.byte	$01
	.byte	$05
	.byte	$05
	.byte	$05
	.byte	$01
	.byte	$05
	.byte	$05
	.byte	$05
	.byte	$01
	.byte	$05
	.byte	$05
	.byte	$05
	.byte	$01
	.byte	$05
	.byte	$05
	.byte	$05
_stereomadness__55:
	.byte	$00
	.byte	$00
	.byte	$00
	.byte	$00
	.byte	$00
	.byte	$00
	.byte	$00
	.byte	$00
	.byte	$00
	.byte	$00
	.byte	$00
	.byte	$00
	.byte	$00
	.byte	$00
	.byte	$00
	.byte	$00
	.byte	$00
	.byte	$00
	.byte	$00
	.byte	$00
	.byte	$00
	.byte	$00
	.byte	$00
	.byte	$00
	.byte	$00
	.byte	$00
	.byte	$00
	.byte	$00
	.byte	$00
	.byte	$00
	.byte	$00
	.byte	$00
	.byte	$00
	.byte	$00
	.byte	$00
	.byte	$00
	.byte	$00
	.byte	$00
	.byte	$00
	.byte	$00
	.byte	$00
	.byte	$00
	.byte	$00
	.byte	$00
	.byte	$00
	.byte	$00
	.byte	$00
	.byte	$00
	.byte	$00
	.byte	$00
	.byte	$00
	.byte	$00
	.byte	$00
	.byte	$00
	.byte	$00
	.byte	$00
	.byte	$00
	.byte	$00
	.byte	$00
	.byte	$00
	.byte	$00
	.byte	$00
	.byte	$00
	.byte	$00
	.byte	$00
	.byte	$00
	.byte	$00
	.byte	$00
	.byte	$00
	.byte	$00
	.byte	$00
	.byte	$00
	.byte	$00
	.byte	$00
	.byte	$00
	.byte	$00
	.byte	$00
	.byte	$00
	.byte	$00
	.byte	$00
	.byte	$00
	.byte	$00
	.byte	$00
	.byte	$00
	.byte	$00
	.byte	$00
	.byte	$00
	.byte	$00
	.byte	$00
	.byte	$00
	.byte	$00
	.byte	$00
	.byte	$00
	.byte	$00
	.byte	$00
	.byte	$00
	.byte	$00
	.byte	$00
	.byte	$00
	.byte	$00
	.byte	$00
	.byte	$00
	.byte	$00
	.byte	$00
	.byte	$00
	.byte	$00
	.byte	$00
	.byte	$00
	.byte	$00
	.byte	$00
	.byte	$00
	.byte	$00
	.byte	$00
	.byte	$00
	.byte	$00
	.byte	$00
	.byte	$00
	.byte	$00
	.byte	$00
	.byte	$00
	.byte	$00
	.byte	$00
	.byte	$00
	.byte	$00
	.byte	$00
	.byte	$00
	.byte	$00
	.byte	$00
	.byte	$00
	.byte	$00
	.byte	$00
	.byte	$00
	.byte	$00
	.byte	$00
	.byte	$00
	.byte	$00
	.byte	$00
	.byte	$00
	.byte	$00
	.byte	$00
	.byte	$00
	.byte	$00
	.byte	$00
	.byte	$00
	.byte	$00
	.byte	$00
	.byte	$00
	.byte	$00
	.byte	$00
	.byte	$00
	.byte	$00
	.byte	$00
	.byte	$00
	.byte	$00
	.byte	$00
	.byte	$00
	.byte	$00
	.byte	$00
	.byte	$00
	.byte	$00
	.byte	$00
	.byte	$00
	.byte	$00
	.byte	$00
	.byte	$00
	.byte	$00
	.byte	$00
	.byte	$00
	.byte	$00
	.byte	$00
	.byte	$00
	.byte	$00
	.byte	$00
	.byte	$00
	.byte	$00
	.byte	$00
	.byte	$00
	.byte	$00
	.byte	$00
	.byte	$00
	.byte	$00
	.byte	$00
	.byte	$00
	.byte	$00
	.byte	$00
	.byte	$00
	.byte	$00
	.byte	$00
	.byte	$00
	.byte	$00
	.byte	$00
	.byte	$00
	.byte	$00
	.byte	$00
	.byte	$00
	.byte	$00
	.byte	$00
	.byte	$00
	.byte	$00
	.byte	$00
	.byte	$00
	.byte	$00
	.byte	$00
	.byte	$00
	.byte	$00
	.byte	$00
	.byte	$00
	.byte	$00
	.byte	$00
	.byte	$00
	.byte	$00
	.byte	$00
	.byte	$00
	.byte	$00
	.byte	$00
	.byte	$00
	.byte	$00
	.byte	$00
	.byte	$00
	.byte	$00
	.byte	$00
	.byte	$00
	.byte	$00
	.byte	$00
	.byte	$00
	.byte	$00
	.byte	$00
	.byte	$00
	.byte	$00
	.byte	$00
	.byte	$00
	.byte	$00
	.byte	$00
	.byte	$00
	.byte	$00
	.byte	$00
	.byte	$00
	.byte	$00
	.byte	$00
	.byte	$00
_stereomadness__56:
	.byte	$00
	.byte	$00
	.byte	$00
	.byte	$00
	.byte	$00
	.byte	$00
	.byte	$00
	.byte	$00
	.byte	$00
	.byte	$00
	.byte	$00
	.byte	$00
	.byte	$00
	.byte	$00
	.byte	$00
	.byte	$00
	.byte	$00
	.byte	$00
	.byte	$00
	.byte	$00
	.byte	$00
	.byte	$00
	.byte	$00
	.byte	$00
	.byte	$00
	.byte	$00
	.byte	$00
	.byte	$00
	.byte	$00
	.byte	$00
	.byte	$00
	.byte	$00
	.byte	$00
	.byte	$00
	.byte	$00
	.byte	$00
	.byte	$00
	.byte	$00
	.byte	$00
	.byte	$00
	.byte	$00
	.byte	$00
	.byte	$00
	.byte	$00
	.byte	$00
	.byte	$00
	.byte	$00
	.byte	$00
	.byte	$00
	.byte	$00
	.byte	$00
	.byte	$00
	.byte	$00
	.byte	$00
	.byte	$00
	.byte	$00
	.byte	$00
	.byte	$00
	.byte	$00
	.byte	$00
	.byte	$00
	.byte	$00
	.byte	$00
	.byte	$00
	.byte	$00
	.byte	$00
	.byte	$00
	.byte	$00
	.byte	$00
	.byte	$00
	.byte	$00
	.byte	$00
	.byte	$00
	.byte	$00
	.byte	$00
	.byte	$00
	.byte	$00
	.byte	$00
	.byte	$00
	.byte	$00
	.byte	$00
	.byte	$00
	.byte	$00
	.byte	$00
	.byte	$00
	.byte	$00
	.byte	$00
	.byte	$00
	.byte	$00
	.byte	$00
	.byte	$00
	.byte	$00
	.byte	$00
	.byte	$00
	.byte	$00
	.byte	$00
	.byte	$00
	.byte	$00
	.byte	$00
	.byte	$00
	.byte	$00
	.byte	$00
	.byte	$00
	.byte	$00
	.byte	$00
	.byte	$00
	.byte	$00
	.byte	$00
	.byte	$00
	.byte	$00
	.byte	$00
	.byte	$00
	.byte	$00
	.byte	$00
	.byte	$00
	.byte	$00
	.byte	$00
	.byte	$00
	.byte	$00
	.byte	$00
	.byte	$00
	.byte	$00
	.byte	$00
	.byte	$00
	.byte	$00
	.byte	$00
	.byte	$00
	.byte	$00
	.byte	$00
	.byte	$00
	.byte	$00
	.byte	$00
	.byte	$00
	.byte	$00
	.byte	$00
	.byte	$00
	.byte	$00
	.byte	$00
	.byte	$00
	.byte	$00
	.byte	$00
	.byte	$00
	.byte	$00
	.byte	$00
	.byte	$00
	.byte	$00
	.byte	$00
	.byte	$00
	.byte	$00
	.byte	$00
	.byte	$00
	.byte	$00
	.byte	$00
	.byte	$00
	.byte	$00
	.byte	$00
	.byte	$00
	.byte	$00
	.byte	$00
	.byte	$00
	.byte	$00
	.byte	$00
	.byte	$00
	.byte	$00
	.byte	$00
	.byte	$00
	.byte	$00
	.byte	$00
	.byte	$00
	.byte	$00
	.byte	$00
	.byte	$00
	.byte	$00
	.byte	$00
	.byte	$00
	.byte	$00
	.byte	$00
	.byte	$00
	.byte	$00
	.byte	$00
	.byte	$00
	.byte	$00
	.byte	$00
	.byte	$00
	.byte	$00
	.byte	$00
	.byte	$00
	.byte	$00
	.byte	$00
	.byte	$00
	.byte	$00
	.byte	$00
	.byte	$00
	.byte	$00
	.byte	$00
	.byte	$00
	.byte	$00
	.byte	$00
	.byte	$00
	.byte	$00
	.byte	$00
	.byte	$00
	.byte	$00
	.byte	$00
	.byte	$00
	.byte	$00
	.byte	$00
	.byte	$00
	.byte	$00
	.byte	$00
	.byte	$00
	.byte	$00
	.byte	$00
	.byte	$00
	.byte	$00
	.byte	$00
	.byte	$00
	.byte	$00
	.byte	$00
	.byte	$00
	.byte	$00
	.byte	$00
	.byte	$00
	.byte	$00
	.byte	$00
	.byte	$00
	.byte	$00
	.byte	$00
	.byte	$00
	.byte	$00
	.byte	$00
	.byte	$00
	.byte	$00
	.byte	$00
	.byte	$00
	.byte	$00
	.byte	$00
	.byte	$00
	.byte	$00
	.byte	$00
_stereomadness__57:
	.byte	$00
	.byte	$00
	.byte	$00
	.byte	$00
	.byte	$00
	.byte	$00
	.byte	$00
	.byte	$00
	.byte	$00
	.byte	$00
	.byte	$00
	.byte	$00
	.byte	$00
	.byte	$00
	.byte	$00
	.byte	$00
	.byte	$00
	.byte	$00
	.byte	$00
	.byte	$00
	.byte	$00
	.byte	$00
	.byte	$00
	.byte	$00
	.byte	$00
	.byte	$00
	.byte	$00
	.byte	$00
	.byte	$00
	.byte	$00
	.byte	$00
	.byte	$00
	.byte	$00
	.byte	$00
	.byte	$00
	.byte	$00
	.byte	$00
	.byte	$00
	.byte	$00
	.byte	$00
	.byte	$00
	.byte	$00
	.byte	$00
	.byte	$00
	.byte	$00
	.byte	$00
	.byte	$00
	.byte	$00
	.byte	$00
	.byte	$00
	.byte	$00
	.byte	$00
	.byte	$00
	.byte	$00
	.byte	$00
	.byte	$00
	.byte	$00
	.byte	$00
	.byte	$00
	.byte	$00
	.byte	$00
	.byte	$00
	.byte	$00
	.byte	$00
	.byte	$00
	.byte	$00
	.byte	$00
	.byte	$00
	.byte	$00
	.byte	$00
	.byte	$00
	.byte	$00
	.byte	$00
	.byte	$00
	.byte	$00
	.byte	$00
	.byte	$00
	.byte	$00
	.byte	$00
	.byte	$00
	.byte	$00
	.byte	$00
	.byte	$00
	.byte	$00
	.byte	$00
	.byte	$00
	.byte	$00
	.byte	$00
	.byte	$00
	.byte	$00
	.byte	$00
	.byte	$00
	.byte	$00
	.byte	$00
	.byte	$00
	.byte	$00
	.byte	$00
	.byte	$00
	.byte	$00
	.byte	$00
	.byte	$00
	.byte	$00
	.byte	$00
	.byte	$00
	.byte	$00
	.byte	$00
	.byte	$00
	.byte	$00
	.byte	$00
	.byte	$00
	.byte	$00
	.byte	$00
	.byte	$00
	.byte	$00
	.byte	$00
	.byte	$00
	.byte	$00
	.byte	$00
	.byte	$00
	.byte	$00
	.byte	$00
	.byte	$00
	.byte	$00
	.byte	$00
	.byte	$00
	.byte	$00
	.byte	$00
	.byte	$00
	.byte	$00
	.byte	$00
	.byte	$00
	.byte	$00
	.byte	$00
	.byte	$00
	.byte	$00
	.byte	$00
	.byte	$00
	.byte	$00
	.byte	$00
	.byte	$00
	.byte	$00
	.byte	$00
	.byte	$00
	.byte	$00
	.byte	$00
	.byte	$00
	.byte	$00
	.byte	$00
	.byte	$00
	.byte	$00
	.byte	$00
	.byte	$00
	.byte	$00
	.byte	$00
	.byte	$00
	.byte	$00
	.byte	$00
	.byte	$00
	.byte	$00
	.byte	$00
	.byte	$00
	.byte	$00
	.byte	$00
	.byte	$00
	.byte	$00
	.byte	$00
	.byte	$00
	.byte	$00
	.byte	$00
	.byte	$00
	.byte	$00
	.byte	$00
	.byte	$00
	.byte	$00
	.byte	$00
	.byte	$00
	.byte	$00
	.byte	$00
	.byte	$00
	.byte	$00
	.byte	$00
	.byte	$00
	.byte	$00
	.byte	$00
	.byte	$00
	.byte	$00
	.byte	$00
	.byte	$00
	.byte	$00
	.byte	$00
	.byte	$00
	.byte	$00
	.byte	$00
	.byte	$00
	.byte	$00
	.byte	$00
	.byte	$00
	.byte	$00
	.byte	$00
	.byte	$00
	.byte	$00
	.byte	$00
	.byte	$00
	.byte	$00
	.byte	$00
	.byte	$00
	.byte	$00
	.byte	$00
	.byte	$00
	.byte	$00
	.byte	$00
	.byte	$00
	.byte	$00
	.byte	$00
	.byte	$00
	.byte	$00
	.byte	$00
	.byte	$00
	.byte	$00
	.byte	$00
	.byte	$00
	.byte	$00
	.byte	$00
	.byte	$00
	.byte	$00
	.byte	$00
	.byte	$00
	.byte	$00
	.byte	$00
	.byte	$00
	.byte	$00
	.byte	$00
	.byte	$00
	.byte	$00
	.byte	$00
	.byte	$00
	.byte	$00
	.byte	$00
	.byte	$00
	.byte	$00
_stereomadness__list:
	.addr	_stereomadness__0
	.addr	_stereomadness__1
	.addr	_stereomadness__2
	.addr	_stereomadness__3
	.addr	_stereomadness__4
	.addr	_stereomadness__5
	.addr	_stereomadness__6
	.addr	_stereomadness__7
	.addr	_stereomadness__8
	.addr	_stereomadness__9
	.addr	_stereomadness__10
	.addr	_stereomadness__11
	.addr	_stereomadness__12
	.addr	_stereomadness__13
	.addr	_stereomadness__14
	.addr	_stereomadness__15
	.addr	_stereomadness__16
	.addr	_stereomadness__17
	.addr	_stereomadness__18
	.addr	_stereomadness__19
	.addr	_stereomadness__20
	.addr	_stereomadness__21
	.addr	_stereomadness__22
	.addr	_stereomadness__23
	.addr	_stereomadness__24
	.addr	_stereomadness__25
	.addr	_stereomadness__26
	.addr	_stereomadness__27
	.addr	_stereomadness__28
	.addr	_stereomadness__29
	.addr	_stereomadness__30
	.addr	_stereomadness__31
	.addr	_stereomadness__32
	.addr	_stereomadness__33
	.addr	_stereomadness__34
	.addr	_stereomadness__35
	.addr	_stereomadness__36
	.addr	_stereomadness__37
	.addr	_stereomadness__38
	.addr	_stereomadness__39
	.addr	_stereomadness__40
	.addr	_stereomadness__41
	.addr	_stereomadness__42
	.addr	_stereomadness__43
	.addr	_stereomadness__44
	.addr	_stereomadness__45
	.addr	_stereomadness__46
	.addr	_stereomadness__47
	.addr	_stereomadness__48
	.addr	_stereomadness__49
	.addr	_stereomadness__50
	.addr	_stereomadness__51
	.addr	_stereomadness__52
	.addr	_stereomadness__53
	.addr	_stereomadness__54
	.addr	_stereomadness__55
	.addr	_stereomadness__56
_Rooms:
	.addr	_stereomadness__0
	.addr	_stereomadness__1
	.addr	_stereomadness__2
	.addr	_stereomadness__3
	.addr	_stereomadness__4
	.addr	_stereomadness__5
	.addr	_stereomadness__6
	.addr	_stereomadness__7
	.addr	_stereomadness__8
	.addr	_stereomadness__9
	.addr	_stereomadness__10
	.addr	_stereomadness__11
	.addr	_stereomadness__12
	.addr	_stereomadness__13
	.addr	_stereomadness__14
	.addr	_stereomadness__15
	.addr	_stereomadness__16
	.addr	_stereomadness__17
	.addr	_stereomadness__18
	.addr	_stereomadness__19
	.addr	_stereomadness__20
	.addr	_stereomadness__21
	.addr	_stereomadness__22
	.addr	_stereomadness__23
	.addr	_stereomadness__24
	.addr	_stereomadness__25
	.addr	_stereomadness__26
	.addr	_stereomadness__27
	.addr	_stereomadness__28
	.addr	_stereomadness__29
	.addr	_stereomadness__30
	.addr	_stereomadness__31
	.addr	_stereomadness__32
	.addr	_stereomadness__33
	.addr	_stereomadness__34
	.addr	_stereomadness__35
	.addr	_stereomadness__36
	.addr	_stereomadness__37
	.addr	_stereomadness__38
	.addr	_stereomadness__39
	.addr	_stereomadness__40
	.addr	_stereomadness__41
	.addr	_stereomadness__42
	.addr	_stereomadness__43
	.addr	_stereomadness__44
	.addr	_stereomadness__45
	.addr	_stereomadness__46
	.addr	_stereomadness__47
	.addr	_stereomadness__48
	.addr	_stereomadness__49
	.addr	_stereomadness__50
	.addr	_stereomadness__51
	.addr	_stereomadness__52
	.addr	_stereomadness__53
	.addr	_stereomadness__54
	.addr	_stereomadness__55
	.addr	_stereomadness__56
_obj_stereomadness:
	.byte	$00
	.byte	$00
	.byte	$00
	.byte	$27
	.byte	$10
	.byte	$00
	.byte	$00
	.byte	$67
	.byte	$00
	.byte	$07
	.byte	$D0
	.byte	$29
	.byte	$10
	.byte	$07
	.byte	$D0
	.byte	$69
	.byte	$00
	.byte	$0F
	.byte	$30
	.byte	$19
	.byte	$10
	.byte	$0F
	.byte	$30
	.byte	$59
	.byte	$00
	.byte	$0F
	.byte	$40
	.byte	$1F
	.byte	$10
	.byte	$0F
	.byte	$40
	.byte	$5F
	.byte	$70
	.byte	$10
	.byte	$A0
	.byte	$01
	.byte	$00
	.byte	$10
	.byte	$B0
	.byte	$1A
	.byte	$10
	.byte	$10
	.byte	$B0
	.byte	$5A
	.byte	$00
	.byte	$10
	.byte	$C0
	.byte	$2A
	.byte	$10
	.byte	$10
	.byte	$C0
	.byte	$6A
	.byte	$80
	.byte	$1A
	.byte	$20
	.byte	$00
	.byte	$00
	.byte	$1A
	.byte	$30
	.byte	$29
	.byte	$10
	.byte	$1A
	.byte	$30
	.byte	$69
	.byte	$00
	.byte	$20
	.byte	$00
	.byte	$20
	.byte	$10
	.byte	$20
	.byte	$00
	.byte	$60
	.byte	$00
	.byte	$2F
	.byte	$D0
	.byte	$29
	.byte	$10
	.byte	$2F
	.byte	$D0
	.byte	$69
	.byte	$FF
_obj_list:
	.addr	_obj_stereomadness

.segment	"BSS"

.segment	"ZEROPAGE"
_cube_rotate:
	.res	2,$00
_pad1:
	.res	1,$00
_pad1_new:
	.res	1,$00
_collision:
	.res	1,$00
_collision_L:
	.res	1,$00
_collision_R:
	.res	1,$00
_collision_U:
	.res	1,$00
_collision_D:
	.res	1,$00
_coordinates:
	.res	1,$00
_temp1:
	.res	1,$00
_temp2:
	.res	1,$00
_temp3:
	.res	1,$00
_temp4:
	.res	1,$00
_temp5:
	.res	2,$00
_temp6:
	.res	2,$00
_gravity:
	.res	1,$00
_eject_L:
	.res	1,$00
_eject_R:
	.res	1,$00
_eject_D:
	.res	1,$00
_eject_U:
	.res	1,$00
_direction:
	.res	1,$00
_address:
	.res	2,$00
_x:
	.res	2,$00
_y:
	.res	1,$00
_nt:
	.res	1,$00
_index:
	.res	2,$00
_index2:
	.res	2,$00
_room:
	.res	1,$00
_map:
	.res	1,$00
_scroll_x:
	.res	2,$00
_scroll_y:
	.res	2,$00
_scroll_count:
	.res	1,$00
_pseudo_scroll_x:
	.res	2,$00
_L_R_switch:
	.res	1,$00
_old_x:
	.res	2,$00
_temp_x:
	.res	1,$00
_temp_y:
	.res	1,$00
_map_loaded:
	.res	1,$00
_temp_room:
	.res	1,$00
.segment	"BSS"
_song:
	.res	1,$00
_cube_data:
	.res	1,$00
_gamemode:
	.res	1,$00
_level:
	.res	1,$00
_pointer:
	.res	2,$00
_c_map:
	.res	240,$00
_c_map2:
	.res	240,$00
_Generic:
	.res	4,$00
_Generic2:
	.res	4,$00
_obj_x:
	.res	32,$00
_obj_y:
	.res	32,$00
_obj_active:
	.res	32,$00
_obj_room:
	.res	32,$00
_obj_actual_x:
	.res	32,$00
_obj_type:
	.res	32,$00

; ---------------------------------------------------------------
; void __near__ load_room (void)
; ---------------------------------------------------------------

.segment	"CODE"

.proc	_load_room: near

.segment	"CODE"

;
; set_data_pointer(Rooms[0]);
;
	lda     _Rooms
	ldx     _Rooms+1
	jsr     _set_data_pointer
;
; set_mt_pointer(metatiles1);
;
	lda     #<(_metatiles1)
	ldx     #>(_metatiles1)
	jsr     _set_mt_pointer
;
; for(y=0; ;y+=0x20){
;
	lda     #$00
L40AD:	sta     _y
;
; for(x=0; ;x+=0x20){
;
	lda     #$00
	sta     _x
	sta     _x+1
;
; address = get_ppu_addr(0, x, y);
;
L3CA2:	jsr     decsp2
	lda     #$00
	ldy     #$01
	sta     (sp),y
	lda     _x
	dey
	sta     (sp),y
	lda     _y
	jsr     _get_ppu_addr
	sta     _address
	stx     _address+1
;
; index = (y & 0xf0) + (x >> 4);
;
	lda     _y
	and     #$F0
	sta     ptr1
	lda     _x
	ldx     _x+1
	jsr     shrax4
	clc
	adc     ptr1
	bcc     L40AC
	inx
L40AC:	sta     _index
	stx     _index+1
;
; buffer_4_mt(address, index); // ppu_address, index to the data
;
	lda     _address
	ldx     _address+1
	jsr     pushax
	lda     _index
	jsr     _buffer_4_mt
;
; flush_vram_update2();
;
	jsr     _flush_vram_update2
;
; if (x == 0xe0) break;
;
	lda     _x+1
	bne     L40AE
	lda     _x
	cmp     #$E0
	beq     L3CA0
;
; for(x=0; ;x+=0x20){
;
L40AE:	lda     #$20
	clc
	adc     _x
	sta     _x
	bcc     L3CA2
	inc     _x+1
	jmp     L3CA2
;
; if (y == 0xe0) break;
;
L3CA0:	lda     _y
	cmp     #$E0
	beq     L3C98
;
; for(y=0; ;y+=0x20){
;
	lda     #$20
	clc
	adc     _y
	jmp     L40AD
;
; memcpy (c_map, Rooms[0], 240);
;
L3C98:	lda     #<(_c_map)
	ldx     #>(_c_map)
	jsr     pushax
	lda     _Rooms
	ldx     _Rooms+1
	jsr     pushax
	ldx     #$00
	lda     #$F0
	jsr     _memcpy
;
; sprite_obj_init();
;
	jmp     _sprite_obj_init

.endproc

; ---------------------------------------------------------------
; void __near__ draw_sprites (void)
; ---------------------------------------------------------------

.segment	"CODE"

.proc	_draw_sprites: near

.segment	"CODE"

;
; oam_clear();
;
	jsr     _oam_clear
;
; for(index = 0; index < MAX_OBJ; ++index){
;
	lda     #$00
	sta     _index
	sta     _index+1
L3CC2:	lda     _index+1
	cmp     #$00
	bne     L3CC9
	lda     _index
	cmp     #$20
L3CC9:	jcs     L3CC3
;
; index2 = obj_type[index];
;
	lda     #<(_obj_type)
	sta     ptr1
	lda     #>(_obj_type)
	clc
	adc     _index+1
	sta     ptr1+1
	ldy     _index
	lda     #$00
	sta     _index2+1
	lda     (ptr1),y
	sta     _index2
;
; if(index2 & 0x30) continue;
;
	and     #$30
	bne     L3CC4
;
; temp_y = obj_y[index];
;
	lda     #<(_obj_y)
	sta     ptr1
	lda     #>(_obj_y)
	clc
	adc     _index+1
	sta     ptr1+1
	ldy     _index
	lda     (ptr1),y
	sta     _temp_y
;
; if(temp_y == TURN_OFF) continue;
;
	cmp     #$FF
	beq     L3CC4
;
; if(!obj_active[index]) continue;
;
	lda     #<(_obj_active)
	sta     ptr1
	lda     #>(_obj_active)
	clc
	adc     _index+1
	sta     ptr1+1
	ldy     _index
	lda     (ptr1),y
	beq     L3CC4
;
; temp_x = obj_x[index];
;
	lda     #<(_obj_x)
	sta     ptr1
	lda     #>(_obj_x)
	clc
	adc     _index+1
	sta     ptr1+1
	ldy     _index
	lda     (ptr1),y
	sta     _temp_x
;
; if(temp_x > 0xf0) continue;
;
	cmp     #$F1
	bcs     L3CC4
;
; if(temp_y < 0xf0) {
;
	lda     _temp_y
	cmp     #$F0
	bcs     L3CC4
;
; oam_meta_spr(temp_x, temp_y, Portals[index2]);
;
	jsr     decsp2
	lda     _temp_x
	ldy     #$01
	sta     (sp),y
	lda     _temp_y
	dey
	sta     (sp),y
	lda     _index2
	ldx     _index2+1
	stx     tmp1
	asl     a
	rol     tmp1
	clc
	adc     #<(_Portals)
	sta     ptr1
	lda     tmp1
	adc     #>(_Portals)
	sta     ptr1+1
	iny
	lda     (ptr1),y
	tax
	dey
	lda     (ptr1),y
	jsr     _oam_meta_spr
;
; for(index = 0; index < MAX_OBJ; ++index){
;
L3CC4:	inc     _index
	jne     L3CC2
	inc     _index+1
	jmp     L3CC2
;
; temp_x = high_byte(Cube.x);
;
L3CC3:	lda     _Cube+1
	sta     _temp_x
;
; if(temp_x > 0xfc) temp_x = 1;
;
	cmp     #$FD
	bcc     L40B3
	lda     #$01
	sta     _temp_x
;
; if(temp_x == 0) temp_x = 1;
;
L40B3:	lda     _temp_x
	bne     L40B4
	lda     #$01
	sta     _temp_x
;
; if (gamemode & 0x01) {
;
L40B4:	lda     _gamemode
	and     #$01
	jeq     L40B5
;
; oam_meta_spr(temp_x, high_byte(Cube.y)-1, CUBE[high_byte(cube_rotate)]);
;
	jsr     decsp2
	lda     _temp_x
	ldy     #$01
	sta     (sp),y
	lda     _Cube+3
	sec
	sbc     #$01
	dey
	sta     (sp),y
	ldx     #$00
	lda     _cube_rotate+1
	asl     a
	bcc     L40B1
	inx
	clc
L40B1:	adc     #<(_CUBE)
	sta     ptr1
	txa
	adc     #>(_CUBE)
	sta     ptr1+1
	iny
	lda     (ptr1),y
	tax
	dey
	lda     (ptr1),y
	jsr     _oam_meta_spr
;
; if (gravity) cube_rotate -= CUBE_GRAVITY;
;
	lda     _gravity
	beq     L3CFA
	lda     _cube_rotate
	sec
	sbc     #$6C
	sta     _cube_rotate
	bcs     L3D02
	dec     _cube_rotate+1
;
; else cube_rotate += CUBE_GRAVITY;
;
	jmp     L3D02
L3CFA:	lda     #$6C
	clc
	adc     _cube_rotate
	sta     _cube_rotate
	bcc     L3D02
	inc     _cube_rotate+1
;
; if (cube_rotate > 0x05FF) cube_rotate -= 0x0600;
;
L3D02:	lda     _cube_rotate
	cmp     #$00
	lda     _cube_rotate+1
	sbc     #$06
	bvs     L3D05
	eor     #$80
L3D05:	bpl     L3D03
	lda     _cube_rotate
	sec
	sbc     #$00
	sta     _cube_rotate
	lda     _cube_rotate+1
	sbc     #$06
	sta     _cube_rotate+1
;
; if (cube_rotate < 0x0000) cube_rotate += 0x0600;
;
L3D03:	ldx     _cube_rotate+1
	cpx     #$80
	bcc     L40B5
	lda     #$00
	clc
	adc     _cube_rotate
	sta     _cube_rotate
	lda     #$06
	adc     _cube_rotate+1
	sta     _cube_rotate+1
;
; if (gamemode & 0x02){
;
L40B5:	lda     _gamemode
	and     #$02
	beq     L3D0C
;
; oam_meta_spr(temp_x, high_byte(Cube.y)-1, SHIP[high_byte(cube_rotate)]);
;
	jsr     decsp2
	lda     _temp_x
	ldy     #$01
	sta     (sp),y
	lda     _Cube+3
	sec
	sbc     #$01
	dey
	sta     (sp),y
	ldx     #$00
	lda     _cube_rotate+1
	asl     a
	bcc     L40B2
	inx
	clc
L40B2:	adc     #<(_SHIP)
	sta     ptr1
	txa
	adc     #>(_SHIP)
	sta     ptr1+1
	iny
	lda     (ptr1),y
	tax
	dey
	lda     (ptr1),y
	jsr     _oam_meta_spr
;
; cube_rotate = 0x047F - Cube.vel_y;
;
	lda     #$7F
	sec
	sbc     _Cube+6
	sta     _cube_rotate
	lda     #$04
	sbc     _Cube+6+1
	sta     _cube_rotate+1
;
; }
;
L3D0C:	rts

.endproc

; ---------------------------------------------------------------
; void __near__ cube_movement (void)
; ---------------------------------------------------------------

.segment	"CODE"

.proc	_cube_movement: near

.segment	"CODE"

;
; old_x = Cube.x;
;
	lda     _Cube+1
	sta     _old_x+1
	lda     _Cube
	sta     _old_x
;
; Cube.vel_x = CUBE_SPEED;
;
	ldx     #$02
	lda     #$C4
	sta     _Cube+4
	stx     _Cube+4+1
;
; Cube.x += Cube.vel_x;
;
	clc
	adc     _Cube
	sta     _Cube
	txa
	adc     _Cube+1
	sta     _Cube+1
;
; if(Cube.x > 0xf000) { // too far, don't wrap around
;
	lda     _Cube
	cmp     #$01
	lda     _Cube+1
	sbc     #$F0
	bcc     L40BE
;
; if(old_x >= 0xf000){
;
	lda     _old_x
	cmp     #$00
	lda     _old_x+1
	sbc     #$F0
	lda     #$00
	tax
	bcc     L40BD
;
; Cube.x = 0xf000; // max right
;
	ldx     #$F0
;
; Cube.x = 0x0000; // max left
;
L40BD:	sta     _Cube
	stx     _Cube+1
;
; Cube.vel_x = 0;
;
	sta     _Cube+4
	sta     _Cube+4+1
;
; Generic.x = high_byte(Cube.x); // this is much faster than passing a pointer to Cube
;
L40BE:	lda     _Cube+1
	sta     _Generic
;
; Generic.y = high_byte(Cube.y);
;
	lda     _Cube+3
	sta     _Generic+1
;
; Generic.width = CUBE_WIDTH;
;
	lda     #$0F
	sta     _Generic+2
;
; Generic.height = CUBE_HEIGHT;
;
	sta     _Generic+3
;
; if(Cube.vel_x < 0){
;
	ldx     _Cube+4+1
	cpx     #$80
	bcc     L3B14
;
; if(bg_coll_L() ){ // check collision left
;
	jsr     _bg_coll_L
	tax
	beq     L40BF
;
; high_byte(Cube.x) = high_byte(Cube.x) - eject_L;
;
	lda     _Cube+1
	sec
	sbc     _eject_L
	sta     _Cube+1
;
; Cube.vel_x = 0;
;
	lda     #$00
	sta     _Cube+4
	sta     _Cube+4+1
;
; if(Cube.x > 0xf000) {
;
	lda     _Cube
	cmp     #$01
	lda     _Cube+1
	sbc     #$F0
	bcc     L40BF
;
; Cube.x = 0xf000;
;
	ldx     #$F0
;
; else if(Cube.vel_x > 0){
;
	jmp     L40C8
L3B14:	lda     _Cube+4
	cmp     #$01
	lda     _Cube+4+1
	sbc     #$00
	bvs     L3B25
	eor     #$80
L3B25:	bpl     L40BF
;
; if(bg_coll_R() ){ // check collision right
;
	jsr     _bg_coll_R
	tax
	beq     L40BF
;
; high_byte(Cube.x) = high_byte(Cube.x) - eject_R;
;
	lda     _Cube+1
	sec
	sbc     _eject_R
	sta     _Cube+1
;
; Cube.vel_x = 0;
;
	lda     #$00
	sta     _Cube+4
	sta     _Cube+4+1
;
; if(Cube.x > 0xf000) {
;
	lda     _Cube
	cmp     #$01
	lda     _Cube+1
	sbc     #$F0
	bcc     L40BF
;
; Cube.x = 0x0000;
;
	ldx     #$00
L40C8:	lda     #$00
	sta     _Cube
	stx     _Cube+1
;
; if(gravity < 1){
;
L40BF:	lda     _gravity
	bne     L3B32
;
; if(Cube.vel_y > CUBE_MAX_FALLSPEED){
;
	lda     _Cube+6
	cmp     #$01
	lda     _Cube+6+1
	sbc     #$06
	bvs     L3B36
	eor     #$80
L3B36:	bpl     L3B34
;
; Cube.vel_y = CUBE_MAX_FALLSPEED;
;
	ldx     #$06
	lda     #$00
	sta     _Cube+6
	stx     _Cube+6+1
;
; } else Cube.vel_y += CUBE_GRAVITY;
;
	jmp     L3B3D
L3B34:	lda     #$6C
	clc
	adc     _Cube+6
	sta     _Cube+6
	bcc     L3B3D
	inc     _Cube+6+1
;
; else{
;
	jmp     L3B3D
;
; Cube.vel_y -= CUBE_GRAVITY;
;
L3B32:	lda     _Cube+6
	sec
	sbc     #$6C
	sta     _Cube+6
	bcs     L3B3D
	dec     _Cube+6+1
;
; Cube.y += Cube.vel_y;
;
L3B3D:	lda     _Cube+6
	clc
	adc     _Cube+2
	sta     _Cube+2
	lda     _Cube+6+1
	adc     _Cube+2+1
	sta     _Cube+2+1
;
; Generic.x = high_byte(Cube.x);
;
	lda     _Cube+1
	sta     _Generic
;
; Generic.y = high_byte(Cube.y);
;
	lda     _Cube+3
	sta     _Generic+1
;
; if(Cube.vel_y > 0){
;
	lda     _Cube+6
	cmp     #$01
	lda     _Cube+6+1
	sbc     #$00
	bvs     L3B4B
	eor     #$80
L3B4B:	bpl     L3B49
;
; if(bg_coll_D()){ // check collision below
;
	jsr     _bg_coll_D
	tax
	beq     L40C0
;
; high_byte(Cube.y) = high_byte(Cube.y) - eject_D;
;
	lda     _Cube+3
	sec
	sbc     _eject_D
;
; else if(Cube.vel_y < 0){
;
	jmp     L40CA
L3B49:	ldx     _Cube+6+1
	cpx     #$80
	bcc     L40C0
;
; if(bg_coll_U() ){ // check collision above
;
	jsr     _bg_coll_U
	tax
	beq     L40C0
;
; high_byte(Cube.y) = high_byte(Cube.y) - eject_U;
;
	lda     _Cube+3
	sec
	sbc     _eject_U
L40CA:	sta     _Cube+3
;
; Cube.vel_y = 0;
;
	lda     #$00
	sta     _Cube+6
	sta     _Cube+6+1
;
; Generic.y = high_byte(Cube.y); // the rest should be the same
;
L40C0:	lda     _Cube+3
	sta     _Generic+1
;
; if (gravity == 0x00){
;
	lda     _gravity
	bne     L3B62
;
; if(bg_coll_D2()) {
;
	jsr     _bg_coll_D2
	tax
	beq     L40C1
;
; if(pad1 & PAD_A) {
;
	lda     _pad1
	and     #$80
	beq     L40C1
;
; Cube.vel_y = JUMP_VEL; // JUMP
;
	ldx     #$FA
	lda     #$50
;
; } else {
;
	jmp     L40C7
;
; if(bg_coll_U2()) {
;
L3B62:	jsr     _bg_coll_U2
	tax
	beq     L40C1
;
; if(pad1 & PAD_A) {
;
	lda     _pad1
	and     #$80
	beq     L40C1
;
; Cube.vel_y = JUMP_VEL^0xFF; // JUMP
;
	ldx     #$FA
	lda     #$AF
L40C7:	sta     _Cube+6
	stx     _Cube+6+1
;
; if(pad1_new & PAD_B) {
;
L40C1:	lda     _pad1_new
	and     #$40
	beq     L3B78
;
; if(gravity == 1) {
;
	lda     _gravity
	cmp     #$01
	bne     L40C2
;
; gravity = 0;
;
	lda     #$00
;
; else if(gravity == 0) {
;
	jmp     L40BA
L40C2:	lda     _gravity
	bne     L3B78
;
; gravity = 1;
;
	lda     #$01
L40BA:	sta     _gravity
;
; if((scroll_x & 0xff) < 4){
;
L3B78:	lda     _scroll_x
	cmp     #$04
	bcs     L40C3
;
; if(!map_loaded){
;
	lda     _map_loaded
	bne     L3B85
;
; new_cmap();
;
	jsr     _new_cmap
;
; map_loaded = 1; // only do once
;
	lda     #$01
;
; else{
;
	jmp     L40BB
;
; map_loaded = 0;
;
L40C3:	lda     #$00
L40BB:	sta     _map_loaded
;
; temp5 = Cube.x;
;
L3B85:	lda     _Cube+1
	sta     _temp5+1
	lda     _Cube
	sta     _temp5
;
; if (Cube.x > MAX_RIGHT){
;
	lda     _Cube
	cmp     #$01
	lda     _Cube+1
	sbc     #$60
	bcc     L3B8A
;
; temp1 = (Cube.x - MAX_RIGHT) >> 8;
;
	lda     _Cube+1
	sec
	sbc     #$60
	sta     _temp1
;
; if (temp1 > 3) temp1 = 3; // max scroll change
;
	cmp     #$04
	bcc     L40C4
	lda     #$03
	sta     _temp1
;
; scroll_x += temp1;
;
L40C4:	lda     _temp1
	clc
	adc     _scroll_x
	sta     _scroll_x
	lda     #$00
	adc     _scroll_x+1
	sta     _scroll_x+1
;
; high_byte(Cube.x) = high_byte(Cube.x) - temp1;
;
	lda     _Cube+1
	sec
	sbc     _temp1
	sta     _Cube+1
;
; if(scroll_x >= MAX_SCROLL) {
;
L3B8A:	lda     _scroll_x
	cmp     #$FF
	lda     _scroll_x+1
	sbc     #$3E
	bcc     L3B99
;
; scroll_x = MAX_SCROLL; // stop scrolling right, end of level
;
	ldx     #$3E
	lda     #$FF
	sta     _scroll_x
	stx     _scroll_x+1
;
; reset_level();
;
	jsr     _reset_level
;
; orbjump();
;
L3B99:	jsr     _orbjump
;
; padjump();
;
	jmp     _padjump

.endproc

; ---------------------------------------------------------------
; void __near__ draw_screen_R (void)
; ---------------------------------------------------------------

.segment	"CODE"

.proc	_draw_screen_R: near

.segment	"CODE"

;
; pseudo_scroll_x = scroll_x + 0xF8;
;
	lda     _scroll_x
	ldx     _scroll_x+1
	clc
	adc     #$F8
	bcc     L3D1B
	inx
L3D1B:	sta     _pseudo_scroll_x
	stx     _pseudo_scroll_x+1
;
; temp1 = pseudo_scroll_x >> 8;
;
	lda     _pseudo_scroll_x+1
	sta     _temp1
;
; set_data_pointer(Rooms[temp1]);
;
	ldx     #$00
	lda     _temp1
	asl     a
	bcc     L40CD
	inx
	clc
L40CD:	adc     #<(_Rooms)
	sta     ptr1
	txa
	adc     #>(_Rooms)
	sta     ptr1+1
	ldy     #$01
	lda     (ptr1),y
	tax
	dey
	lda     (ptr1),y
	jsr     _set_data_pointer
;
; nt = temp1 & 1;
;
	lda     _temp1
	and     #$01
	sta     _nt
;
; x = pseudo_scroll_x & 0xff;
;
	lda     #$00
	sta     _x+1
	lda     _pseudo_scroll_x
	sta     _x
;
; switch(scroll_count){
;
	lda     _scroll_count
;
; }
;
	beq     L3D29
	cmp     #$01
	beq     L3D42
	cmp     #$02
	jeq     L3D5C
	cmp     #$03
	jeq     L3D76
	jmp     L40CE
;
; address = get_ppu_addr(nt, x, 0);
;
L3D29:	jsr     decsp2
	lda     _nt
	ldy     #$01
	sta     (sp),y
	lda     _x
	dey
	sta     (sp),y
	tya
	jsr     _get_ppu_addr
	sta     _address
	stx     _address+1
;
; index = 0 + (x >> 4);
;
	lda     _x
	ldx     _x+1
	jsr     shrax4
	sta     _index
	stx     _index+1
;
; buffer_4_mt(address, index); // ppu_address, index to the data
;
	lda     _address
	ldx     _address+1
	jsr     pushax
	lda     _index
	jsr     _buffer_4_mt
;
; address = get_ppu_addr(nt, x, 0x20);
;
	jsr     decsp2
	lda     _nt
	ldy     #$01
	sta     (sp),y
	lda     _x
	dey
	sta     (sp),y
	lda     #$20
	jsr     _get_ppu_addr
	sta     _address
	stx     _address+1
;
; index = 0x20 + (x >> 4);
;
	lda     _x
	ldx     _x+1
	jsr     shrax4
	clc
	adc     #$20
;
; break;
;
	jmp     L40D5
;
; address = get_ppu_addr(nt, x, 0x40);
;
L3D42:	jsr     decsp2
	lda     _nt
	ldy     #$01
	sta     (sp),y
	lda     _x
	dey
	sta     (sp),y
	lda     #$40
	jsr     _get_ppu_addr
	sta     _address
	stx     _address+1
;
; index = 0x40 + (x >> 4);
;
	lda     _x
	ldx     _x+1
	jsr     shrax4
	clc
	adc     #$40
	bcc     L3D4B
	inx
L3D4B:	sta     _index
	stx     _index+1
;
; buffer_4_mt(address, index); // ppu_address, index to the data
;
	lda     _address
	ldx     _address+1
	jsr     pushax
	lda     _index
	jsr     _buffer_4_mt
;
; address = get_ppu_addr(nt, x, 0x60);
;
	jsr     decsp2
	lda     _nt
	ldy     #$01
	sta     (sp),y
	lda     _x
	dey
	sta     (sp),y
	lda     #$60
	jsr     _get_ppu_addr
	sta     _address
	stx     _address+1
;
; index = 0x60 + (x >> 4);
;
	lda     _x
	ldx     _x+1
	jsr     shrax4
	clc
	adc     #$60
;
; break;
;
	jmp     L40D5
;
; address = get_ppu_addr(nt, x, 0x80);
;
L3D5C:	jsr     decsp2
	lda     _nt
	ldy     #$01
	sta     (sp),y
	lda     _x
	dey
	sta     (sp),y
	lda     #$80
	jsr     _get_ppu_addr
	sta     _address
	stx     _address+1
;
; index = 0x80 + (x >> 4);
;
	lda     _x
	ldx     _x+1
	jsr     shrax4
	clc
	adc     #$80
	bcc     L3D65
	inx
L3D65:	sta     _index
	stx     _index+1
;
; buffer_4_mt(address, index); // ppu_address, index to the data
;
	lda     _address
	ldx     _address+1
	jsr     pushax
	lda     _index
	jsr     _buffer_4_mt
;
; address = get_ppu_addr(nt, x, 0xa0);
;
	jsr     decsp2
	lda     _nt
	ldy     #$01
	sta     (sp),y
	lda     _x
	dey
	sta     (sp),y
	lda     #$A0
	jsr     _get_ppu_addr
	sta     _address
	stx     _address+1
;
; index = 0xa0 + (x >> 4);
;
	lda     _x
	ldx     _x+1
	jsr     shrax4
	clc
	adc     #$A0
;
; break;
;
	jmp     L40D5
;
; address = get_ppu_addr(nt, x, 0xc0);
;
L3D76:	jsr     decsp2
	lda     _nt
	ldy     #$01
	sta     (sp),y
	lda     _x
	dey
	sta     (sp),y
	lda     #$C0
	jsr     _get_ppu_addr
	sta     _address
	stx     _address+1
;
; index = 0xc0 + (x >> 4);
;
	lda     _x
	ldx     _x+1
	jsr     shrax4
	clc
	adc     #$C0
	bcc     L3D7F
	inx
L3D7F:	sta     _index
	stx     _index+1
;
; buffer_4_mt(address, index); // ppu_address, index to the data
;
	lda     _address
	ldx     _address+1
	jsr     pushax
	lda     _index
	jsr     _buffer_4_mt
;
; address = get_ppu_addr(nt, x, 0xe0);
;
	jsr     decsp2
	lda     _nt
	ldy     #$01
	sta     (sp),y
	lda     _x
	dey
	sta     (sp),y
	lda     #$E0
	jsr     _get_ppu_addr
	sta     _address
	stx     _address+1
;
; index = 0xe0 + (x >> 4);
;
	lda     _x
	ldx     _x+1
	jsr     shrax4
	clc
	adc     #$E0
L40D5:	bcc     L3D8B
	inx
L3D8B:	sta     _index
	stx     _index+1
;
; buffer_4_mt(address, index); // ppu_address, index to the data
;
	lda     _address
	ldx     _address+1
	jsr     pushax
	lda     _index
	jsr     _buffer_4_mt
;
; ++scroll_count;
;
L40CE:	inc     _scroll_count
;
; scroll_count &= 3; //mask off top bits, keep it 0-3
;
	lda     _scroll_count
	and     #$03
	sta     _scroll_count
;
; }
;
	rts

.endproc

; ---------------------------------------------------------------
; void __near__ new_cmap (void)
; ---------------------------------------------------------------

.segment	"CODE"

.proc	_new_cmap: near

.segment	"CODE"

;
; room = ((scroll_x >> 8) +1); //high byte = room, one to the right
;
	lda     _scroll_x+1
	clc
	adc     #$01
	sta     _room
;
; map = room & 1; //even or odd?
;
	and     #$01
	sta     _map
;
; if(!map){
;
	lda     _map
	bne     L3D9A
;
; memcpy (c_map, Rooms[room], 240);
;
	lda     #<(_c_map)
	ldx     #>(_c_map)
	jsr     pushax
	ldx     #$00
	lda     _room
	asl     a
	bcc     L40D8
	inx
	clc
L40D8:	adc     #<(_Rooms)
	sta     ptr1
	txa
	adc     #>(_Rooms)
	sta     ptr1+1
	ldy     #$01
	lda     (ptr1),y
	tax
	dey
	lda     (ptr1),y
	jsr     pushax
	ldx     #$00
	lda     #$F0
	jmp     _memcpy
;
; memcpy (c_map2, Rooms[room], 240);
;
L3D9A:	lda     #<(_c_map2)
	ldx     #>(_c_map2)
	jsr     pushax
	ldx     #$00
	lda     _room
	asl     a
	bcc     L40D9
	inx
	clc
L40D9:	adc     #<(_Rooms)
	sta     ptr1
	txa
	adc     #>(_Rooms)
	sta     ptr1+1
	ldy     #$01
	lda     (ptr1),y
	tax
	dey
	lda     (ptr1),y
	jsr     pushax
	ldx     #$00
	lda     #$F0
	jmp     _memcpy

.endproc

; ---------------------------------------------------------------
; void __near__ reset_level (void)
; ---------------------------------------------------------------

.segment	"CODE"

.proc	_reset_level: near

.segment	"CODE"

;
; ppu_off(); // reset the level when you get to this point, and change this later
;
	jsr     _ppu_off
;
; scroll_x = 0;
;
	lda     #$00
	sta     _scroll_x
	sta     _scroll_x+1
;
; load_room();
;
	jsr     _load_room
;
; Cube.x = 0x0000;
;
	lda     #$00
	sta     _Cube
	sta     _Cube+1
;
; Cube.y = 0xb400;
;
	ldx     #$B4
	sta     _Cube+2
	stx     _Cube+2+1
;
; gravity = 0x00;
;
	sta     _gravity
;
; gamemode = 0x01;
;
	lda     #$01
	sta     _gamemode
;
; Cube.vel_x = 0;
;
	lda     #$00
	sta     _Cube+4
	sta     _Cube+4+1
;
; Cube.vel_y = 0;
;
	sta     _Cube+6
	sta     _Cube+6+1
;
; cube_data = 0;
;
	sta     _cube_data
;
; music_stop();
;
	jsr     _music_stop
;
; ppu_on_all();
;
	jsr     _ppu_on_all
;
; music_play(song);
;
	lda     _song
	jmp     _music_play

.endproc

; ---------------------------------------------------------------
; void __near__ orbjump (void)
; ---------------------------------------------------------------

.segment	"CODE"

.proc	_orbjump: near

.segment	"CODE"

;
; bg_coll_orbs();
;
	jsr     _bg_coll_orbs
;
; if (bg_coll_orbs() && cube_data & CUBE_ORBJUMP) {
;
	jsr     _bg_coll_orbs
	tax
	beq     L40DC
	lda     _cube_data
	and     #$02
	bne     L40DD
L40DC:	rts
;
; if (gravity == 1) Cube.vel_y = JUMP_VEL^0xFF;
;
L40DD:	lda     _gravity
	cmp     #$01
	bne     L3E0B
	ldx     #$FA
	lda     #$AF
;
; else Cube.vel_y = JUMP_VEL;
;
	jmp     L40DE
L3E0B:	ldx     #$FA
	lda     #$50
L40DE:	sta     _Cube+6
	stx     _Cube+6+1
;
; cube_data = 0x00;
;
	lda     #$00
	sta     _cube_data
;
; }
;
	rts

.endproc

; ---------------------------------------------------------------
; void __near__ padjump (void)
; ---------------------------------------------------------------

.segment	"CODE"

.proc	_padjump: near

.segment	"CODE"

;
; bg_coll_pads();
;
	jsr     _bg_coll_pads
;
; if (bg_coll_pads()) {
;
	jsr     _bg_coll_pads
	tax
	beq     L3E3E
;
; if (gravity == 1) Cube.vel_y = YEL_PAD_HEIGHT^0xFF;
;
	lda     _gravity
	cmp     #$01
	bne     L3E3A
	ldx     #$F8
	lda     #$5F
;
; else Cube.vel_y = YEL_PAD_HEIGHT;
;
	jmp     L40E0
L3E3A:	ldx     #$F8
	lda     #$A0
L40E0:	sta     _Cube+6
	stx     _Cube+6+1
;
; }
;
L3E3E:	rts

.endproc

; ---------------------------------------------------------------
; void __near__ update_colors (void)
; ---------------------------------------------------------------

.segment	"CODE"

.proc	_update_colors: near

.segment	"CODE"

;
; }
;
	rts

.endproc

; ---------------------------------------------------------------
; void __near__ sprite_obj_init (void)
; ---------------------------------------------------------------

.segment	"CODE"

.proc	_sprite_obj_init: near

.segment	"CODE"

;
; pointer = obj_list[level];
;
	ldx     #$00
	lda     _level
	asl     a
	bcc     L40E3
	inx
	clc
L40E3:	adc     #<(_obj_list)
	sta     ptr1
	txa
	adc     #>(_obj_list)
	sta     ptr1+1
	ldy     #$01
	lda     (ptr1),y
	sta     _pointer+1
	dey
	lda     (ptr1),y
	sta     _pointer
;
; for(index = 0,index2 = 0;index < MAX_OBJ; ++index){
;
	tya
	sta     _index
	sta     _index+1
	sta     _index2
	sta     _index2+1
L406B:	lda     _index+1
	cmp     #$00
	bne     L4074
	lda     _index
	cmp     #$20
L4074:	jcs     L406C
;
; obj_x[index] = 0;
;
	lda     #<(_obj_x)
	clc
	adc     _index
	sta     ptr1
	lda     #>(_obj_x)
	adc     _index+1
	sta     ptr1+1
	lda     #$00
	sta     (ptr1),y
;
; temp1 = pointer[index2]; // get a byte of data
;
	lda     _pointer
	clc
	adc     _index2
	sta     ptr1
	lda     _pointer+1
	adc     _index2+1
	sta     ptr1+1
	lda     (ptr1),y
	sta     _temp1
;
; obj_y[index] = temp1;
;
	lda     #<(_obj_y)
	clc
	adc     _index
	sta     ptr1
	lda     #>(_obj_y)
	adc     _index+1
	sta     ptr1+1
	lda     _temp1
	sta     (ptr1),y
;
; if(temp1 == TURN_OFF) break;
;
	lda     _temp1
	cmp     #$FF
	jeq     L406C
;
; ++index2;
;
	inc     _index2
	bne     L4083
	inc     _index2+1
;
; obj_active[index] = 0;
;
L4083:	lda     #<(_obj_active)
	clc
	adc     _index
	sta     ptr1
	lda     #>(_obj_active)
	adc     _index+1
	sta     ptr1+1
	lda     #$00
	sta     (ptr1),y
;
; temp1 = pointer[index2]; // get a byte of data
;
	lda     _pointer
	clc
	adc     _index2
	sta     ptr1
	lda     _pointer+1
	adc     _index2+1
	sta     ptr1+1
	lda     (ptr1),y
	sta     _temp1
;
; obj_room[index] = temp1;
;
	lda     #<(_obj_room)
	clc
	adc     _index
	sta     ptr1
	lda     #>(_obj_room)
	adc     _index+1
	sta     ptr1+1
	lda     _temp1
	sta     (ptr1),y
;
; ++index2;
;
	inc     _index2
	bne     L408E
	inc     _index2+1
;
; temp1 = pointer[index2]; // get a byte of data
;
L408E:	lda     _pointer
	clc
	adc     _index2
	sta     ptr1
	lda     _pointer+1
	adc     _index2+1
	sta     ptr1+1
	lda     (ptr1),y
	sta     _temp1
;
; obj_actual_x[index] = temp1;
;
	lda     #<(_obj_actual_x)
	clc
	adc     _index
	sta     ptr1
	lda     #>(_obj_actual_x)
	adc     _index+1
	sta     ptr1+1
	lda     _temp1
	sta     (ptr1),y
;
; ++index2;
;
	inc     _index2
	bne     L4096
	inc     _index2+1
;
; temp1 = pointer[index2]; // get a byte of data
;
L4096:	lda     _pointer
	clc
	adc     _index2
	sta     ptr1
	lda     _pointer+1
	adc     _index2+1
	sta     ptr1+1
	lda     (ptr1),y
	sta     _temp1
;
; obj_type[index] = temp1;
;
	lda     #<(_obj_type)
	clc
	adc     _index
	sta     ptr1
	lda     #>(_obj_type)
	adc     _index+1
	sta     ptr1+1
	lda     _temp1
	sta     (ptr1),y
;
; ++index2;
;
	inc     _index2
	bne     L409E
	inc     _index2+1
;
; for(index = 0,index2 = 0;index < MAX_OBJ; ++index){
;
L409E:	inc     _index
	jne     L406B
	inc     _index+1
	jmp     L406B
;
; for(++index;index < MAX_OBJ; ++index){
;
L406C:	inc     _index
	bne     L40E2
	inc     _index+1
L40E2:	lda     _index+1
	cmp     #$00
	bne     L40A6
	lda     _index
	cmp     #$20
L40A6:	bcs     L40A0
;
; obj_y[index] = TURN_OFF;
;
	lda     #<(_obj_y)
	clc
	adc     _index
	sta     ptr1
	lda     #>(_obj_y)
	adc     _index+1
	sta     ptr1+1
	lda     #$FF
	sta     (ptr1),y
;
; for(++index;index < MAX_OBJ; ++index){
;
	jmp     L406C
;
; }
;
L40A0:	rts

.endproc

; ---------------------------------------------------------------
; void __near__ sprite_collisions (void)
; ---------------------------------------------------------------

.segment	"CODE"

.proc	_sprite_collisions: near

.segment	"CODE"

;
; Generic.x = high_byte(Cube.x);
;
	lda     _Cube+1
	sta     _Generic
;
; Generic.y = high_byte(Cube.y);
;
	lda     _Cube+3
	sta     _Generic+1
;
; Generic.width = CUBE_WIDTH;
;
	lda     #$0F
	sta     _Generic+2
;
; Generic.height = CUBE_HEIGHT;
;
	sta     _Generic+3
;
; for(index = 0; index < MAX_OBJ; ++index){
;
	lda     #$00
	sta     _index
	sta     _index+1
L3E79:	lda     _index+1
	cmp     #$00
	bne     L3E80
	lda     _index
	cmp     #$20
L3E80:	bcc     L40FB
;
; }
;
	rts
;
; if(obj_active[index]){
;
L40FB:	lda     #<(_obj_active)
	sta     ptr1
	lda     #>(_obj_active)
	clc
	adc     _index+1
	sta     ptr1+1
	ldy     _index
	lda     (ptr1),y
	jeq     L3E7B
;
; Generic2.width = PORTAL_WIDTH;
;
	lda     #$0F
	sta     _Generic2+2
;
; if(obj_type[index] & 0x30) Generic2.height = TRIGGER_HEIGHT;
;
	lda     #<(_obj_type)
	sta     ptr1
	lda     #>(_obj_type)
	clc
	adc     _index+1
	sta     ptr1+1
	ldy     _index
	lda     (ptr1),y
	and     #$30
	beq     L40E8
	lda     #$FF
;
; else Generic2.height = PORTAL_HEIGHT;
;
	jmp     L40E6
L40E8:	lda     #$2F
L40E6:	sta     _Generic2+3
;
; Generic2.x = obj_x[index];
;
	lda     #<(_obj_x)
	sta     ptr1
	lda     #>(_obj_x)
	clc
	adc     _index+1
	sta     ptr1+1
	ldy     _index
	lda     (ptr1),y
	sta     _Generic2
;
; Generic2.y = obj_y[index];
;
	lda     #<(_obj_y)
	sta     ptr1
	lda     #>(_obj_y)
	clc
	adc     _index+1
	sta     ptr1+1
	ldy     _index
	lda     (ptr1),y
	sta     _Generic2+1
;
; if(check_collision(&Generic, &Generic2)){
;
	lda     #<(_Generic)
	ldx     #>(_Generic)
	jsr     pushax
	lda     #<(_Generic2)
	ldx     #>(_Generic2)
	jsr     _check_collision
	tax
	jeq     L3E7B
;
; switch (obj_type[index]) {
;
	lda     #<(_obj_type)
	sta     ptr1
	lda     #>(_obj_type)
	clc
	adc     _index+1
	sta     ptr1+1
	ldy     _index
	lda     (ptr1),y
;
; }
;
	jeq     L40E9
	cmp     #$01
	jeq     L40EA
	cmp     #$02
	jeq     L40EB
	cmp     #$03
	jeq     L40EC
	cmp     #$10
	jeq     L3EB0
	cmp     #$11
	jeq     L3EBB
	cmp     #$12
	jeq     L3EC6
	cmp     #$13
	jeq     L3ED1
	cmp     #$14
	jeq     L3EDC
	cmp     #$15
	jeq     L3EE7
	cmp     #$16
	jeq     L3EF2
	cmp     #$17
	jeq     L3EFD
	cmp     #$18
	jeq     L3F08
	cmp     #$19
	jeq     L3F13
	cmp     #$1A
	jeq     L3F1E
	cmp     #$1B
	jeq     L3F29
	cmp     #$1C
	jeq     L3F34
	cmp     #$1F
	jeq     L3F3F
	cmp     #$20
	jeq     L3F4A
	cmp     #$21
	jeq     L3F55
	cmp     #$22
	jeq     L3F60
	cmp     #$23
	jeq     L3F6B
	cmp     #$24
	jeq     L3F76
	cmp     #$25
	jeq     L3F81
	cmp     #$26
	jeq     L3F8C
	cmp     #$27
	jeq     L3F97
	cmp     #$28
	jeq     L3FA2
	cmp     #$29
	jeq     L3FAD
	cmp     #$2A
	jeq     L3FB8
	cmp     #$2B
	jeq     L3FC3
	cmp     #$2C
	jeq     L3FCE
	cmp     #$30
	jeq     L3FD9
	cmp     #$31
	jeq     L3FE4
	cmp     #$32
	jeq     L3FEF
	cmp     #$33
	jeq     L3FFA
	cmp     #$34
	jeq     L4005
	cmp     #$35
	jeq     L4010
	cmp     #$36
	jeq     L401B
	cmp     #$37
	jeq     L4026
	cmp     #$38
	jeq     L4031
	cmp     #$39
	jeq     L403C
	cmp     #$3A
	jeq     L4047
	cmp     #$3B
	jeq     L4052
	cmp     #$3C
	jeq     L405D
	jmp     L3E7B
;
; gamemode = 0x01;
;
L40E9:	lda     #$01
	sta     _gamemode
;
; break;
;
	jmp     L3E7B
;
; gamemode = 0x02;
;
L40EA:	lda     #$02
	sta     _gamemode
;
; break;
;
	jmp     L3E7B
;
; gravity = 0x00;
;
L40EB:	lda     #$00
	sta     _gravity
;
; break;
;
	jmp     L3E7B
;
; gravity = 0x01;
;
L40EC:	lda     #$01
	sta     _gravity
;
; break;
;
	jmp     L3E7B
;
; pal_col(COL_BG, 0x06);
;
L3EB0:	lda     #$00
	jsr     pusha
	lda     #$06
	jsr     _pal_col
;
; pal_col(COL_BG_TILES, 0x0F);
;
	lda     #$01
	jsr     pusha
	lda     #$0F
;
; break;
;
	jmp     L40F6
;
; pal_col(COL_BG, 0x07);
;
L3EBB:	lda     #$00
	jsr     pusha
	lda     #$07
	jsr     _pal_col
;
; pal_col(COL_BG_TILES, 0x0F);
;
	lda     #$01
	jsr     pusha
	lda     #$0F
;
; break;
;
	jmp     L40F6
;
; pal_col(COL_BG, 0x08);
;
L3EC6:	lda     #$00
	jsr     pusha
	lda     #$08
	jsr     _pal_col
;
; pal_col(COL_BG_TILES, 0x0F);
;
	lda     #$01
	jsr     pusha
	lda     #$0F
;
; break;
;
	jmp     L40F6
;
; pal_col(COL_BG, 0x09);
;
L3ED1:	lda     #$00
	jsr     pusha
	lda     #$09
	jsr     _pal_col
;
; pal_col(COL_BG_TILES, 0x0F);
;
	lda     #$01
	jsr     pusha
	lda     #$0F
;
; break;
;
	jmp     L40F6
;
; pal_col(COL_BG, 0x0A);
;
L3EDC:	lda     #$00
	jsr     pusha
	lda     #$0A
	jsr     _pal_col
;
; pal_col(COL_BG_TILES, 0x0F);
;
	lda     #$01
	jsr     pusha
	lda     #$0F
;
; break;
;
	jmp     L40F6
;
; pal_col(COL_BG, 0x0B);
;
L3EE7:	lda     #$00
	jsr     pusha
	lda     #$0B
	jsr     _pal_col
;
; pal_col(COL_BG_TILES, 0x0F);
;
	lda     #$01
	jsr     pusha
	lda     #$0F
;
; break;
;
	jmp     L40F6
;
; pal_col(COL_BG, 0x0C);
;
L3EF2:	lda     #$00
	jsr     pusha
	lda     #$0C
	jsr     _pal_col
;
; pal_col(COL_BG_TILES, 0x0F);
;
	lda     #$01
	jsr     pusha
	lda     #$0F
;
; break;
;
	jmp     L40F6
;
; pal_col(COL_BG, 0x01);
;
L3EFD:	lda     #$00
	jsr     pusha
	lda     #$01
	jsr     _pal_col
;
; pal_col(COL_BG_TILES, 0x0F);
;
	lda     #$01
	jsr     pusha
	lda     #$0F
;
; break;
;
	jmp     L40F6
;
; pal_col(COL_BG, 0x02);
;
L3F08:	lda     #$00
	jsr     pusha
	lda     #$02
	jsr     _pal_col
;
; pal_col(COL_BG_TILES, 0x0F);
;
	lda     #$01
	jsr     pusha
	lda     #$0F
;
; break;
;
	jmp     L40F6
;
; pal_col(COL_BG, 0x03);
;
L3F13:	lda     #$00
	jsr     pusha
	lda     #$03
	jsr     _pal_col
;
; pal_col(COL_BG_TILES, 0x0F);
;
	lda     #$01
	jsr     pusha
	lda     #$0F
;
; break;
;
	jmp     L40F6
;
; pal_col(COL_BG, 0x04);
;
L3F1E:	lda     #$00
	jsr     pusha
	lda     #$04
	jsr     _pal_col
;
; pal_col(COL_BG_TILES, 0x0F);
;
	lda     #$01
	jsr     pusha
	lda     #$0F
;
; break;
;
	jmp     L40F6
;
; pal_col(COL_BG, 0x05);
;
L3F29:	lda     #$00
	jsr     pusha
	lda     #$05
	jsr     _pal_col
;
; pal_col(COL_BG_TILES, 0x0F);
;
	lda     #$01
	jsr     pusha
	lda     #$0F
;
; break;
;
	jmp     L40F6
;
; pal_col(COL_BG, 0x00);
;
L3F34:	lda     #$00
	jsr     pusha
	jsr     _pal_col
;
; pal_col(COL_BG_TILES, 0x0F);
;
	lda     #$01
	jsr     pusha
	lda     #$0F
;
; break;
;
	jmp     L40F6
;
; pal_col(COL_BG, 0x0F);
;
L3F3F:	lda     #$00
	jsr     pusha
	lda     #$0F
	jsr     _pal_col
;
; pal_col(COL_BG_TILES, 0x0F);
;
	lda     #$01
	jsr     pusha
	lda     #$0F
;
; break;
;
	jmp     L40F6
;
; pal_col(COL_BG, 0x16);
;
L3F4A:	lda     #$00
	jsr     pusha
	lda     #$16
	jsr     _pal_col
;
; pal_col(COL_BG_TILES, 0x06);
;
	lda     #$01
	jsr     pusha
	lda     #$06
;
; break;
;
	jmp     L40F6
;
; pal_col(COL_BG, 0x17);
;
L3F55:	lda     #$00
	jsr     pusha
	lda     #$17
	jsr     _pal_col
;
; pal_col(COL_BG_TILES, 0x07);
;
	lda     #$01
	jsr     pusha
	lda     #$07
;
; break;
;
	jmp     L40F6
;
; pal_col(COL_BG, 0x18);
;
L3F60:	lda     #$00
	jsr     pusha
	lda     #$18
	jsr     _pal_col
;
; pal_col(COL_BG_TILES, 0x08);
;
	lda     #$01
	jsr     pusha
	lda     #$08
;
; break;
;
	jmp     L40F6
;
; pal_col(COL_BG, 0x19);
;
L3F6B:	lda     #$00
	jsr     pusha
	lda     #$19
	jsr     _pal_col
;
; pal_col(COL_BG_TILES, 0x09);
;
	lda     #$01
	jsr     pusha
	lda     #$09
;
; break;
;
	jmp     L40F6
;
; pal_col(COL_BG, 0x1A);
;
L3F76:	lda     #$00
	jsr     pusha
	lda     #$1A
	jsr     _pal_col
;
; pal_col(COL_BG_TILES, 0x0A);
;
	lda     #$01
	jsr     pusha
	lda     #$0A
;
; break;
;
	jmp     L40F6
;
; pal_col(COL_BG, 0x1B);
;
L3F81:	lda     #$00
	jsr     pusha
	lda     #$1B
	jsr     _pal_col
;
; pal_col(COL_BG_TILES, 0x0B);
;
	lda     #$01
	jsr     pusha
	lda     #$0B
;
; break;
;
	jmp     L40F6
;
; pal_col(COL_BG, 0x1C);
;
L3F8C:	lda     #$00
	jsr     pusha
	lda     #$1C
	jsr     _pal_col
;
; pal_col(COL_BG_TILES, 0x0C);
;
	lda     #$01
	jsr     pusha
	lda     #$0C
;
; break;
;
	jmp     L40F6
;
; pal_col(COL_BG, 0x11);
;
L3F97:	lda     #$00
	jsr     pusha
	lda     #$11
	jsr     _pal_col
;
; pal_col(COL_BG_TILES, 0x01);
;
	lda     #$01
	jsr     pusha
;
; break;
;
	jmp     L40F6
;
; pal_col(COL_BG, 0x12);
;
L3FA2:	lda     #$00
	jsr     pusha
	lda     #$12
	jsr     _pal_col
;
; pal_col(COL_BG_TILES, 0x02);
;
	lda     #$01
	jsr     pusha
	lda     #$02
;
; break;
;
	jmp     L40F6
;
; pal_col(COL_BG, 0x13);
;
L3FAD:	lda     #$00
	jsr     pusha
	lda     #$13
	jsr     _pal_col
;
; pal_col(COL_BG_TILES, 0x03);
;
	lda     #$01
	jsr     pusha
	lda     #$03
;
; break;
;
	jmp     L40F6
;
; pal_col(COL_BG, 0x14);
;
L3FB8:	lda     #$00
	jsr     pusha
	lda     #$14
	jsr     _pal_col
;
; pal_col(COL_BG_TILES, 0x04);
;
	lda     #$01
	jsr     pusha
	lda     #$04
;
; break;
;
	jmp     L40F6
;
; pal_col(COL_BG, 0x15);
;
L3FC3:	lda     #$00
	jsr     pusha
	lda     #$15
	jsr     _pal_col
;
; pal_col(COL_BG_TILES, 0x05);
;
	lda     #$01
	jsr     pusha
	lda     #$05
;
; break;
;
	jmp     L40F6
;
; pal_col(COL_BG, 0x10);
;
L3FCE:	lda     #$00
	jsr     pusha
	lda     #$10
;
; break;
;
	jmp     L40FA
;
; pal_col(COL_BG, 0x26);
;
L3FD9:	lda     #$00
	jsr     pusha
	lda     #$26
	jsr     _pal_col
;
; pal_col(COL_BG_TILES, 0x06);
;
	lda     #$01
	jsr     pusha
	lda     #$06
;
; break;
;
	jmp     L40F6
;
; pal_col(COL_BG, 0x27);
;
L3FE4:	lda     #$00
	jsr     pusha
	lda     #$27
	jsr     _pal_col
;
; pal_col(COL_BG_TILES, 0x07);
;
	lda     #$01
	jsr     pusha
	lda     #$07
;
; break;
;
	jmp     L40F6
;
; pal_col(COL_BG, 0x28);
;
L3FEF:	lda     #$00
	jsr     pusha
	lda     #$28
	jsr     _pal_col
;
; pal_col(COL_BG_TILES, 0x08);
;
	lda     #$01
	jsr     pusha
	lda     #$08
;
; break;
;
	jmp     L40F6
;
; pal_col(COL_BG, 0x29);
;
L3FFA:	lda     #$00
	jsr     pusha
	lda     #$29
	jsr     _pal_col
;
; pal_col(COL_BG_TILES, 0x09);
;
	lda     #$01
	jsr     pusha
	lda     #$09
;
; break;
;
	jmp     L40F6
;
; pal_col(COL_BG, 0x2A);
;
L4005:	lda     #$00
	jsr     pusha
	lda     #$2A
	jsr     _pal_col
;
; pal_col(COL_BG_TILES, 0x0A);
;
	lda     #$01
	jsr     pusha
	lda     #$0A
;
; break;
;
	jmp     L40F6
;
; pal_col(COL_BG, 0x2B);
;
L4010:	lda     #$00
	jsr     pusha
	lda     #$2B
	jsr     _pal_col
;
; pal_col(COL_BG_TILES, 0x0B);
;
	lda     #$01
	jsr     pusha
	lda     #$0B
;
; break;
;
	jmp     L40F6
;
; pal_col(COL_BG, 0x2C);
;
L401B:	lda     #$00
	jsr     pusha
	lda     #$2C
	jsr     _pal_col
;
; pal_col(COL_BG_TILES, 0x0C);
;
	lda     #$01
	jsr     pusha
	lda     #$0C
;
; break;
;
	jmp     L40F6
;
; pal_col(COL_BG, 0x21);
;
L4026:	lda     #$00
	jsr     pusha
	lda     #$21
	jsr     _pal_col
;
; pal_col(COL_BG_TILES, 0x01);
;
	lda     #$01
	jsr     pusha
;
; break;
;
	jmp     L40F6
;
; pal_col(COL_BG, 0x22);
;
L4031:	lda     #$00
	jsr     pusha
	lda     #$22
	jsr     _pal_col
;
; pal_col(COL_BG_TILES, 0x02);
;
	lda     #$01
	jsr     pusha
	lda     #$02
;
; break;
;
	jmp     L40F6
;
; pal_col(COL_BG, 0x23);
;
L403C:	lda     #$00
	jsr     pusha
	lda     #$23
	jsr     _pal_col
;
; pal_col(COL_BG_TILES, 0x03);
;
	lda     #$01
	jsr     pusha
	lda     #$03
;
; break;
;
	jmp     L40F6
;
; pal_col(COL_BG, 0x24);
;
L4047:	lda     #$00
	jsr     pusha
	lda     #$24
	jsr     _pal_col
;
; pal_col(COL_BG_TILES, 0x04);
;
	lda     #$01
	jsr     pusha
	lda     #$04
;
; break;
;
	jmp     L40F6
;
; pal_col(COL_BG, 0x25);
;
L4052:	lda     #$00
	jsr     pusha
	lda     #$25
	jsr     _pal_col
;
; pal_col(COL_BG_TILES, 0x05);
;
	lda     #$01
	jsr     pusha
	lda     #$05
;
; break;
;
	jmp     L40F6
;
; pal_col(COL_BG, 0x30);
;
L405D:	lda     #$00
	jsr     pusha
	lda     #$30
L40FA:	jsr     _pal_col
;
; pal_col(COL_BG_TILES, 0x00);
;
	lda     #$01
	jsr     pusha
	lda     #$00
L40F6:	jsr     _pal_col
;
; obj_y[index] = TURN_OFF;
;
	lda     #<(_obj_y)
	clc
	adc     _index
	sta     ptr1
	lda     #>(_obj_y)
	adc     _index+1
	sta     ptr1+1
	lda     #$FF
	ldy     #$00
	sta     (ptr1),y
;
; for(index = 0; index < MAX_OBJ; ++index){
;
L3E7B:	inc     _index
	jne     L3E79
	inc     _index+1
	jmp     L3E79

.endproc

; ---------------------------------------------------------------
; void __near__ check_spr_objects (void)
; ---------------------------------------------------------------

.segment	"CODE"

.proc	_check_spr_objects: near

.segment	"CODE"

;
; Generic2.x = high_byte(Cube.x);
;
	lda     _Cube+1
	sta     _Generic2
;
; for(index = 0; index < MAX_OBJ; ++index){
;
	lda     #$00
	sta     _index
	sta     _index+1
L3E46:	lda     _index+1
	cmp     #$00
	bne     L3E4D
	lda     _index
	cmp     #$20
L3E4D:	bcc     L40FC
;
; }
;
	rts
;
; obj_active[index] = 0; //default to zero
;
L40FC:	lda     #<(_obj_active)
	clc
	adc     _index
	sta     ptr1
	lda     #>(_obj_active)
	adc     _index+1
	sta     ptr1+1
	lda     #$00
	tay
	sta     (ptr1),y
;
; if(obj_y[index] != TURN_OFF){
;
	lda     #<(_obj_y)
	sta     ptr1
	lda     #>(_obj_y)
	clc
	adc     _index+1
	sta     ptr1+1
	ldy     _index
	lda     (ptr1),y
	cmp     #$FF
	beq     L3E48
;
; high_byte(temp5) = obj_room[index];
;
	lda     #<(_obj_room)
	sta     ptr1
	lda     #>(_obj_room)
	clc
	adc     _index+1
	sta     ptr1+1
	ldy     _index
	lda     (ptr1),y
	sta     _temp5+1
;
; low_byte(temp5) = obj_actual_x[index];
;
	lda     #<(_obj_actual_x)
	sta     ptr1
	lda     #>(_obj_actual_x)
	clc
	adc     _index+1
	sta     ptr1+1
	ldy     _index
	lda     (ptr1),y
	sta     _temp5
;
; obj_active[index] = get_position();
;
	lda     #<(_obj_active)
	clc
	adc     _index
	tay
	lda     #>(_obj_active)
	adc     _index+1
	tax
	tya
	jsr     pushax
	jsr     _get_position
	ldy     #$00
	jsr     staspidx
;
; obj_x[index] = temp_x; // screen x coords
;
	lda     #<(_obj_x)
	clc
	adc     _index
	sta     ptr1
	lda     #>(_obj_x)
	adc     _index+1
	sta     ptr1+1
	lda     _temp_x
	ldy     #$00
	sta     (ptr1),y
;
; for(index = 0; index < MAX_OBJ; ++index){
;
L3E48:	inc     _index
	jne     L3E46
	inc     _index+1
	jmp     L3E46

.endproc

; ---------------------------------------------------------------
; unsigned char __near__ bg_collision_sub (void)
; ---------------------------------------------------------------

.segment	"CODE"

.proc	_bg_collision_sub: near

.segment	"CODE"

;
; if(temp_y >= 0xf0) return 0;
;
	lda     _temp_y
	cmp     #$F0
	ldx     #$00
	bcc     L40FE
	txa
	rts
;
; coordinates = (temp_x >> 4) + (temp_y & 0xf0);
;
L40FE:	lda     _temp_x
	lsr     a
	lsr     a
	lsr     a
	lsr     a
	sta     ptr1
	lda     _temp_y
	and     #$F0
	clc
	adc     ptr1
	sta     _coordinates
;
; map = temp_room&1; // high byte
;
	lda     _temp_room
	and     #$01
	sta     _map
;
; if(!map){
;
	lda     _map
	bne     L3AEA
;
; collision = c_map[coordinates];
;
	ldy     _coordinates
	lda     _c_map,y
;
; else{
;
	jmp     L40FD
;
; collision = c_map2[coordinates];
;
L3AEA:	ldy     _coordinates
	lda     _c_map2,y
L40FD:	sta     _collision
;
; return is_solid[collision];
;
	ldy     _collision
	lda     _is_solid,y
;
; }
;
	rts

.endproc

; ---------------------------------------------------------------
; unsigned char __near__ bg_coll_L (void)
; ---------------------------------------------------------------

.segment	"CODE"

.proc	_bg_coll_L: near

.segment	"CODE"

;
; temp5 = Generic.x + scroll_x;
;
	lda     _Generic
	clc
	adc     _scroll_x
	sta     _temp5
	lda     #$00
	adc     _scroll_x+1
	sta     _temp5+1
;
; temp_x = (char)temp5; // low byte
;
	lda     _temp5
	sta     _temp_x
;
; temp_room = temp5 >> 8; // high byte
;
	lda     _temp5+1
	sta     _temp_room
;
; eject_L = temp_x | 0xf0;
;
	lda     _temp_x
	ora     #$F0
	sta     _eject_L
;
; temp_y = Generic.y + 2;
;
	lda     _Generic+1
	clc
	adc     #$02
	sta     _temp_y
;
; if(bg_collision_sub() & COL_ALL) return 1;
;
	jsr     _bg_collision_sub
	and     #$40
	beq     L4101
	ldx     #$00
	lda     #$01
	rts
;
; temp_y = Generic.y + Generic.height;
;
L4101:	lda     _Generic+1
	clc
	adc     _Generic+3
	sta     _temp_y
;
; temp_y -= 2;
;
	sec
	sbc     #$02
	sta     _temp_y
;
; if(bg_collision_sub() & COL_ALL) return 1;
;
	jsr     _bg_collision_sub
	ldx     #$00
	and     #$40
	beq     L4103
	lda     #$01
	rts
;
; }
;
L4103:	rts

.endproc

; ---------------------------------------------------------------
; unsigned char __near__ bg_coll_R (void)
; ---------------------------------------------------------------

.segment	"CODE"

.proc	_bg_coll_R: near

.segment	"CODE"

;
; temp5 = Generic.x + scroll_x + Generic.width;
;
	lda     _Generic
	clc
	adc     _scroll_x
	pha
	lda     #$00
	adc     _scroll_x+1
	tax
	pla
	clc
	adc     _Generic+2
	bcc     L4104
	inx
L4104:	sta     _temp5
	stx     _temp5+1
;
; temp_x = (char)temp5; // low byte
;
	lda     _temp5
	sta     _temp_x
;
; temp_room = temp5 >> 8; // high byte
;
	lda     _temp5+1
	sta     _temp_room
;
; temp_y = Generic.y + (Generic.height>>1);  // this checks for a thing called *middle point collision* 
;
	lda     _Generic+3
	lsr     a
	clc
	adc     _Generic+1
	sta     _temp_y
;
; if(bg_collision_sub() & COL_ALL) {cube_data = 0x01;}
;
	jsr     _bg_collision_sub
	ldx     #$00
	and     #$40
	beq     L4107
	lda     #$01
	sta     _cube_data
;
; return 0;
;
	txa
;
; }
;
L4107:	rts

.endproc

; ---------------------------------------------------------------
; unsigned char __near__ bg_coll_U (void)
; ---------------------------------------------------------------

.segment	"CODE"

.proc	_bg_coll_U: near

.segment	"CODE"

;
; temp5 = Generic.x + scroll_x;
;
	lda     _Generic
	clc
	adc     _scroll_x
	sta     _temp5
	lda     #$00
	adc     _scroll_x+1
	sta     _temp5+1
;
; temp5 += 2;
;
	lda     #$02
	clc
	adc     _temp5
	sta     _temp5
	bcc     L3A63
	inc     _temp5+1
;
; temp_x = (char)temp5; // low byte
;
L3A63:	lda     _temp5
	sta     _temp_x
;
; temp_room = temp5 >> 8; // high byte
;
	lda     _temp5+1
	sta     _temp_room
;
; temp_y = Generic.y;
;
	lda     _Generic+1
	sta     _temp_y
;
; eject_U = temp_y | 0xf0;
;
	ora     #$F0
	sta     _eject_U
;
; if(bg_collision_sub() & COL_ALL) return 1;
;
	jsr     _bg_collision_sub
	and     #$40
	beq     L4109
	ldx     #$00
	lda     #$01
	rts
;
; temp5 = Generic.x + scroll_x + Generic.width;
;
L4109:	lda     _Generic
	clc
	adc     _scroll_x
	pha
	lda     #$00
	adc     _scroll_x+1
	tax
	pla
	clc
	adc     _Generic+2
	bcc     L4108
	inx
L4108:	sta     _temp5
	stx     _temp5+1
;
; temp5 -= 2;
;
	lda     _temp5
	sec
	sbc     #$02
	sta     _temp5
	bcs     L3A73
	dec     _temp5+1
;
; temp_x = (char)temp5; // low byte
;
L3A73:	lda     _temp5
	sta     _temp_x
;
; temp_room = temp5 >> 8; // high byte
;
	lda     _temp5+1
	sta     _temp_room
;
; if(bg_collision_sub() & COL_ALL) return 1;
;
	jsr     _bg_collision_sub
	ldx     #$00
	and     #$40
	beq     L410B
	lda     #$01
	rts
;
; }
;
L410B:	rts

.endproc

; ---------------------------------------------------------------
; unsigned char __near__ bg_coll_D (void)
; ---------------------------------------------------------------

.segment	"CODE"

.proc	_bg_coll_D: near

.segment	"CODE"

;
; temp5 = Generic.x + scroll_x;
;
	lda     _Generic
	clc
	adc     _scroll_x
	sta     _temp5
	lda     #$00
	adc     _scroll_x+1
	sta     _temp5+1
;
; temp5 += 2;
;
	lda     #$02
	clc
	adc     _temp5
	sta     _temp5
	bcc     L3A81
	inc     _temp5+1
;
; temp_x = (char)temp5; // low byte
;
L3A81:	lda     _temp5
	sta     _temp_x
;
; temp_room = temp5 >> 8; // high byte
;
	lda     _temp5+1
	sta     _temp_room
;
; temp_y = Generic.y + Generic.height;
;
	lda     _Generic+1
	clc
	adc     _Generic+3
	sta     _temp_y
;
; eject_D = (temp_y + 1) & 0x0f;
;
	clc
	adc     #$01
	and     #$0F
	sta     _eject_D
;
; if(bg_collision_sub() & COL_ALL) return 1;
;
	jsr     _bg_collision_sub
	and     #$40
	beq     L410E
	ldx     #$00
	lda     #$01
	rts
;
; temp5 = Generic.x + scroll_x + Generic.width;
;
L410E:	lda     _Generic
	clc
	adc     _scroll_x
	pha
	lda     #$00
	adc     _scroll_x+1
	tax
	pla
	clc
	adc     _Generic+2
	bcc     L410D
	inx
L410D:	sta     _temp5
	stx     _temp5+1
;
; temp5 -= 2;
;
	lda     _temp5
	sec
	sbc     #$02
	sta     _temp5
	bcs     L3A93
	dec     _temp5+1
;
; temp_x = (char)temp5; // low byte
;
L3A93:	lda     _temp5
	sta     _temp_x
;
; temp_room = temp5 >> 8; // high byte
;
	lda     _temp5+1
	sta     _temp_room
;
; if(bg_collision_sub() & COL_ALL) return 1; 
;
	jsr     _bg_collision_sub
	ldx     #$00
	and     #$40
	beq     L4110
	lda     #$01
	rts
;
; }
;
L4110:	rts

.endproc

; ---------------------------------------------------------------
; unsigned char __near__ bg_coll_D2 (void)
; ---------------------------------------------------------------

.segment	"CODE"

.proc	_bg_coll_D2: near

.segment	"CODE"

;
; temp5 = Generic.x + scroll_x;
;
	lda     _Generic
	clc
	adc     _scroll_x
	sta     _temp5
	lda     #$00
	adc     _scroll_x+1
	sta     _temp5+1
;
; temp5 += 2;
;
	lda     #$02
	clc
	adc     _temp5
	sta     _temp5
	bcc     L3AA1
	inc     _temp5+1
;
; temp_x = (char)temp5; // low byte
;
L3AA1:	lda     _temp5
	sta     _temp_x
;
; temp_room = temp5 >> 8; // high byte
;
	lda     _temp5+1
	sta     _temp_room
;
; temp_y = Generic.y + Generic.height;
;
	lda     _Generic+1
	clc
	adc     _Generic+3
	sta     _temp_y
;
; temp_y += 2;
;
	lda     #$02
	clc
	adc     _temp_y
	sta     _temp_y
;
; if(bg_collision_sub() & COL_ALL) {cube_rotate = 0x0080; return 1;}
;
	jsr     _bg_collision_sub
	and     #$40
	beq     L4113
	ldx     #$00
	lda     #$80
	sta     _cube_rotate
	stx     _cube_rotate+1
	lda     #$01
	rts
;
; temp5 = Generic.x + scroll_x + Generic.width;
;
L4113:	lda     _Generic
	clc
	adc     _scroll_x
	pha
	lda     #$00
	adc     _scroll_x+1
	tax
	pla
	clc
	adc     _Generic+2
	bcc     L4112
	inx
L4112:	sta     _temp5
	stx     _temp5+1
;
; temp5 -= 2;
;
	lda     _temp5
	sec
	sbc     #$02
	sta     _temp5
	bcs     L3AB3
	dec     _temp5+1
;
; temp_x = (char)temp5; // low byte
;
L3AB3:	lda     _temp5
	sta     _temp_x
;
; temp_room = temp5 >> 8; // high byte
;
	lda     _temp5+1
	sta     _temp_room
;
; if(bg_collision_sub() & COL_ALL) {cube_rotate = 0x0080; return 1;}
;
	jsr     _bg_collision_sub
	ldx     #$00
	and     #$40
	beq     L4115
	lda     #$80
	sta     _cube_rotate
	stx     _cube_rotate+1
	lda     #$01
	rts
;
; }
;
L4115:	rts

.endproc

; ---------------------------------------------------------------
; unsigned char __near__ bg_coll_death (void)
; ---------------------------------------------------------------

.segment	"CODE"

.proc	_bg_coll_death: near

.segment	"CODE"

;
; temp5 = Generic.x + scroll_x + (Generic.width >> 1);
;
	lda     _Generic
	clc
	adc     _scroll_x
	sta     ptr1
	lda     #$00
	adc     _scroll_x+1
	sta     ptr1+1
	lda     _Generic+2
	lsr     a
	clc
	adc     ptr1
	sta     _temp5
	lda     #$00
	adc     ptr1+1
	sta     _temp5+1
;
; temp_x = (char)temp5; // low byte
;
	lda     _temp5
	sta     _temp_x
;
; temp_room = temp5 >> 8; // high byte
;
	lda     _temp5+1
	sta     _temp_room
;
; temp_y = Generic.y + (Generic.height>> 1);
;
	lda     _Generic+3
	lsr     a
	clc
	adc     _Generic+1
	sta     _temp_y
;
; if(bg_collision_sub() & COL_DEATH) cube_data = 0x01;
;
	jsr     _bg_collision_sub
	and     #$80
	beq     L4117
	lda     #$01
	sta     _cube_data
;
; if(cube_data & 0x01) { reset_level(); sfx_play(SFX_DEATH, 0);}
;
L4117:	lda     _cube_data
	ldx     #$00
	and     #$01
	beq     L3DCD
	jsr     _reset_level
	lda     #$00
	jsr     pusha
	jmp     _sfx_play
;
; }
;
L3DCD:	rts

.endproc

; ---------------------------------------------------------------
; unsigned char __near__ bg_coll_orbs (void)
; ---------------------------------------------------------------

.segment	"CODE"

.proc	_bg_coll_orbs: near

.segment	"CODE"

;
; if (cube_data & CUBE_ORBJUMP && pad1 & PAD_A) {
;
	lda     _cube_data
	and     #$02
	jeq     L4123
	lda     _pad1
	and     #$80
	jeq     L4123
;
; temp5 = Generic.x + scroll_x;
;
	lda     _Generic
	clc
	adc     _scroll_x
	sta     _temp5
	lda     #$00
	adc     _scroll_x+1
	sta     _temp5+1
;
; temp_x = (char)temp5; // low byte
;
	lda     _temp5
	sta     _temp_x
;
; temp_room = temp5 >> 8; // high byte
;
	lda     _temp5+1
	sta     _temp_room
;
; temp_y = Generic.y;
;
	lda     _Generic+1
	sta     _temp_y
;
; if(bg_collision_sub() & COL_YEL_ORB) return 1;
;
	jsr     _bg_collision_sub
	and     #$20
	beq     L411E
	ldx     #$00
	lda     #$01
	rts
;
; temp5 = Generic.x + scroll_x + Generic.width;
;
L411E:	lda     _Generic
	clc
	adc     _scroll_x
	pha
	lda     #$00
	adc     _scroll_x+1
	tax
	pla
	clc
	adc     _Generic+2
	bcc     L4118
	inx
L4118:	sta     _temp5
	stx     _temp5+1
;
; temp_x = (char)temp5; // low byte
;
	lda     _temp5
	sta     _temp_x
;
; temp_room = temp5 >> 8; // high byte
;
	lda     _temp5+1
	sta     _temp_room
;
; if(bg_collision_sub() & COL_YEL_ORB) return 1;
;
	jsr     _bg_collision_sub
	and     #$20
	beq     L411F
	ldx     #$00
	lda     #$01
	rts
;
; temp5 = Generic.x + scroll_x;
;
L411F:	lda     _Generic
	clc
	adc     _scroll_x
	sta     _temp5
	lda     #$00
	adc     _scroll_x+1
	sta     _temp5+1
;
; temp_x = (char)temp5; // low byte
;
	lda     _temp5
	sta     _temp_x
;
; temp_room = temp5 >> 8; // high byte
;
	lda     _temp5+1
	sta     _temp_room
;
; temp_y = Generic.y + Generic.height;
;
	lda     _Generic+1
	clc
	adc     _Generic+3
	sta     _temp_y
;
; if(bg_collision_sub() & COL_YEL_ORB) return 1;
;
	jsr     _bg_collision_sub
	and     #$20
	beq     L4120
	ldx     #$00
	lda     #$01
	rts
;
; temp5 = Generic.x + scroll_x + Generic.width;
;
L4120:	lda     _Generic
	clc
	adc     _scroll_x
	pha
	lda     #$00
	adc     _scroll_x+1
	tax
	pla
	clc
	adc     _Generic+2
	bcc     L411A
	inx
L411A:	sta     _temp5
	stx     _temp5+1
;
; temp_x = (char)temp5; // low byte
;
	lda     _temp5
	sta     _temp_x
;
; temp_room = temp5 >> 8; // high byte
;
	lda     _temp5+1
	sta     _temp_room
;
; if(bg_collision_sub() & COL_YEL_ORB) return 1;
;
	jsr     _bg_collision_sub
	ldx     #$00
	and     #$20
	beq     L4122
	lda     #$01
	rts
;
; return 0;
;
L4122:	rts
;
; if (pad1_new & PAD_A) cube_data = CUBE_ORBJUMP;
;
L4123:	lda     _pad1_new
	ldx     #$00
	and     #$80
	beq     L3E01
	lda     #$02
	sta     _cube_data
;
; }
;
L3E01:	rts

.endproc

; ---------------------------------------------------------------
; unsigned char __near__ bg_coll_pads (void)
; ---------------------------------------------------------------

.segment	"CODE"

.proc	_bg_coll_pads: near

.segment	"CODE"

;
; temp5 = Generic.x + scroll_x;
;
	lda     _Generic
	clc
	adc     _scroll_x
	sta     _temp5
	lda     #$00
	adc     _scroll_x+1
	sta     _temp5+1
;
; ++temp5; ++temp5;
;
	inc     _temp5
	bne     L3E18
	inc     _temp5+1
L3E18:	inc     _temp5
	bne     L3E1A
	inc     _temp5+1
;
; temp_x = (char)temp5; // low byte
;
L3E1A:	lda     _temp5
	sta     _temp_x
;
; temp_room = temp5 >> 8; // high byte
;
	lda     _temp5+1
	sta     _temp_room
;
; temp_y = Generic.y + (Generic.height>>1);
;
	lda     _Generic+3
	lsr     a
	clc
	adc     _Generic+1
	sta     _temp_y
;
; if(bg_collision_sub() & COL_YEL_PAD) return 1;
;
	jsr     _bg_collision_sub
	and     #$10
	beq     L4127
	ldx     #$00
	lda     #$01
	rts
;
; temp5 = Generic.x + scroll_x + Generic.width;
;
L4127:	lda     _Generic
	clc
	adc     _scroll_x
	pha
	lda     #$00
	adc     _scroll_x+1
	tax
	pla
	clc
	adc     _Generic+2
	bcc     L4124
	inx
L4124:	sta     _temp5
	stx     _temp5+1
;
; --temp5; --temp5;
;
	lda     _temp5
	sec
	sbc     #$01
	sta     _temp5
	bcs     L3E28
	dec     _temp5+1
L3E28:	lda     _temp5
	sec
	sbc     #$01
	sta     _temp5
	bcs     L3E2A
	dec     _temp5+1
;
; temp_x = (char)temp5; // low byte
;
L3E2A:	lda     _temp5
	sta     _temp_x
;
; temp_room = temp5 >> 8; // high byte
;
	lda     _temp5+1
	sta     _temp_room
;
; temp_y = Generic.y + (Generic.height>>1);
;
	lda     _Generic+3
	lsr     a
	clc
	adc     _Generic+1
	sta     _temp_y
;
; if(bg_collision_sub() & COL_YEL_PAD) return 1;
;
	jsr     _bg_collision_sub
	ldx     #$00
	and     #$10
	beq     L4129
	lda     #$01
	rts
;
; }
;
L4129:	rts

.endproc

; ---------------------------------------------------------------
; unsigned char __near__ get_position (void)
; ---------------------------------------------------------------

.segment	"CODE"

.proc	_get_position: near

.segment	"CODE"

;
; temp5 -= scroll_x;
;
	lda     _scroll_x
	eor     #$FF
	sec
	adc     _temp5
	sta     _temp5
	lda     _scroll_x+1
	eor     #$FF
	adc     _temp5+1
	sta     _temp5+1
;
; temp_x = temp5 & 0xff;
;
	lda     _temp5
	ldx     #$00
	sta     _temp_x
;
; if(high_byte(temp5)) return 0;
;
	lda     _temp5+1
	beq     L412A
	txa
	rts
;
; return 1;
;
L412A:	lda     #$01
;
; }
;
	rts

.endproc

; ---------------------------------------------------------------
; unsigned char __near__ bg_coll_U2 (void)
; ---------------------------------------------------------------

.segment	"CODE"

.proc	_bg_coll_U2: near

.segment	"CODE"

;
; temp5 = Generic.x + scroll_x;
;
	lda     _Generic
	clc
	adc     _scroll_x
	sta     _temp5
	lda     #$00
	adc     _scroll_x+1
	sta     _temp5+1
;
; temp5 += 2;
;
	lda     #$02
	clc
	adc     _temp5
	sta     _temp5
	bcc     L3AC3
	inc     _temp5+1
;
; temp_x = (char)temp5; // low byte
;
L3AC3:	lda     _temp5
	sta     _temp_x
;
; temp_room = temp5 >> 8; // high byte
;
	lda     _temp5+1
	sta     _temp_room
;
; temp_y = Generic.y;
;
	lda     _Generic+1
	sta     _temp_y
;
; temp_y -= 2;
;
	sec
	sbc     #$02
	sta     _temp_y
;
; if(bg_collision_sub() & COL_ALL) {cube_rotate = 0x0080; return 1;}
;
	jsr     _bg_collision_sub
	and     #$40
	beq     L412C
	ldx     #$00
	lda     #$80
	sta     _cube_rotate
	stx     _cube_rotate+1
	lda     #$01
	rts
;
; temp5 = Generic.x + scroll_x + Generic.width;
;
L412C:	lda     _Generic
	clc
	adc     _scroll_x
	pha
	lda     #$00
	adc     _scroll_x+1
	tax
	pla
	clc
	adc     _Generic+2
	bcc     L412B
	inx
L412B:	sta     _temp5
	stx     _temp5+1
;
; temp5 -= 2;
;
	lda     _temp5
	sec
	sbc     #$02
	sta     _temp5
	bcs     L3AD5
	dec     _temp5+1
;
; temp_x = (char)temp5; // low byte
;
L3AD5:	lda     _temp5
	sta     _temp_x
;
; temp_room = temp5 >> 8; // high byte
;
	lda     _temp5+1
	sta     _temp_room
;
; if(bg_collision_sub() & COL_ALL) {cube_rotate = 0x0080; return 1;}
;
	jsr     _bg_collision_sub
	ldx     #$00
	and     #$40
	beq     L412E
	lda     #$80
	sta     _cube_rotate
	stx     _cube_rotate+1
	lda     #$01
	rts
;
; }
;
L412E:	rts

.endproc

; ---------------------------------------------------------------
; void __near__ ship_movement (void)
; ---------------------------------------------------------------

.segment	"CODE"

.proc	_ship_movement: near

.segment	"CODE"

;
; old_x = Cube.x;
;
	lda     _Cube+1
	sta     _old_x+1
	lda     _Cube
	sta     _old_x
;
; Cube.vel_x = CUBE_SPEED;
;
	ldx     #$02
	lda     #$C4
	sta     _Cube+4
	stx     _Cube+4+1
;
; Cube.x += Cube.vel_x;
;
	clc
	adc     _Cube
	sta     _Cube
	txa
	adc     _Cube+1
	sta     _Cube+1
;
; if(Cube.x > 0xf000) { // too far, don't wrap around
;
	lda     _Cube
	cmp     #$01
	lda     _Cube+1
	sbc     #$F0
	bcc     L4137
;
; if(old_x >= 0xf000){
;
	lda     _old_x
	cmp     #$00
	lda     _old_x+1
	sbc     #$F0
	lda     #$00
	tax
	bcc     L4136
;
; Cube.x = 0xf000; // max right
;
	ldx     #$F0
;
; Cube.x = 0x0000; // max left
;
L4136:	sta     _Cube
	stx     _Cube+1
;
; Cube.vel_x = 0;
;
	sta     _Cube+4
	sta     _Cube+4+1
;
; Generic.x = high_byte(Cube.x); // this is much faster than passing a pointer to Cube
;
L4137:	lda     _Cube+1
	sta     _Generic
;
; Generic.y = high_byte(Cube.y);
;
	lda     _Cube+3
	sta     _Generic+1
;
; Generic.width = CUBE_WIDTH;
;
	lda     #$0F
	sta     _Generic+2
;
; Generic.height = CUBE_HEIGHT;
;
	sta     _Generic+3
;
; if(Cube.vel_x < 0){
;
	ldx     _Cube+4+1
	cpx     #$80
	bcc     L3BBE
;
; if(bg_coll_L() ){ // check collision left
;
	jsr     _bg_coll_L
	tax
	beq     L3BD8
;
; high_byte(Cube.x) = high_byte(Cube.x) - eject_L;
;
	lda     _Cube+1
	sec
	sbc     _eject_L
	sta     _Cube+1
;
; Cube.vel_x = 0;
;
	lda     #$00
	sta     _Cube+4
	sta     _Cube+4+1
;
; if(Cube.x > 0xf000) {
;
	lda     _Cube
	cmp     #$01
	lda     _Cube+1
	sbc     #$F0
	bcc     L3BD8
;
; Cube.x = 0xf000;
;
	ldx     #$F0
;
; else if(Cube.vel_x > 0){
;
	jmp     L4143
L3BBE:	lda     _Cube+4
	cmp     #$01
	lda     _Cube+4+1
	sbc     #$00
	bvs     L3BCF
	eor     #$80
L3BCF:	bpl     L3BD8
;
; if(bg_coll_R() ){ // check collision right
;
	jsr     _bg_coll_R
	tax
	beq     L3BD8
;
; high_byte(Cube.x) = high_byte(Cube.x) - eject_R;
;
	lda     _Cube+1
	sec
	sbc     _eject_R
	sta     _Cube+1
;
; Cube.vel_x = 0;
;
	lda     #$00
	sta     _Cube+4
	sta     _Cube+4+1
;
; if(Cube.x > 0xf000) {
;
	lda     _Cube
	cmp     #$01
	lda     _Cube+1
	sbc     #$F0
	bcc     L3BD8
;
; Cube.x = 0x0000;
;
	ldx     #$00
L4143:	lda     #$00
	sta     _Cube
	stx     _Cube+1
;
; orbjump();
;
L3BD8:	jsr     _orbjump
;
; padjump();
;
	jsr     _padjump
;
; if(pad1_new & PAD_B) {
;
	lda     _pad1_new
	and     #$40
	beq     L4139
;
; if(gravity == 1) {
;
	lda     _gravity
	cmp     #$01
	bne     L4138
;
; gravity = 0;
;
	lda     #$00
;
; else if(gravity == 0) {
;
	jmp     L4131
L4138:	lda     _gravity
	bne     L4139
;
; gravity = 1;
;
	lda     #$01
L4131:	sta     _gravity
;
; if(gravity == 0) {
;
L4139:	lda     _gravity
	bne     L413A
;
; if(Cube.vel_y < SHIP_MAX_FALLSPEED) Cube.vel_y += SHIP_GRAVITY;
;
	lda     _Cube+6
	cmp     #$00
	lda     _Cube+6+1
	sbc     #$03
	bvc     L3BED
	eor     #$80
L3BED:	bpl     L3BEB
	lda     #$36
	clc
	adc     _Cube+6
	sta     _Cube+6
	bcc     L3BF1
	inc     _Cube+6+1
;
; else Cube.vel_y = SHIP_MAX_FALLSPEED; // consistent
;
	jmp     L3BF1
L3BEB:	ldx     #$03
	lda     #$00
	sta     _Cube+6
	stx     _Cube+6+1
;
; if(Cube.vel_y > SHIP_MAX_GOUPSPEED) {}
;
L3BF1:	lda     _Cube+6
	cmp     #$01
	lda     _Cube+6+1
	sbc     #$FD
	bvs     L3BF6
	eor     #$80
;
; else Cube.vel_y = SHIP_MAX_GOUPSPEED; // consistent
;
L3BF6:	bmi     L3C0A
	ldx     #$FD
;
; else if(gravity == 1) {
;
	jmp     L414D
L413A:	lda     _gravity
	cmp     #$01
	bne     L413B
;
; if(Cube.vel_y > SHIP_MAX_FALLSPEEDG) Cube.vel_y += SHIP_GRAVITYG;
;
	lda     _Cube+6
	cmp     #$01
	lda     _Cube+6+1
	sbc     #$FD
	bvs     L3C01
	eor     #$80
L3C01:	bpl     L3BFF
	lda     #$CA
	clc
	adc     _Cube+6
	sta     _Cube+6
	lda     #$FF
	adc     _Cube+6+1
	sta     _Cube+6+1
;
; else Cube.vel_y = SHIP_MAX_FALLSPEEDG; // consistent
;
	jmp     L3C04
L3BFF:	ldx     #$FD
	lda     #$00
	sta     _Cube+6
	stx     _Cube+6+1
;
; if(Cube.vel_y < SHIP_MAX_GOUPSPEEDG) {}
;
L3C04:	lda     _Cube+6
	cmp     #$00
	lda     _Cube+6+1
	sbc     #$03
	bvc     L3C09
	eor     #$80
;
; else Cube.vel_y = SHIP_MAX_GOUPSPEEDG; // consistent
;
L3C09:	bmi     L3C0A
	ldx     #$03
L414D:	lda     #$00
	sta     _Cube+6
	stx     _Cube+6+1
;
; Cube.y += Cube.vel_y;
;
L3C0A:	lda     _Cube+6
	clc
	adc     _Cube+2
	sta     _Cube+2
	lda     _Cube+6+1
	adc     _Cube+2+1
	sta     _Cube+2+1
;
; Generic.x = high_byte(Cube.x);
;
L413B:	lda     _Cube+1
	sta     _Generic
;
; Generic.y = high_byte(Cube.y);
;
	lda     _Cube+3
	sta     _Generic+1
;
; if(Cube.vel_y > 0){
;
	lda     _Cube+6
	cmp     #$01
	lda     _Cube+6+1
	sbc     #$00
	bvs     L3C17
	eor     #$80
L3C17:	bpl     L3C15
;
; if(bg_coll_D()){ // check collision below
;
	jsr     _bg_coll_D
	tax
	beq     L413C
;
; high_byte(Cube.y) = high_byte(Cube.y) - eject_D;
;
	lda     _Cube+3
	sec
	sbc     _eject_D
;
; else if(Cube.vel_y < 0){
;
	jmp     L4147
L3C15:	ldx     _Cube+6+1
	cpx     #$80
	bcc     L413C
;
; if(bg_coll_U()){ // check collision above
;
	jsr     _bg_coll_U
	tax
	beq     L413C
;
; high_byte(Cube.y) = high_byte(Cube.y) - eject_U;
;
	lda     _Cube+3
	sec
	sbc     _eject_U
L4147:	sta     _Cube+3
;
; Cube.vel_y = 0;
;
	lda     #$00
	sta     _Cube+6
	sta     _Cube+6+1
;
; if(pad1 & PAD_A) {
;
L413C:	lda     _pad1
	and     #$80
	beq     L3C36
;
; if(gravity == 0) {
;
	lda     _gravity
	bne     L413D
;
; Cube.vel_y -= SHIP_GRAVITY; // fly
;
	lda     _Cube+6
	sec
	sbc     #$36
	sta     _Cube+6
	bcs     L3C31
	dec     _Cube+6+1
;
; Cube.vel_y -= SHIP_GRAVITY;
;
L3C31:	lda     _Cube+6
	sec
	sbc     #$36
	sta     _Cube+6
	bcs     L3C36
	dec     _Cube+6+1
;
; else if(gravity == 1) {
;
	jmp     L3C36
L413D:	lda     _gravity
	cmp     #$01
	bne     L3C36
;
; Cube.vel_y -= -SHIP_GRAVITY; // fly
;
	lda     _Cube+6
	sec
	sbc     #$CA
	sta     _Cube+6
	lda     _Cube+6+1
	sbc     #$FF
	sta     _Cube+6+1
;
; Cube.vel_y -= -SHIP_GRAVITY;
;
	lda     _Cube+6
	sec
	sbc     #$CA
	sta     _Cube+6
	lda     _Cube+6+1
	sbc     #$FF
	sta     _Cube+6+1
;
; if((scroll_x & 0xff) < 4){
;
L3C36:	lda     _scroll_x
	cmp     #$04
	bcs     L413E
;
; if(!map_loaded){
;
	lda     _map_loaded
	bne     L3C45
;
; new_cmap();
;
	jsr     _new_cmap
;
; map_loaded = 1; // only do once
;
	lda     #$01
;
; else{
;
	jmp     L4134
;
; map_loaded = 0;
;
L413E:	lda     #$00
L4134:	sta     _map_loaded
;
; temp5 = Cube.x;
;
L3C45:	lda     _Cube+1
	sta     _temp5+1
	lda     _Cube
	sta     _temp5
;
; if (Cube.x > MAX_RIGHT){
;
	lda     _Cube
	cmp     #$01
	lda     _Cube+1
	sbc     #$60
	bcc     L3C4A
;
; temp1 = (Cube.x - MAX_RIGHT) >> 8;
;
	lda     _Cube+1
	sec
	sbc     #$60
	sta     _temp1
;
; if (temp1 > 3) temp1 = 3; // max scroll change
;
	cmp     #$04
	bcc     L413F
	lda     #$03
	sta     _temp1
;
; scroll_x += temp1;
;
L413F:	lda     _temp1
	clc
	adc     _scroll_x
	sta     _scroll_x
	lda     #$00
	adc     _scroll_x+1
	sta     _scroll_x+1
;
; high_byte(Cube.x) = high_byte(Cube.x) - temp1;
;
	lda     _Cube+1
	sec
	sbc     _temp1
	sta     _Cube+1
;
; if(scroll_x >= MAX_SCROLL) {
;
L3C4A:	lda     _scroll_x
	cmp     #$FF
	lda     _scroll_x+1
	sbc     #$3E
	bcc     L3C59
;
; scroll_x = MAX_SCROLL; // stop scrolling right, end of level
;
	ldx     #$3E
	lda     #$FF
	sta     _scroll_x
	stx     _scroll_x+1
;
; reset_level();
;
	jmp     _reset_level
;
; } 
;
L3C59:	rts

.endproc

; ---------------------------------------------------------------
; void __near__ main (void)
; ---------------------------------------------------------------

.segment	"CODE"

.proc	_main: near

.segment	"CODE"

;
; ppu_off(); // screen off
;
	jsr     _ppu_off
;
; ppu_mask(0x00);
;
	lda     #$00
	jsr     _ppu_mask
;
; pal_bg(palette_bg);
;
	lda     #<(_palette_bg)
	ldx     #>(_palette_bg)
	jsr     _pal_bg
;
; pal_spr(palette_sp);
;
	lda     #<(_palette_sp)
	ldx     #>(_palette_sp)
	jsr     _pal_spr
;
; bank_spr(1);
;
	lda     #$01
	jsr     _bank_spr
;
; set_vram_buffer(); // do at least once
;
	jsr     _set_vram_buffer
;
; load_room();
;
	jsr     _load_room
;
; song = 0;
;
	lda     #$00
	sta     _song
;
; music_play(song);
;
	jsr     _music_play
;
; ppu_on_all(); // turn on screen
;
	jsr     _ppu_on_all
;
; gamemode = 0x01;
;
	lda     #$01
	sta     _gamemode
;
; cube_rotate = 0x80;
;
	ldx     #$00
	lda     #$80
	sta     _cube_rotate
	stx     _cube_rotate+1
;
; ppu_wait_nmi(); // wait till beginning of the frame
;
L3C75:	jsr     _ppu_wait_nmi
;
; pad1 = pad_poll(0); // read the first controller
;
	lda     #$00
	jsr     _pad_poll
	sta     _pad1
;
; pad1_new = get_pad_new(0);
;
	lda     #$00
	jsr     _get_pad_new
	sta     _pad1_new
;
; if (gamemode & 0x01) cube_movement();
;
	lda     _gamemode
	and     #$01
	beq     L414E
	jsr     _cube_movement
;
; else if (gamemode & 0x02) ship_movement();
;
	jmp     L3C84
L414E:	lda     _gamemode
	and     #$02
	beq     L3C84
	jsr     _ship_movement
;
; check_spr_objects(); // see which objects are on screen
;
L3C84:	jsr     _check_spr_objects
;
; sprite_collisions();
;
	jsr     _sprite_collisions
;
; bg_coll_death();
;
	jsr     _bg_coll_death
;
; set_scroll_x(scroll_x);
;
	lda     _scroll_x
	ldx     _scroll_x+1
	jsr     _set_scroll_x
;
; set_scroll_y(scroll_y);
;
	lda     _scroll_y
	ldx     _scroll_y+1
	jsr     _set_scroll_y
;
; draw_screen_R();
;
	jsr     _draw_screen_R
;
; draw_sprites();
;
	jsr     _draw_sprites
;
; gray_line();
;
	jsr     _gray_line
;
; while (1){
;
	jmp     L3C75

.endproc

