;
; File generated by cc65 v 2.19 - Git 4944c92
;
	.fopt		compiler,"cc65 v 2.19 - Git 4944c92"
	.setcpu		"6502"
	.smart		on
	.autoimport	on
	.case		on
	.debuginfo	off
	.importzp	sp, sreg, regsave, regbank
	.importzp	tmp1, tmp2, tmp3, tmp4, ptr1, ptr2, ptr3, ptr4
	.macpack	longbranch
	.forceimport	__STARTUP__
	.import		_pal_bg
	.import		_pal_spr
	.import		_pal_col
	.import		_ppu_wait_nmi
	.import		_ppu_off
	.import		_ppu_on_all
	.import		_ppu_mask
	.import		_oam_clear
	.import		_oam_meta_spr
	.import		_music_play
	.import		_music_stop
	.import		_sfx_play
	.import		_pad_poll
	.import		_bank_spr
	.import		_memcpy
	.import		_set_vram_buffer
	.import		_get_pad_new
	.import		_check_collision
	.import		_set_scroll_x
	.import		_set_scroll_y
	.import		_get_ppu_addr
	.import		_set_data_pointer
	.import		_set_mt_pointer
	.import		_buffer_4_mt
	.import		_flush_vram_update2
	.import		_gray_line
	.export		_cube_rotate
	.export		_pad1
	.export		_pad1_new
	.export		_collision
	.export		_collision_L
	.export		_collision_R
	.export		_collision_U
	.export		_collision_D
	.export		_coordinates
	.export		_temp1
	.export		_temp2
	.export		_temp3
	.export		_temp4
	.export		_temp5
	.export		_temp6
	.export		_gravity
	.export		_eject_L
	.export		_eject_R
	.export		_eject_D
	.export		_eject_U
	.export		_direction
	.export		_address
	.export		_x
	.export		_y
	.export		_nt
	.export		_index
	.export		_index2
	.export		_room
	.export		_map
	.export		_scroll_x
	.export		_scroll_y
	.export		_scroll_count
	.export		_pseudo_scroll_x
	.export		_L_R_switch
	.export		_old_x
	.export		_temp_x
	.export		_temp_y
	.export		_map_loaded
	.export		_temp_room
	.export		_song
	.export		_cube_data
	.export		_gamemode
	.export		_level
	.export		_pointer
	.export		_c_map
	.export		_c_map2
	.export		_Generic
	.export		_Generic2
	.export		_Cube
	.export		_obj_x
	.export		_obj_y
	.export		_obj_active
	.export		_obj_room
	.export		_obj_actual_x
	.export		_obj_type
	.export		_palette_bg
	.export		_palette_sp
	.export		_metatiles1
	.export		_is_solid
	.export		_Cube_0
	.export		_Cube_1
	.export		_Cube_2
	.export		_Cube_3
	.export		_Cube_4
	.export		_Cube_5
	.export		_CUBE
	.export		_Ship_0
	.export		_Ship_1
	.export		_Ship_2
	.export		_Ship_3
	.export		_Ship_4
	.export		_Ship_5
	.export		_Ship_6
	.export		_SHIP
	.export		_Portal_Gamemode_Cube
	.export		_Portal_Gamemode_Ship
	.export		_Portal_Gravity_Down
	.export		_Portal_Gravity_Up
	.export		_Portals
	.export		_stereomadness__0
	.export		_stereomadness__1
	.export		_stereomadness__2
	.export		_stereomadness__3
	.export		_stereomadness__4
	.export		_stereomadness__5
	.export		_stereomadness__6
	.export		_stereomadness__7
	.export		_stereomadness__8
	.export		_stereomadness__9
	.export		_stereomadness__10
	.export		_stereomadness__11
	.export		_stereomadness__12
	.export		_stereomadness__13
	.export		_stereomadness__14
	.export		_stereomadness__15
	.export		_stereomadness__16
	.export		_stereomadness__17
	.export		_stereomadness__18
	.export		_stereomadness__19
	.export		_stereomadness__20
	.export		_stereomadness__21
	.export		_stereomadness__22
	.export		_stereomadness__23
	.export		_stereomadness__24
	.export		_stereomadness__25
	.export		_stereomadness__26
	.export		_stereomadness__27
	.export		_stereomadness__28
	.export		_stereomadness__29
	.export		_stereomadness__30
	.export		_stereomadness__31
	.export		_stereomadness__32
	.export		_stereomadness__33
	.export		_stereomadness__34
	.export		_stereomadness__35
	.export		_stereomadness__36
	.export		_stereomadness__37
	.export		_stereomadness__38
	.export		_stereomadness__39
	.export		_stereomadness__40
	.export		_stereomadness__41
	.export		_stereomadness__42
	.export		_stereomadness__43
	.export		_stereomadness__44
	.export		_stereomadness__45
	.export		_stereomadness__46
	.export		_stereomadness__47
	.export		_stereomadness__48
	.export		_stereomadness__49
	.export		_stereomadness__50
	.export		_stereomadness__51
	.export		_stereomadness__52
	.export		_stereomadness__53
	.export		_stereomadness__54
	.export		_stereomadness__55
	.export		_stereomadness__56
	.export		_stereomadness__57
	.export		_stereomadness__list
	.export		_Rooms
	.export		_load_room
	.export		_draw_sprites
	.export		_cube_movement
	.export		_draw_screen_R
	.export		_new_cmap
	.export		_reset_level
	.export		_orbjump
	.export		_padjump
	.export		_update_colors
	.export		_sprite_obj_init
	.export		_sprite_collisions
	.export		_check_spr_objects
	.export		_bg_collision_sub
	.export		_bg_coll_L
	.export		_bg_coll_R
	.export		_bg_coll_U
	.export		_bg_coll_D
	.export		_bg_coll_D2
	.export		_bg_coll_death
	.export		_bg_coll_orbs
	.export		_bg_coll_pads
	.export		_get_position
	.export		_obj_stereomadness
	.export		_obj_list
	.export		_bg_coll_U2
	.export		_ship_movement
	.export		_main

.segment	"DATA"

_Cube:
	.word	$0000
	.word	$B400
	.res	4,$00

.segment	"RODATA"

_palette_bg:
	.byte	$21
	.byte	$0C
	.byte	$0F
	.byte	$30
	.byte	$0F
	.byte	$01
	.byte	$11
	.byte	$30
	.byte	$0F
	.byte	$28
	.byte	$14
	.byte	$30
	.byte	$0F
	.byte	$0F
	.byte	$00
	.byte	$30
_palette_sp:
	.byte	$00
	.byte	$0F
	.byte	$2A
	.byte	$21
	.byte	$00
	.byte	$0F
	.byte	$2A
	.byte	$24
	.byte	$00
	.byte	$0F
	.byte	$21
	.byte	$28
	.byte	$00
	.byte	$14
	.byte	$24
	.byte	$34
_metatiles1:
	.byte	$00
	.byte	$00
	.byte	$00
	.byte	$00
	.byte	$00
	.byte	$0A
	.byte	$0B
	.byte	$1A
	.byte	$1B
	.byte	$01
	.byte	$1A
	.byte	$1B
	.byte	$1A
	.byte	$1B
	.byte	$01
	.byte	$2A
	.byte	$2B
	.byte	$2A
	.byte	$2B
	.byte	$01
	.byte	$2A
	.byte	$2B
	.byte	$3A
	.byte	$3B
	.byte	$01
	.byte	$0B
	.byte	$0B
	.byte	$1B
	.byte	$1B
	.byte	$01
	.byte	$1B
	.byte	$1B
	.byte	$1B
	.byte	$1B
	.byte	$01
	.byte	$2B
	.byte	$2B
	.byte	$2B
	.byte	$2B
	.byte	$01
	.byte	$2B
	.byte	$2B
	.byte	$3B
	.byte	$3B
	.byte	$01
	.byte	$FF
	.byte	$FF
	.byte	$FF
	.byte	$FF
	.byte	$01
	.byte	$FF
	.byte	$FF
	.byte	$FF
	.byte	$FF
	.byte	$01
	.byte	$FF
	.byte	$FF
	.byte	$FF
	.byte	$FF
	.byte	$01
	.byte	$FF
	.byte	$FF
	.byte	$FF
	.byte	$FF
	.byte	$01
	.byte	$FF
	.byte	$FF
	.byte	$FF
	.byte	$FF
	.byte	$01
	.byte	$FF
	.byte	$FF
	.byte	$FF
	.byte	$FF
	.byte	$01
	.byte	$FF
	.byte	$FF
	.byte	$FF
	.byte	$FF
	.byte	$01
	.byte	$20
	.byte	$21
	.byte	$30
	.byte	$31
	.byte	$00
	.byte	$22
	.byte	$23
	.byte	$32
	.byte	$33
	.byte	$00
	.byte	$00
	.byte	$00
	.byte	$34
	.byte	$35
	.byte	$00
	.byte	$00
	.byte	$00
	.byte	$B0
	.byte	$B1
	.byte	$02
	.byte	$A2
	.byte	$A3
	.byte	$B2
	.byte	$B3
	.byte	$02
	.byte	$00
	.byte	$00
	.byte	$B4
	.byte	$B5
	.byte	$02
	.byte	$A6
	.byte	$A7
	.byte	$B6
	.byte	$B7
	.byte	$02
	.byte	$E2
	.byte	$E7
	.byte	$00
	.byte	$00
	.byte	$00
	.byte	$00
	.byte	$00
	.byte	$36
	.byte	$37
	.byte	$00
	.byte	$24
	.byte	$25
	.byte	$00
	.byte	$00
	.byte	$00
	.byte	$0C
	.byte	$0D
	.byte	$1C
	.byte	$1D
	.byte	$00
	.byte	$2C
	.byte	$2D
	.byte	$3C
	.byte	$3D
	.byte	$00
	.byte	$0E
	.byte	$0F
	.byte	$1E
	.byte	$1F
	.byte	$00
	.byte	$28
	.byte	$00
	.byte	$38
	.byte	$00
	.byte	$00
	.byte	$26
	.byte	$27
	.byte	$00
	.byte	$00
	.byte	$00
	.byte	$00
	.byte	$29
	.byte	$00
	.byte	$39
	.byte	$00
	.byte	$40
	.byte	$41
	.byte	$50
	.byte	$51
	.byte	$00
	.byte	$44
	.byte	$45
	.byte	$56
	.byte	$57
	.byte	$00
	.byte	$46
	.byte	$43
	.byte	$56
	.byte	$53
	.byte	$00
	.byte	$46
	.byte	$47
	.byte	$54
	.byte	$55
	.byte	$00
	.byte	$42
	.byte	$47
	.byte	$52
	.byte	$57
	.byte	$00
	.byte	$40
	.byte	$45
	.byte	$52
	.byte	$57
	.byte	$00
	.byte	$44
	.byte	$41
	.byte	$56
	.byte	$53
	.byte	$00
	.byte	$46
	.byte	$43
	.byte	$54
	.byte	$51
	.byte	$00
	.byte	$42
	.byte	$47
	.byte	$50
	.byte	$55
	.byte	$00
	.byte	$48
	.byte	$47
	.byte	$56
	.byte	$57
	.byte	$00
	.byte	$46
	.byte	$49
	.byte	$56
	.byte	$57
	.byte	$00
	.byte	$46
	.byte	$47
	.byte	$56
	.byte	$59
	.byte	$00
	.byte	$46
	.byte	$47
	.byte	$58
	.byte	$57
	.byte	$00
	.byte	$42
	.byte	$43
	.byte	$52
	.byte	$53
	.byte	$00
	.byte	$44
	.byte	$45
	.byte	$54
	.byte	$55
	.byte	$00
	.byte	$46
	.byte	$47
	.byte	$56
	.byte	$57
	.byte	$00
	.byte	$40
	.byte	$41
	.byte	$52
	.byte	$53
	.byte	$00
	.byte	$44
	.byte	$41
	.byte	$54
	.byte	$51
	.byte	$00
	.byte	$42
	.byte	$43
	.byte	$50
	.byte	$51
	.byte	$00
	.byte	$40
	.byte	$45
	.byte	$50
	.byte	$55
	.byte	$00
	.byte	$40
	.byte	$45
	.byte	$50
	.byte	$55
	.byte	$00
_is_solid:
	.byte	$00
	.byte	$40
	.byte	$40
	.byte	$40
	.byte	$40
	.byte	$40
	.byte	$40
	.byte	$40
	.byte	$40
	.byte	$40
	.byte	$40
	.byte	$40
	.byte	$40
	.byte	$00
	.byte	$00
	.byte	$00
	.byte	$40
	.byte	$80
	.byte	$80
	.byte	$10
	.byte	$20
	.byte	$00
	.byte	$00
	.byte	$80
	.byte	$80
	.byte	$40
	.byte	$80
	.byte	$80
	.byte	$80
	.byte	$80
	.byte	$80
	.byte	$80
	.byte	$40
	.byte	$40
	.byte	$40
	.byte	$40
	.byte	$40
	.byte	$40
	.byte	$40
	.byte	$40
	.byte	$40
	.byte	$40
	.byte	$40
	.byte	$40
	.byte	$40
	.byte	$40
	.byte	$40
	.byte	$00
	.byte	$40
	.byte	$40
	.byte	$40
	.byte	$40
_Cube_0:
	.byte	$00
	.byte	$00
	.byte	$01
	.byte	$00
	.byte	$00
	.byte	$08
	.byte	$01
	.byte	$80
	.byte	$08
	.byte	$00
	.byte	$01
	.byte	$40
	.byte	$08
	.byte	$08
	.byte	$01
	.byte	$C0
	.byte	$80
_Cube_1:
	.byte	$00
	.byte	$00
	.byte	$09
	.byte	$00
	.byte	$00
	.byte	$08
	.byte	$0A
	.byte	$C0
	.byte	$08
	.byte	$00
	.byte	$0A
	.byte	$00
	.byte	$08
	.byte	$08
	.byte	$09
	.byte	$C0
	.byte	$80
_Cube_2:
	.byte	$00
	.byte	$FC
	.byte	$02
	.byte	$00
	.byte	$08
	.byte	$FC
	.byte	$03
	.byte	$00
	.byte	$FC
	.byte	$04
	.byte	$04
	.byte	$00
	.byte	$04
	.byte	$04
	.byte	$05
	.byte	$00
	.byte	$0C
	.byte	$04
	.byte	$04
	.byte	$C0
	.byte	$00
	.byte	$0C
	.byte	$03
	.byte	$C0
	.byte	$08
	.byte	$0C
	.byte	$02
	.byte	$C0
	.byte	$80
_Cube_3:
	.byte	$00
	.byte	$FC
	.byte	$06
	.byte	$00
	.byte	$08
	.byte	$FC
	.byte	$06
	.byte	$40
	.byte	$FC
	.byte	$04
	.byte	$07
	.byte	$00
	.byte	$04
	.byte	$04
	.byte	$08
	.byte	$00
	.byte	$0C
	.byte	$04
	.byte	$07
	.byte	$40
	.byte	$00
	.byte	$0C
	.byte	$06
	.byte	$80
	.byte	$08
	.byte	$0C
	.byte	$06
	.byte	$C0
	.byte	$80
_Cube_4:
	.byte	$00
	.byte	$FC
	.byte	$03
	.byte	$40
	.byte	$08
	.byte	$FC
	.byte	$02
	.byte	$40
	.byte	$FC
	.byte	$04
	.byte	$04
	.byte	$80
	.byte	$04
	.byte	$04
	.byte	$05
	.byte	$40
	.byte	$0C
	.byte	$04
	.byte	$04
	.byte	$40
	.byte	$00
	.byte	$0C
	.byte	$02
	.byte	$80
	.byte	$08
	.byte	$0C
	.byte	$03
	.byte	$80
	.byte	$80
_Cube_5:
	.byte	$00
	.byte	$00
	.byte	$0A
	.byte	$40
	.byte	$00
	.byte	$08
	.byte	$09
	.byte	$80
	.byte	$08
	.byte	$00
	.byte	$09
	.byte	$40
	.byte	$08
	.byte	$08
	.byte	$0A
	.byte	$80
	.byte	$80
_CUBE:
	.addr	_Cube_0
	.addr	_Cube_1
	.addr	_Cube_2
	.addr	_Cube_3
	.addr	_Cube_4
	.addr	_Cube_5
	.addr	_Cube_0
	.addr	_Cube_0
_Ship_0:
	.byte	$00
	.byte	$00
	.byte	$0B
	.byte	$00
	.byte	$08
	.byte	$00
	.byte	$0C
	.byte	$00
	.byte	$00
	.byte	$08
	.byte	$0D
	.byte	$00
	.byte	$08
	.byte	$08
	.byte	$0E
	.byte	$00
	.byte	$80
_Ship_1:
	.byte	$00
	.byte	$00
	.byte	$10
	.byte	$00
	.byte	$08
	.byte	$00
	.byte	$11
	.byte	$00
	.byte	$00
	.byte	$08
	.byte	$12
	.byte	$00
	.byte	$08
	.byte	$08
	.byte	$13
	.byte	$00
	.byte	$80
_Ship_2:
	.byte	$00
	.byte	$00
	.byte	$14
	.byte	$00
	.byte	$08
	.byte	$01
	.byte	$15
	.byte	$00
	.byte	$00
	.byte	$08
	.byte	$16
	.byte	$00
	.byte	$08
	.byte	$09
	.byte	$17
	.byte	$00
	.byte	$80
_Ship_3:
	.byte	$00
	.byte	$00
	.byte	$14
	.byte	$00
	.byte	$08
	.byte	$00
	.byte	$15
	.byte	$00
	.byte	$00
	.byte	$08
	.byte	$16
	.byte	$00
	.byte	$08
	.byte	$08
	.byte	$17
	.byte	$00
	.byte	$80
_Ship_4:
	.byte	$00
	.byte	$00
	.byte	$14
	.byte	$00
	.byte	$08
	.byte	$FF
	.byte	$15
	.byte	$00
	.byte	$00
	.byte	$08
	.byte	$16
	.byte	$00
	.byte	$08
	.byte	$07
	.byte	$17
	.byte	$00
	.byte	$80
_Ship_5:
	.byte	$00
	.byte	$00
	.byte	$18
	.byte	$00
	.byte	$08
	.byte	$00
	.byte	$19
	.byte	$00
	.byte	$00
	.byte	$08
	.byte	$1A
	.byte	$00
	.byte	$08
	.byte	$08
	.byte	$1B
	.byte	$00
	.byte	$80
_Ship_6:
	.byte	$00
	.byte	$00
	.byte	$1C
	.byte	$00
	.byte	$08
	.byte	$00
	.byte	$1D
	.byte	$00
	.byte	$00
	.byte	$08
	.byte	$1E
	.byte	$00
	.byte	$08
	.byte	$08
	.byte	$1F
	.byte	$00
	.byte	$80
_SHIP:
	.addr	_Ship_0
	.addr	_Ship_0
	.addr	_Ship_1
	.addr	_Ship_2
	.addr	_Ship_3
	.addr	_Ship_4
	.addr	_Ship_5
	.addr	_Ship_6
	.addr	_Ship_6
_Portal_Gamemode_Cube:
	.byte	$00
	.byte	$F0
	.byte	$20
	.byte	$01
	.byte	$03
	.byte	$F8
	.byte	$21
	.byte	$01
	.byte	$06
	.byte	$00
	.byte	$22
	.byte	$01
	.byte	$06
	.byte	$08
	.byte	$22
	.byte	$81
	.byte	$03
	.byte	$10
	.byte	$21
	.byte	$81
	.byte	$00
	.byte	$18
	.byte	$20
	.byte	$81
	.byte	$06
	.byte	$F0
	.byte	$26
	.byte	$01
	.byte	$09
	.byte	$F8
	.byte	$27
	.byte	$01
	.byte	$0C
	.byte	$00
	.byte	$28
	.byte	$01
	.byte	$0C
	.byte	$08
	.byte	$28
	.byte	$81
	.byte	$09
	.byte	$10
	.byte	$27
	.byte	$81
	.byte	$06
	.byte	$18
	.byte	$26
	.byte	$81
	.byte	$80
_Portal_Gamemode_Ship:
	.byte	$00
	.byte	$00
	.byte	$23
	.byte	$01
	.byte	$03
	.byte	$08
	.byte	$24
	.byte	$01
	.byte	$06
	.byte	$10
	.byte	$25
	.byte	$01
	.byte	$06
	.byte	$18
	.byte	$25
	.byte	$81
	.byte	$03
	.byte	$20
	.byte	$24
	.byte	$81
	.byte	$00
	.byte	$28
	.byte	$23
	.byte	$81
	.byte	$06
	.byte	$00
	.byte	$26
	.byte	$01
	.byte	$09
	.byte	$08
	.byte	$27
	.byte	$01
	.byte	$0C
	.byte	$10
	.byte	$28
	.byte	$01
	.byte	$0C
	.byte	$18
	.byte	$28
	.byte	$81
	.byte	$09
	.byte	$20
	.byte	$27
	.byte	$81
	.byte	$06
	.byte	$28
	.byte	$26
	.byte	$81
	.byte	$80
_Portal_Gravity_Down:
	.byte	$00
	.byte	$F0
	.byte	$20
	.byte	$02
	.byte	$03
	.byte	$F8
	.byte	$21
	.byte	$02
	.byte	$06
	.byte	$00
	.byte	$22
	.byte	$02
	.byte	$06
	.byte	$08
	.byte	$22
	.byte	$82
	.byte	$03
	.byte	$10
	.byte	$21
	.byte	$82
	.byte	$00
	.byte	$18
	.byte	$20
	.byte	$82
	.byte	$80
_Portal_Gravity_Up:
	.byte	$00
	.byte	$00
	.byte	$23
	.byte	$02
	.byte	$03
	.byte	$08
	.byte	$24
	.byte	$02
	.byte	$06
	.byte	$10
	.byte	$25
	.byte	$02
	.byte	$06
	.byte	$18
	.byte	$25
	.byte	$82
	.byte	$03
	.byte	$20
	.byte	$24
	.byte	$82
	.byte	$00
	.byte	$28
	.byte	$23
	.byte	$82
	.byte	$80
_Portals:
	.addr	_Portal_Gamemode_Cube
	.addr	_Portal_Gamemode_Ship
	.addr	_Portal_Gravity_Down
	.addr	_Portal_Gravity_Up
_stereomadness__0:
	.byte	$00
	.byte	$00
	.byte	$00
	.byte	$00
	.byte	$00
	.byte	$00
	.byte	$00
	.byte	$00
	.byte	$00
	.byte	$00
	.byte	$00
	.byte	$00
	.byte	$00
	.byte	$00
	.byte	$00
	.byte	$00
	.byte	$00
	.byte	$00
	.byte	$00
	.byte	$00
	.byte	$00
	.byte	$00
	.byte	$00
	.byte	$00
	.byte	$00
	.byte	$00
	.byte	$00
	.byte	$00
	.byte	$00
	.byte	$00
	.byte	$00
	.byte	$00
	.byte	$00
	.byte	$00
	.byte	$00
	.byte	$00
	.byte	$00
	.byte	$00
	.byte	$00
	.byte	$00
	.byte	$00
	.byte	$00
	.byte	$00
	.byte	$00
	.byte	$00
	.byte	$00
	.byte	$00
	.byte	$00
	.byte	$00
	.byte	$00
	.byte	$00
	.byte	$00
	.byte	$00
	.byte	$00
	.byte	$00
	.byte	$00
	.byte	$00
	.byte	$00
	.byte	$00
	.byte	$00
	.byte	$00
	.byte	$00
	.byte	$00
	.byte	$00
	.byte	$00
	.byte	$00
	.byte	$00
	.byte	$00
	.byte	$00
	.byte	$00
	.byte	$00
	.byte	$00
	.byte	$00
	.byte	$00
	.byte	$00
	.byte	$00
	.byte	$00
	.byte	$00
	.byte	$00
	.byte	$00
	.byte	$00
	.byte	$00
	.byte	$00
	.byte	$00
	.byte	$00
	.byte	$00
	.byte	$00
	.byte	$00
	.byte	$00
	.byte	$00
	.byte	$00
	.byte	$00
	.byte	$00
	.byte	$00
	.byte	$00
	.byte	$00
	.byte	$00
	.byte	$00
	.byte	$00
	.byte	$00
	.byte	$00
	.byte	$00
	.byte	$00
	.byte	$00
	.byte	$00
	.byte	$00
	.byte	$00
	.byte	$00
	.byte	$00
	.byte	$00
	.byte	$00
	.byte	$00
	.byte	$00
	.byte	$00
	.byte	$00
	.byte	$00
	.byte	$00
	.byte	$00
	.byte	$00
	.byte	$00
	.byte	$00
	.byte	$00
	.byte	$00
	.byte	$00
	.byte	$00
	.byte	$00
	.byte	$00
	.byte	$00
	.byte	$00
	.byte	$00
	.byte	$00
	.byte	$00
	.byte	$00
	.byte	$00
	.byte	$00
	.byte	$00
	.byte	$00
	.byte	$00
	.byte	$00
	.byte	$00
	.byte	$00
	.byte	$00
	.byte	$00
	.byte	$00
	.byte	$00
	.byte	$00
	.byte	$00
	.byte	$00
	.byte	$00
	.byte	$00
	.byte	$00
	.byte	$00
	.byte	$00
	.byte	$00
	.byte	$00
	.byte	$00
	.byte	$00
	.byte	$00
	.byte	$00
	.byte	$00
	.byte	$00
	.byte	$00
	.byte	$00
	.byte	$00
	.byte	$00
	.byte	$00
	.byte	$00
	.byte	$00
	.byte	$00
	.byte	$00
	.byte	$00
	.byte	$00
	.byte	$00
	.byte	$00
	.byte	$00
	.byte	$00
	.byte	$00
	.byte	$00
	.byte	$00
	.byte	$00
	.byte	$00
	.byte	$00
	.byte	$00
	.byte	$00
	.byte	$00
	.byte	$00
	.byte	$00
	.byte	$00
	.byte	$00
	.byte	$00
	.byte	$00
	.byte	$00
	.byte	$00
	.byte	$00
	.byte	$00
	.byte	$00
	.byte	$00
	.byte	$00
	.byte	$00
	.byte	$00
	.byte	$00
	.byte	$00
	.byte	$00
	.byte	$00
	.byte	$00
	.byte	$00
	.byte	$00
	.byte	$00
	.byte	$00
	.byte	$00
	.byte	$00
	.byte	$00
	.byte	$00
	.byte	$00
	.byte	$00
	.byte	$00
	.byte	$00
	.byte	$00
	.byte	$00
	.byte	$00
	.byte	$00
	.byte	$00
	.byte	$00
	.byte	$00
	.byte	$01
	.byte	$05
	.byte	$05
	.byte	$05
	.byte	$01
	.byte	$05
	.byte	$05
	.byte	$05
	.byte	$01
	.byte	$05
	.byte	$05
	.byte	$05
	.byte	$01
	.byte	$05
	.byte	$05
	.byte	$05
_stereomadness__1:
	.byte	$00
	.byte	$00
	.byte	$00
	.byte	$00
	.byte	$00
	.byte	$00
	.byte	$00
	.byte	$00
	.byte	$00
	.byte	$00
	.byte	$00
	.byte	$00
	.byte	$00
	.byte	$00
	.byte	$00
	.byte	$00
	.byte	$00
	.byte	$00
	.byte	$00
	.byte	$00
	.byte	$00
	.byte	$00
	.byte	$00
	.byte	$00
	.byte	$00
	.byte	$00
	.byte	$00
	.byte	$00
	.byte	$00
	.byte	$00
	.byte	$00
	.byte	$00
	.byte	$00
	.byte	$00
	.byte	$00
	.byte	$00
	.byte	$00
	.byte	$00
	.byte	$00
	.byte	$00
	.byte	$00
	.byte	$00
	.byte	$00
	.byte	$00
	.byte	$00
	.byte	$00
	.byte	$00
	.byte	$00
	.byte	$00
	.byte	$00
	.byte	$00
	.byte	$00
	.byte	$00
	.byte	$00
	.byte	$00
	.byte	$00
	.byte	$00
	.byte	$00
	.byte	$00
	.byte	$00
	.byte	$00
	.byte	$00
	.byte	$00
	.byte	$00
	.byte	$00
	.byte	$00
	.byte	$00
	.byte	$00
	.byte	$00
	.byte	$00
	.byte	$00
	.byte	$00
	.byte	$00
	.byte	$00
	.byte	$00
	.byte	$00
	.byte	$00
	.byte	$00
	.byte	$00
	.byte	$00
	.byte	$00
	.byte	$00
	.byte	$00
	.byte	$00
	.byte	$00
	.byte	$00
	.byte	$00
	.byte	$00
	.byte	$00
	.byte	$00
	.byte	$00
	.byte	$00
	.byte	$00
	.byte	$00
	.byte	$00
	.byte	$00
	.byte	$00
	.byte	$00
	.byte	$00
	.byte	$00
	.byte	$00
	.byte	$00
	.byte	$00
	.byte	$00
	.byte	$00
	.byte	$00
	.byte	$00
	.byte	$00
	.byte	$00
	.byte	$00
	.byte	$00
	.byte	$00
	.byte	$00
	.byte	$00
	.byte	$00
	.byte	$00
	.byte	$00
	.byte	$00
	.byte	$00
	.byte	$00
	.byte	$00
	.byte	$00
	.byte	$00
	.byte	$00
	.byte	$00
	.byte	$00
	.byte	$00
	.byte	$00
	.byte	$00
	.byte	$00
	.byte	$00
	.byte	$00
	.byte	$00
	.byte	$00
	.byte	$00
	.byte	$00
	.byte	$00
	.byte	$00
	.byte	$00
	.byte	$00
	.byte	$00
	.byte	$00
	.byte	$00
	.byte	$00
	.byte	$00
	.byte	$00
	.byte	$00
	.byte	$00
	.byte	$00
	.byte	$00
	.byte	$00
	.byte	$00
	.byte	$00
	.byte	$00
	.byte	$00
	.byte	$00
	.byte	$00
	.byte	$00
	.byte	$00
	.byte	$00
	.byte	$00
	.byte	$00
	.byte	$00
	.byte	$00
	.byte	$00
	.byte	$00
	.byte	$00
	.byte	$00
	.byte	$00
	.byte	$00
	.byte	$00
	.byte	$00
	.byte	$00
	.byte	$00
	.byte	$00
	.byte	$00
	.byte	$00
	.byte	$00
	.byte	$00
	.byte	$00
	.byte	$00
	.byte	$00
	.byte	$00
	.byte	$00
	.byte	$00
	.byte	$00
	.byte	$00
	.byte	$00
	.byte	$00
	.byte	$00
	.byte	$00
	.byte	$00
	.byte	$00
	.byte	$00
	.byte	$00
	.byte	$00
	.byte	$00
	.byte	$00
	.byte	$00
	.byte	$00
	.byte	$00
	.byte	$00
	.byte	$00
	.byte	$00
	.byte	$00
	.byte	$00
	.byte	$00
	.byte	$00
	.byte	$00
	.byte	$11
	.byte	$00
	.byte	$00
	.byte	$00
	.byte	$00
	.byte	$00
	.byte	$00
	.byte	$00
	.byte	$00
	.byte	$00
	.byte	$00
	.byte	$00
	.byte	$00
	.byte	$00
	.byte	$00
	.byte	$01
	.byte	$05
	.byte	$05
	.byte	$05
	.byte	$01
	.byte	$05
	.byte	$05
	.byte	$05
	.byte	$01
	.byte	$05
	.byte	$05
	.byte	$05
	.byte	$01
	.byte	$05
	.byte	$05
	.byte	$05
_stereomadness__2:
	.byte	$00
	.byte	$00
	.byte	$00
	.byte	$00
	.byte	$00
	.byte	$00
	.byte	$00
	.byte	$00
	.byte	$00
	.byte	$00
	.byte	$00
	.byte	$00
	.byte	$00
	.byte	$00
	.byte	$00
	.byte	$00
	.byte	$00
	.byte	$00
	.byte	$00
	.byte	$00
	.byte	$00
	.byte	$00
	.byte	$00
	.byte	$00
	.byte	$00
	.byte	$00
	.byte	$00
	.byte	$00
	.byte	$00
	.byte	$00
	.byte	$00
	.byte	$00
	.byte	$00
	.byte	$00
	.byte	$00
	.byte	$00
	.byte	$00
	.byte	$00
	.byte	$00
	.byte	$00
	.byte	$00
	.byte	$00
	.byte	$00
	.byte	$00
	.byte	$00
	.byte	$00
	.byte	$00
	.byte	$00
	.byte	$00
	.byte	$00
	.byte	$00
	.byte	$00
	.byte	$00
	.byte	$00
	.byte	$00
	.byte	$00
	.byte	$00
	.byte	$00
	.byte	$00
	.byte	$00
	.byte	$00
	.byte	$00
	.byte	$00
	.byte	$00
	.byte	$00
	.byte	$00
	.byte	$00
	.byte	$00
	.byte	$00
	.byte	$00
	.byte	$00
	.byte	$00
	.byte	$00
	.byte	$00
	.byte	$00
	.byte	$00
	.byte	$00
	.byte	$00
	.byte	$00
	.byte	$00
	.byte	$00
	.byte	$00
	.byte	$00
	.byte	$00
	.byte	$00
	.byte	$00
	.byte	$00
	.byte	$00
	.byte	$00
	.byte	$00
	.byte	$00
	.byte	$00
	.byte	$00
	.byte	$00
	.byte	$00
	.byte	$00
	.byte	$00
	.byte	$00
	.byte	$00
	.byte	$00
	.byte	$00
	.byte	$00
	.byte	$00
	.byte	$00
	.byte	$00
	.byte	$00
	.byte	$00
	.byte	$00
	.byte	$00
	.byte	$00
	.byte	$00
	.byte	$00
	.byte	$00
	.byte	$00
	.byte	$00
	.byte	$00
	.byte	$00
	.byte	$00
	.byte	$00
	.byte	$00
	.byte	$00
	.byte	$00
	.byte	$00
	.byte	$00
	.byte	$00
	.byte	$00
	.byte	$00
	.byte	$00
	.byte	$00
	.byte	$00
	.byte	$00
	.byte	$00
	.byte	$00
	.byte	$00
	.byte	$00
	.byte	$00
	.byte	$00
	.byte	$00
	.byte	$00
	.byte	$00
	.byte	$00
	.byte	$00
	.byte	$00
	.byte	$00
	.byte	$00
	.byte	$00
	.byte	$00
	.byte	$00
	.byte	$00
	.byte	$00
	.byte	$00
	.byte	$00
	.byte	$00
	.byte	$00
	.byte	$00
	.byte	$00
	.byte	$00
	.byte	$00
	.byte	$00
	.byte	$00
	.byte	$00
	.byte	$00
	.byte	$00
	.byte	$00
	.byte	$00
	.byte	$00
	.byte	$00
	.byte	$00
	.byte	$00
	.byte	$00
	.byte	$00
	.byte	$00
	.byte	$00
	.byte	$00
	.byte	$00
	.byte	$00
	.byte	$00
	.byte	$00
	.byte	$00
	.byte	$00
	.byte	$00
	.byte	$00
	.byte	$00
	.byte	$00
	.byte	$00
	.byte	$00
	.byte	$00
	.byte	$00
	.byte	$00
	.byte	$00
	.byte	$00
	.byte	$00
	.byte	$00
	.byte	$00
	.byte	$00
	.byte	$00
	.byte	$00
	.byte	$00
	.byte	$00
	.byte	$00
	.byte	$00
	.byte	$00
	.byte	$00
	.byte	$00
	.byte	$00
	.byte	$00
	.byte	$00
	.byte	$00
	.byte	$12
	.byte	$11
	.byte	$00
	.byte	$00
	.byte	$00
	.byte	$00
	.byte	$00
	.byte	$00
	.byte	$00
	.byte	$00
	.byte	$00
	.byte	$00
	.byte	$00
	.byte	$00
	.byte	$00
	.byte	$00
	.byte	$01
	.byte	$05
	.byte	$05
	.byte	$05
	.byte	$01
	.byte	$05
	.byte	$05
	.byte	$05
	.byte	$01
	.byte	$05
	.byte	$05
	.byte	$05
	.byte	$01
	.byte	$05
	.byte	$05
	.byte	$05
_stereomadness__3:
	.byte	$00
	.byte	$00
	.byte	$00
	.byte	$00
	.byte	$00
	.byte	$00
	.byte	$00
	.byte	$00
	.byte	$00
	.byte	$00
	.byte	$00
	.byte	$00
	.byte	$00
	.byte	$00
	.byte	$00
	.byte	$00
	.byte	$00
	.byte	$00
	.byte	$00
	.byte	$00
	.byte	$00
	.byte	$00
	.byte	$00
	.byte	$00
	.byte	$00
	.byte	$00
	.byte	$00
	.byte	$00
	.byte	$00
	.byte	$00
	.byte	$00
	.byte	$00
	.byte	$00
	.byte	$00
	.byte	$00
	.byte	$00
	.byte	$00
	.byte	$00
	.byte	$00
	.byte	$00
	.byte	$00
	.byte	$00
	.byte	$00
	.byte	$00
	.byte	$00
	.byte	$00
	.byte	$00
	.byte	$00
	.byte	$00
	.byte	$00
	.byte	$00
	.byte	$00
	.byte	$00
	.byte	$00
	.byte	$00
	.byte	$00
	.byte	$00
	.byte	$00
	.byte	$00
	.byte	$00
	.byte	$00
	.byte	$00
	.byte	$00
	.byte	$00
	.byte	$00
	.byte	$00
	.byte	$00
	.byte	$00
	.byte	$00
	.byte	$00
	.byte	$00
	.byte	$00
	.byte	$00
	.byte	$00
	.byte	$00
	.byte	$00
	.byte	$00
	.byte	$00
	.byte	$00
	.byte	$00
	.byte	$00
	.byte	$00
	.byte	$00
	.byte	$00
	.byte	$00
	.byte	$00
	.byte	$00
	.byte	$00
	.byte	$00
	.byte	$00
	.byte	$00
	.byte	$00
	.byte	$00
	.byte	$00
	.byte	$00
	.byte	$00
	.byte	$00
	.byte	$00
	.byte	$00
	.byte	$00
	.byte	$00
	.byte	$00
	.byte	$00
	.byte	$00
	.byte	$00
	.byte	$00
	.byte	$00
	.byte	$00
	.byte	$00
	.byte	$00
	.byte	$00
	.byte	$00
	.byte	$00
	.byte	$00
	.byte	$00
	.byte	$00
	.byte	$00
	.byte	$00
	.byte	$00
	.byte	$00
	.byte	$00
	.byte	$00
	.byte	$00
	.byte	$00
	.byte	$00
	.byte	$00
	.byte	$00
	.byte	$00
	.byte	$00
	.byte	$00
	.byte	$00
	.byte	$00
	.byte	$00
	.byte	$00
	.byte	$00
	.byte	$00
	.byte	$00
	.byte	$00
	.byte	$00
	.byte	$00
	.byte	$00
	.byte	$00
	.byte	$00
	.byte	$00
	.byte	$00
	.byte	$00
	.byte	$00
	.byte	$00
	.byte	$00
	.byte	$00
	.byte	$00
	.byte	$00
	.byte	$00
	.byte	$00
	.byte	$00
	.byte	$00
	.byte	$00
	.byte	$00
	.byte	$00
	.byte	$00
	.byte	$00
	.byte	$00
	.byte	$00
	.byte	$00
	.byte	$00
	.byte	$00
	.byte	$00
	.byte	$00
	.byte	$00
	.byte	$00
	.byte	$00
	.byte	$00
	.byte	$00
	.byte	$00
	.byte	$00
	.byte	$00
	.byte	$00
	.byte	$00
	.byte	$00
	.byte	$00
	.byte	$00
	.byte	$00
	.byte	$00
	.byte	$00
	.byte	$00
	.byte	$00
	.byte	$10
	.byte	$00
	.byte	$00
	.byte	$00
	.byte	$00
	.byte	$00
	.byte	$00
	.byte	$00
	.byte	$00
	.byte	$00
	.byte	$00
	.byte	$00
	.byte	$10
	.byte	$00
	.byte	$00
	.byte	$00
	.byte	$2D
	.byte	$00
	.byte	$00
	.byte	$00
	.byte	$00
	.byte	$00
	.byte	$11
	.byte	$11
	.byte	$10
	.byte	$18
	.byte	$18
	.byte	$18
	.byte	$2D
	.byte	$18
	.byte	$18
	.byte	$18
	.byte	$2D
	.byte	$00
	.byte	$00
	.byte	$00
	.byte	$00
	.byte	$00
	.byte	$01
	.byte	$05
	.byte	$05
	.byte	$05
	.byte	$01
	.byte	$05
	.byte	$05
	.byte	$05
	.byte	$01
	.byte	$05
	.byte	$05
	.byte	$05
	.byte	$01
	.byte	$05
	.byte	$05
	.byte	$05
_stereomadness__4:
	.byte	$00
	.byte	$00
	.byte	$00
	.byte	$00
	.byte	$00
	.byte	$00
	.byte	$00
	.byte	$00
	.byte	$00
	.byte	$00
	.byte	$00
	.byte	$00
	.byte	$00
	.byte	$00
	.byte	$00
	.byte	$00
	.byte	$00
	.byte	$00
	.byte	$00
	.byte	$00
	.byte	$00
	.byte	$00
	.byte	$00
	.byte	$00
	.byte	$00
	.byte	$00
	.byte	$00
	.byte	$00
	.byte	$00
	.byte	$00
	.byte	$00
	.byte	$00
	.byte	$00
	.byte	$00
	.byte	$00
	.byte	$00
	.byte	$00
	.byte	$00
	.byte	$00
	.byte	$00
	.byte	$00
	.byte	$00
	.byte	$00
	.byte	$00
	.byte	$00
	.byte	$00
	.byte	$00
	.byte	$00
	.byte	$00
	.byte	$00
	.byte	$00
	.byte	$00
	.byte	$00
	.byte	$00
	.byte	$00
	.byte	$00
	.byte	$00
	.byte	$00
	.byte	$00
	.byte	$00
	.byte	$00
	.byte	$00
	.byte	$00
	.byte	$00
	.byte	$00
	.byte	$00
	.byte	$00
	.byte	$00
	.byte	$00
	.byte	$00
	.byte	$00
	.byte	$00
	.byte	$00
	.byte	$00
	.byte	$00
	.byte	$00
	.byte	$00
	.byte	$00
	.byte	$00
	.byte	$00
	.byte	$00
	.byte	$00
	.byte	$00
	.byte	$00
	.byte	$00
	.byte	$00
	.byte	$00
	.byte	$00
	.byte	$00
	.byte	$00
	.byte	$00
	.byte	$00
	.byte	$00
	.byte	$00
	.byte	$00
	.byte	$00
	.byte	$00
	.byte	$00
	.byte	$00
	.byte	$00
	.byte	$00
	.byte	$00
	.byte	$00
	.byte	$00
	.byte	$00
	.byte	$00
	.byte	$00
	.byte	$00
	.byte	$00
	.byte	$00
	.byte	$00
	.byte	$00
	.byte	$00
	.byte	$00
	.byte	$00
	.byte	$00
	.byte	$00
	.byte	$00
	.byte	$00
	.byte	$00
	.byte	$00
	.byte	$00
	.byte	$00
	.byte	$00
	.byte	$00
	.byte	$00
	.byte	$00
	.byte	$00
	.byte	$00
	.byte	$00
	.byte	$00
	.byte	$00
	.byte	$00
	.byte	$00
	.byte	$00
	.byte	$00
	.byte	$00
	.byte	$00
	.byte	$00
	.byte	$00
	.byte	$00
	.byte	$00
	.byte	$00
	.byte	$00
	.byte	$00
	.byte	$00
	.byte	$00
	.byte	$00
	.byte	$00
	.byte	$00
	.byte	$00
	.byte	$00
	.byte	$00
	.byte	$00
	.byte	$00
	.byte	$00
	.byte	$00
	.byte	$00
	.byte	$00
	.byte	$00
	.byte	$00
	.byte	$00
	.byte	$00
	.byte	$00
	.byte	$00
	.byte	$00
	.byte	$00
	.byte	$00
	.byte	$00
	.byte	$00
	.byte	$00
	.byte	$00
	.byte	$00
	.byte	$00
	.byte	$00
	.byte	$00
	.byte	$00
	.byte	$00
	.byte	$00
	.byte	$00
	.byte	$00
	.byte	$00
	.byte	$00
	.byte	$00
	.byte	$00
	.byte	$00
	.byte	$00
	.byte	$00
	.byte	$00
	.byte	$00
	.byte	$00
	.byte	$00
	.byte	$00
	.byte	$00
	.byte	$00
	.byte	$00
	.byte	$00
	.byte	$00
	.byte	$00
	.byte	$00
	.byte	$00
	.byte	$00
	.byte	$00
	.byte	$00
	.byte	$00
	.byte	$00
	.byte	$00
	.byte	$00
	.byte	$00
	.byte	$00
	.byte	$00
	.byte	$00
	.byte	$00
	.byte	$00
	.byte	$00
	.byte	$00
	.byte	$00
	.byte	$00
	.byte	$00
	.byte	$00
	.byte	$00
	.byte	$00
	.byte	$00
	.byte	$11
	.byte	$01
	.byte	$05
	.byte	$05
	.byte	$05
	.byte	$01
	.byte	$05
	.byte	$05
	.byte	$05
	.byte	$01
	.byte	$05
	.byte	$05
	.byte	$05
	.byte	$01
	.byte	$05
	.byte	$05
	.byte	$05
_stereomadness__5:
	.byte	$00
	.byte	$00
	.byte	$00
	.byte	$00
	.byte	$00
	.byte	$00
	.byte	$00
	.byte	$00
	.byte	$00
	.byte	$00
	.byte	$00
	.byte	$00
	.byte	$00
	.byte	$00
	.byte	$00
	.byte	$00
	.byte	$00
	.byte	$00
	.byte	$00
	.byte	$00
	.byte	$00
	.byte	$00
	.byte	$00
	.byte	$00
	.byte	$00
	.byte	$00
	.byte	$00
	.byte	$00
	.byte	$00
	.byte	$00
	.byte	$00
	.byte	$00
	.byte	$00
	.byte	$00
	.byte	$00
	.byte	$00
	.byte	$00
	.byte	$00
	.byte	$00
	.byte	$00
	.byte	$00
	.byte	$00
	.byte	$00
	.byte	$00
	.byte	$00
	.byte	$00
	.byte	$00
	.byte	$00
	.byte	$00
	.byte	$00
	.byte	$00
	.byte	$00
	.byte	$00
	.byte	$00
	.byte	$00
	.byte	$00
	.byte	$00
	.byte	$00
	.byte	$00
	.byte	$00
	.byte	$00
	.byte	$00
	.byte	$00
	.byte	$00
	.byte	$00
	.byte	$00
	.byte	$00
	.byte	$00
	.byte	$00
	.byte	$00
	.byte	$00
	.byte	$00
	.byte	$00
	.byte	$00
	.byte	$00
	.byte	$00
	.byte	$00
	.byte	$00
	.byte	$00
	.byte	$00
	.byte	$00
	.byte	$00
	.byte	$00
	.byte	$00
	.byte	$00
	.byte	$00
	.byte	$00
	.byte	$00
	.byte	$00
	.byte	$00
	.byte	$00
	.byte	$00
	.byte	$00
	.byte	$00
	.byte	$00
	.byte	$00
	.byte	$00
	.byte	$00
	.byte	$00
	.byte	$00
	.byte	$00
	.byte	$00
	.byte	$00
	.byte	$00
	.byte	$00
	.byte	$00
	.byte	$00
	.byte	$00
	.byte	$00
	.byte	$00
	.byte	$00
	.byte	$00
	.byte	$00
	.byte	$00
	.byte	$00
	.byte	$00
	.byte	$00
	.byte	$00
	.byte	$00
	.byte	$00
	.byte	$00
	.byte	$00
	.byte	$00
	.byte	$00
	.byte	$00
	.byte	$00
	.byte	$00
	.byte	$00
	.byte	$00
	.byte	$00
	.byte	$00
	.byte	$00
	.byte	$00
	.byte	$00
	.byte	$00
	.byte	$00
	.byte	$00
	.byte	$00
	.byte	$00
	.byte	$00
	.byte	$00
	.byte	$00
	.byte	$00
	.byte	$00
	.byte	$00
	.byte	$00
	.byte	$00
	.byte	$00
	.byte	$00
	.byte	$00
	.byte	$00
	.byte	$00
	.byte	$00
	.byte	$00
	.byte	$00
	.byte	$00
	.byte	$00
	.byte	$00
	.byte	$00
	.byte	$00
	.byte	$00
	.byte	$00
	.byte	$00
	.byte	$00
	.byte	$00
	.byte	$00
	.byte	$00
	.byte	$00
	.byte	$00
	.byte	$00
	.byte	$00
	.byte	$00
	.byte	$00
	.byte	$00
	.byte	$00
	.byte	$00
	.byte	$00
	.byte	$00
	.byte	$00
	.byte	$00
	.byte	$00
	.byte	$00
	.byte	$00
	.byte	$00
	.byte	$00
	.byte	$00
	.byte	$00
	.byte	$00
	.byte	$00
	.byte	$00
	.byte	$00
	.byte	$00
	.byte	$00
	.byte	$00
	.byte	$00
	.byte	$00
	.byte	$00
	.byte	$00
	.byte	$00
	.byte	$00
	.byte	$00
	.byte	$00
	.byte	$00
	.byte	$00
	.byte	$00
	.byte	$00
	.byte	$00
	.byte	$00
	.byte	$11
	.byte	$00
	.byte	$00
	.byte	$00
	.byte	$00
	.byte	$00
	.byte	$25
	.byte	$21
	.byte	$21
	.byte	$21
	.byte	$21
	.byte	$21
	.byte	$21
	.byte	$26
	.byte	$18
	.byte	$18
	.byte	$01
	.byte	$05
	.byte	$05
	.byte	$05
	.byte	$01
	.byte	$05
	.byte	$05
	.byte	$05
	.byte	$01
	.byte	$05
	.byte	$05
	.byte	$05
	.byte	$01
	.byte	$05
	.byte	$05
	.byte	$05
_stereomadness__6:
	.byte	$00
	.byte	$00
	.byte	$00
	.byte	$00
	.byte	$00
	.byte	$00
	.byte	$00
	.byte	$00
	.byte	$00
	.byte	$00
	.byte	$00
	.byte	$00
	.byte	$00
	.byte	$00
	.byte	$00
	.byte	$00
	.byte	$00
	.byte	$00
	.byte	$00
	.byte	$00
	.byte	$00
	.byte	$00
	.byte	$00
	.byte	$00
	.byte	$00
	.byte	$00
	.byte	$00
	.byte	$00
	.byte	$00
	.byte	$00
	.byte	$00
	.byte	$00
	.byte	$00
	.byte	$00
	.byte	$00
	.byte	$00
	.byte	$00
	.byte	$00
	.byte	$00
	.byte	$00
	.byte	$00
	.byte	$00
	.byte	$00
	.byte	$00
	.byte	$00
	.byte	$00
	.byte	$00
	.byte	$00
	.byte	$00
	.byte	$00
	.byte	$00
	.byte	$00
	.byte	$00
	.byte	$00
	.byte	$00
	.byte	$00
	.byte	$00
	.byte	$00
	.byte	$00
	.byte	$00
	.byte	$00
	.byte	$00
	.byte	$00
	.byte	$00
	.byte	$00
	.byte	$00
	.byte	$00
	.byte	$00
	.byte	$00
	.byte	$00
	.byte	$00
	.byte	$00
	.byte	$00
	.byte	$00
	.byte	$00
	.byte	$00
	.byte	$00
	.byte	$00
	.byte	$00
	.byte	$00
	.byte	$00
	.byte	$00
	.byte	$00
	.byte	$00
	.byte	$00
	.byte	$00
	.byte	$00
	.byte	$00
	.byte	$00
	.byte	$00
	.byte	$00
	.byte	$00
	.byte	$00
	.byte	$00
	.byte	$00
	.byte	$00
	.byte	$00
	.byte	$00
	.byte	$00
	.byte	$00
	.byte	$00
	.byte	$00
	.byte	$00
	.byte	$00
	.byte	$00
	.byte	$00
	.byte	$00
	.byte	$00
	.byte	$00
	.byte	$00
	.byte	$00
	.byte	$00
	.byte	$00
	.byte	$00
	.byte	$00
	.byte	$00
	.byte	$00
	.byte	$00
	.byte	$00
	.byte	$00
	.byte	$00
	.byte	$00
	.byte	$00
	.byte	$00
	.byte	$00
	.byte	$00
	.byte	$00
	.byte	$00
	.byte	$00
	.byte	$00
	.byte	$00
	.byte	$00
	.byte	$00
	.byte	$00
	.byte	$00
	.byte	$00
	.byte	$00
	.byte	$00
	.byte	$00
	.byte	$00
	.byte	$00
	.byte	$00
	.byte	$00
	.byte	$00
	.byte	$00
	.byte	$00
	.byte	$00
	.byte	$00
	.byte	$00
	.byte	$00
	.byte	$00
	.byte	$00
	.byte	$00
	.byte	$00
	.byte	$00
	.byte	$00
	.byte	$00
	.byte	$00
	.byte	$00
	.byte	$00
	.byte	$00
	.byte	$00
	.byte	$00
	.byte	$00
	.byte	$00
	.byte	$00
	.byte	$00
	.byte	$00
	.byte	$00
	.byte	$00
	.byte	$00
	.byte	$00
	.byte	$00
	.byte	$00
	.byte	$00
	.byte	$00
	.byte	$00
	.byte	$00
	.byte	$00
	.byte	$00
	.byte	$00
	.byte	$00
	.byte	$00
	.byte	$00
	.byte	$00
	.byte	$00
	.byte	$00
	.byte	$00
	.byte	$00
	.byte	$00
	.byte	$00
	.byte	$00
	.byte	$00
	.byte	$00
	.byte	$00
	.byte	$00
	.byte	$00
	.byte	$00
	.byte	$11
	.byte	$00
	.byte	$00
	.byte	$00
	.byte	$00
	.byte	$00
	.byte	$00
	.byte	$00
	.byte	$00
	.byte	$25
	.byte	$18
	.byte	$25
	.byte	$21
	.byte	$21
	.byte	$21
	.byte	$21
	.byte	$21
	.byte	$21
	.byte	$21
	.byte	$21
	.byte	$21
	.byte	$26
	.byte	$18
	.byte	$18
	.byte	$18
	.byte	$24
	.byte	$01
	.byte	$05
	.byte	$05
	.byte	$05
	.byte	$01
	.byte	$05
	.byte	$05
	.byte	$05
	.byte	$01
	.byte	$05
	.byte	$05
	.byte	$05
	.byte	$01
	.byte	$05
	.byte	$05
	.byte	$05
_stereomadness__7:
	.byte	$00
	.byte	$00
	.byte	$00
	.byte	$00
	.byte	$00
	.byte	$00
	.byte	$00
	.byte	$00
	.byte	$00
	.byte	$00
	.byte	$00
	.byte	$00
	.byte	$00
	.byte	$00
	.byte	$00
	.byte	$00
	.byte	$00
	.byte	$00
	.byte	$00
	.byte	$00
	.byte	$00
	.byte	$00
	.byte	$00
	.byte	$00
	.byte	$00
	.byte	$00
	.byte	$00
	.byte	$00
	.byte	$00
	.byte	$00
	.byte	$00
	.byte	$00
	.byte	$00
	.byte	$00
	.byte	$00
	.byte	$00
	.byte	$00
	.byte	$00
	.byte	$00
	.byte	$00
	.byte	$00
	.byte	$00
	.byte	$00
	.byte	$00
	.byte	$00
	.byte	$00
	.byte	$00
	.byte	$00
	.byte	$00
	.byte	$00
	.byte	$00
	.byte	$00
	.byte	$00
	.byte	$00
	.byte	$00
	.byte	$00
	.byte	$00
	.byte	$00
	.byte	$00
	.byte	$00
	.byte	$00
	.byte	$00
	.byte	$00
	.byte	$00
	.byte	$00
	.byte	$00
	.byte	$00
	.byte	$00
	.byte	$00
	.byte	$00
	.byte	$00
	.byte	$00
	.byte	$00
	.byte	$00
	.byte	$00
	.byte	$00
	.byte	$00
	.byte	$00
	.byte	$00
	.byte	$00
	.byte	$00
	.byte	$00
	.byte	$00
	.byte	$00
	.byte	$00
	.byte	$00
	.byte	$00
	.byte	$00
	.byte	$00
	.byte	$00
	.byte	$00
	.byte	$00
	.byte	$00
	.byte	$00
	.byte	$00
	.byte	$00
	.byte	$00
	.byte	$00
	.byte	$00
	.byte	$00
	.byte	$00
	.byte	$00
	.byte	$00
	.byte	$00
	.byte	$00
	.byte	$00
	.byte	$00
	.byte	$00
	.byte	$00
	.byte	$00
	.byte	$00
	.byte	$00
	.byte	$00
	.byte	$00
	.byte	$00
	.byte	$00
	.byte	$00
	.byte	$00
	.byte	$00
	.byte	$00
	.byte	$00
	.byte	$00
	.byte	$00
	.byte	$00
	.byte	$00
	.byte	$00
	.byte	$00
	.byte	$00
	.byte	$00
	.byte	$00
	.byte	$00
	.byte	$00
	.byte	$00
	.byte	$00
	.byte	$00
	.byte	$00
	.byte	$00
	.byte	$00
	.byte	$00
	.byte	$00
	.byte	$00
	.byte	$00
	.byte	$00
	.byte	$00
	.byte	$00
	.byte	$00
	.byte	$00
	.byte	$00
	.byte	$00
	.byte	$00
	.byte	$00
	.byte	$00
	.byte	$00
	.byte	$00
	.byte	$00
	.byte	$00
	.byte	$00
	.byte	$00
	.byte	$00
	.byte	$00
	.byte	$00
	.byte	$00
	.byte	$00
	.byte	$00
	.byte	$00
	.byte	$00
	.byte	$00
	.byte	$00
	.byte	$00
	.byte	$00
	.byte	$00
	.byte	$00
	.byte	$00
	.byte	$00
	.byte	$00
	.byte	$00
	.byte	$00
	.byte	$00
	.byte	$00
	.byte	$00
	.byte	$00
	.byte	$00
	.byte	$11
	.byte	$00
	.byte	$00
	.byte	$00
	.byte	$00
	.byte	$00
	.byte	$00
	.byte	$00
	.byte	$00
	.byte	$00
	.byte	$21
	.byte	$21
	.byte	$21
	.byte	$21
	.byte	$21
	.byte	$21
	.byte	$21
	.byte	$21
	.byte	$21
	.byte	$21
	.byte	$21
	.byte	$21
	.byte	$26
	.byte	$00
	.byte	$00
	.byte	$00
	.byte	$2F
	.byte	$2F
	.byte	$2F
	.byte	$2F
	.byte	$2F
	.byte	$2F
	.byte	$2F
	.byte	$2F
	.byte	$2F
	.byte	$2F
	.byte	$2F
	.byte	$2F
	.byte	$22
	.byte	$18
	.byte	$18
	.byte	$18
	.byte	$01
	.byte	$05
	.byte	$05
	.byte	$05
	.byte	$01
	.byte	$05
	.byte	$05
	.byte	$05
	.byte	$01
	.byte	$05
	.byte	$05
	.byte	$05
	.byte	$01
	.byte	$05
	.byte	$05
	.byte	$05
_stereomadness__8:
	.byte	$00
	.byte	$00
	.byte	$00
	.byte	$00
	.byte	$00
	.byte	$00
	.byte	$00
	.byte	$00
	.byte	$00
	.byte	$00
	.byte	$00
	.byte	$00
	.byte	$00
	.byte	$00
	.byte	$00
	.byte	$00
	.byte	$00
	.byte	$00
	.byte	$00
	.byte	$00
	.byte	$00
	.byte	$00
	.byte	$00
	.byte	$00
	.byte	$00
	.byte	$00
	.byte	$00
	.byte	$00
	.byte	$00
	.byte	$00
	.byte	$00
	.byte	$00
	.byte	$00
	.byte	$00
	.byte	$00
	.byte	$00
	.byte	$00
	.byte	$00
	.byte	$00
	.byte	$00
	.byte	$00
	.byte	$00
	.byte	$00
	.byte	$00
	.byte	$00
	.byte	$00
	.byte	$00
	.byte	$00
	.byte	$00
	.byte	$00
	.byte	$00
	.byte	$00
	.byte	$00
	.byte	$00
	.byte	$00
	.byte	$00
	.byte	$00
	.byte	$00
	.byte	$00
	.byte	$00
	.byte	$00
	.byte	$00
	.byte	$00
	.byte	$00
	.byte	$00
	.byte	$00
	.byte	$00
	.byte	$00
	.byte	$00
	.byte	$00
	.byte	$00
	.byte	$00
	.byte	$00
	.byte	$00
	.byte	$00
	.byte	$00
	.byte	$00
	.byte	$00
	.byte	$00
	.byte	$00
	.byte	$00
	.byte	$00
	.byte	$00
	.byte	$00
	.byte	$00
	.byte	$00
	.byte	$00
	.byte	$00
	.byte	$00
	.byte	$00
	.byte	$00
	.byte	$00
	.byte	$00
	.byte	$00
	.byte	$00
	.byte	$00
	.byte	$00
	.byte	$00
	.byte	$00
	.byte	$00
	.byte	$00
	.byte	$00
	.byte	$00
	.byte	$00
	.byte	$00
	.byte	$00
	.byte	$00
	.byte	$00
	.byte	$00
	.byte	$00
	.byte	$00
	.byte	$00
	.byte	$00
	.byte	$00
	.byte	$00
	.byte	$00
	.byte	$00
	.byte	$00
	.byte	$00
	.byte	$00
	.byte	$00
	.byte	$00
	.byte	$00
	.byte	$00
	.byte	$00
	.byte	$00
	.byte	$00
	.byte	$00
	.byte	$00
	.byte	$00
	.byte	$00
	.byte	$00
	.byte	$00
	.byte	$00
	.byte	$00
	.byte	$00
	.byte	$00
	.byte	$00
	.byte	$00
	.byte	$00
	.byte	$19
	.byte	$00
	.byte	$00
	.byte	$00
	.byte	$00
	.byte	$00
	.byte	$00
	.byte	$00
	.byte	$00
	.byte	$00
	.byte	$00
	.byte	$00
	.byte	$19
	.byte	$00
	.byte	$00
	.byte	$00
	.byte	$00
	.byte	$00
	.byte	$00
	.byte	$00
	.byte	$00
	.byte	$00
	.byte	$00
	.byte	$00
	.byte	$19
	.byte	$00
	.byte	$00
	.byte	$00
	.byte	$00
	.byte	$00
	.byte	$00
	.byte	$00
	.byte	$00
	.byte	$00
	.byte	$00
	.byte	$00
	.byte	$19
	.byte	$00
	.byte	$00
	.byte	$00
	.byte	$00
	.byte	$00
	.byte	$00
	.byte	$00
	.byte	$00
	.byte	$00
	.byte	$00
	.byte	$00
	.byte	$00
	.byte	$00
	.byte	$00
	.byte	$00
	.byte	$00
	.byte	$00
	.byte	$00
	.byte	$00
	.byte	$00
	.byte	$00
	.byte	$00
	.byte	$00
	.byte	$00
	.byte	$00
	.byte	$00
	.byte	$00
	.byte	$00
	.byte	$00
	.byte	$00
	.byte	$00
	.byte	$18
	.byte	$18
	.byte	$18
	.byte	$18
	.byte	$18
	.byte	$18
	.byte	$18
	.byte	$18
	.byte	$18
	.byte	$18
	.byte	$18
	.byte	$18
	.byte	$18
	.byte	$18
	.byte	$18
	.byte	$18
	.byte	$01
	.byte	$05
	.byte	$05
	.byte	$05
	.byte	$01
	.byte	$05
	.byte	$05
	.byte	$05
	.byte	$01
	.byte	$05
	.byte	$05
	.byte	$05
	.byte	$01
	.byte	$05
	.byte	$05
	.byte	$05
_stereomadness__9:
	.byte	$00
	.byte	$00
	.byte	$00
	.byte	$00
	.byte	$00
	.byte	$00
	.byte	$00
	.byte	$00
	.byte	$00
	.byte	$00
	.byte	$00
	.byte	$00
	.byte	$00
	.byte	$00
	.byte	$00
	.byte	$00
	.byte	$00
	.byte	$00
	.byte	$00
	.byte	$00
	.byte	$00
	.byte	$00
	.byte	$00
	.byte	$00
	.byte	$00
	.byte	$00
	.byte	$00
	.byte	$00
	.byte	$00
	.byte	$00
	.byte	$00
	.byte	$00
	.byte	$00
	.byte	$00
	.byte	$00
	.byte	$00
	.byte	$00
	.byte	$00
	.byte	$00
	.byte	$00
	.byte	$00
	.byte	$00
	.byte	$00
	.byte	$00
	.byte	$00
	.byte	$00
	.byte	$00
	.byte	$00
	.byte	$00
	.byte	$00
	.byte	$00
	.byte	$00
	.byte	$00
	.byte	$00
	.byte	$00
	.byte	$00
	.byte	$00
	.byte	$00
	.byte	$00
	.byte	$00
	.byte	$00
	.byte	$00
	.byte	$00
	.byte	$00
	.byte	$00
	.byte	$00
	.byte	$00
	.byte	$00
	.byte	$00
	.byte	$00
	.byte	$00
	.byte	$00
	.byte	$00
	.byte	$00
	.byte	$00
	.byte	$00
	.byte	$00
	.byte	$00
	.byte	$00
	.byte	$00
	.byte	$00
	.byte	$00
	.byte	$00
	.byte	$00
	.byte	$00
	.byte	$00
	.byte	$00
	.byte	$00
	.byte	$00
	.byte	$00
	.byte	$00
	.byte	$00
	.byte	$00
	.byte	$00
	.byte	$00
	.byte	$00
	.byte	$00
	.byte	$00
	.byte	$00
	.byte	$00
	.byte	$00
	.byte	$00
	.byte	$00
	.byte	$00
	.byte	$00
	.byte	$00
	.byte	$00
	.byte	$19
	.byte	$19
	.byte	$00
	.byte	$00
	.byte	$00
	.byte	$19
	.byte	$00
	.byte	$00
	.byte	$00
	.byte	$00
	.byte	$00
	.byte	$00
	.byte	$00
	.byte	$00
	.byte	$00
	.byte	$11
	.byte	$11
	.byte	$11
	.byte	$11
	.byte	$00
	.byte	$00
	.byte	$00
	.byte	$00
	.byte	$00
	.byte	$00
	.byte	$33
	.byte	$2E
	.byte	$21
	.byte	$21
	.byte	$21
	.byte	$21
	.byte	$21
	.byte	$21
	.byte	$21
	.byte	$21
	.byte	$21
	.byte	$21
	.byte	$00
	.byte	$00
	.byte	$00
	.byte	$00
	.byte	$00
	.byte	$00
	.byte	$24
	.byte	$2F
	.byte	$2F
	.byte	$2F
	.byte	$2F
	.byte	$2F
	.byte	$2F
	.byte	$2F
	.byte	$2F
	.byte	$2F
	.byte	$00
	.byte	$00
	.byte	$00
	.byte	$00
	.byte	$00
	.byte	$00
	.byte	$24
	.byte	$2F
	.byte	$2F
	.byte	$2F
	.byte	$2F
	.byte	$2F
	.byte	$2F
	.byte	$2F
	.byte	$2F
	.byte	$2F
	.byte	$00
	.byte	$00
	.byte	$00
	.byte	$00
	.byte	$00
	.byte	$00
	.byte	$24
	.byte	$2F
	.byte	$2F
	.byte	$2F
	.byte	$2F
	.byte	$2F
	.byte	$2F
	.byte	$2F
	.byte	$2F
	.byte	$2F
	.byte	$00
	.byte	$00
	.byte	$00
	.byte	$00
	.byte	$00
	.byte	$00
	.byte	$24
	.byte	$2F
	.byte	$2F
	.byte	$2F
	.byte	$2F
	.byte	$2F
	.byte	$2F
	.byte	$2F
	.byte	$2F
	.byte	$2F
	.byte	$18
	.byte	$18
	.byte	$18
	.byte	$18
	.byte	$18
	.byte	$18
	.byte	$24
	.byte	$2F
	.byte	$2F
	.byte	$2F
	.byte	$2F
	.byte	$2F
	.byte	$2F
	.byte	$2F
	.byte	$2F
	.byte	$2F
	.byte	$01
	.byte	$05
	.byte	$05
	.byte	$05
	.byte	$01
	.byte	$05
	.byte	$05
	.byte	$05
	.byte	$01
	.byte	$05
	.byte	$05
	.byte	$05
	.byte	$01
	.byte	$05
	.byte	$05
	.byte	$05
_stereomadness__10:
	.byte	$00
	.byte	$00
	.byte	$00
	.byte	$00
	.byte	$00
	.byte	$00
	.byte	$00
	.byte	$00
	.byte	$00
	.byte	$00
	.byte	$00
	.byte	$00
	.byte	$00
	.byte	$00
	.byte	$00
	.byte	$00
	.byte	$00
	.byte	$00
	.byte	$00
	.byte	$00
	.byte	$00
	.byte	$00
	.byte	$00
	.byte	$00
	.byte	$00
	.byte	$00
	.byte	$00
	.byte	$00
	.byte	$00
	.byte	$00
	.byte	$00
	.byte	$00
	.byte	$00
	.byte	$00
	.byte	$00
	.byte	$00
	.byte	$00
	.byte	$00
	.byte	$00
	.byte	$00
	.byte	$00
	.byte	$00
	.byte	$00
	.byte	$00
	.byte	$00
	.byte	$00
	.byte	$00
	.byte	$00
	.byte	$00
	.byte	$00
	.byte	$00
	.byte	$00
	.byte	$00
	.byte	$00
	.byte	$00
	.byte	$00
	.byte	$00
	.byte	$00
	.byte	$00
	.byte	$00
	.byte	$00
	.byte	$00
	.byte	$00
	.byte	$00
	.byte	$00
	.byte	$00
	.byte	$00
	.byte	$00
	.byte	$00
	.byte	$00
	.byte	$00
	.byte	$00
	.byte	$00
	.byte	$00
	.byte	$00
	.byte	$00
	.byte	$00
	.byte	$00
	.byte	$00
	.byte	$00
	.byte	$00
	.byte	$00
	.byte	$00
	.byte	$00
	.byte	$00
	.byte	$00
	.byte	$00
	.byte	$00
	.byte	$00
	.byte	$00
	.byte	$00
	.byte	$00
	.byte	$00
	.byte	$00
	.byte	$00
	.byte	$00
	.byte	$00
	.byte	$00
	.byte	$00
	.byte	$19
	.byte	$19
	.byte	$00
	.byte	$00
	.byte	$00
	.byte	$00
	.byte	$00
	.byte	$00
	.byte	$00
	.byte	$00
	.byte	$11
	.byte	$11
	.byte	$11
	.byte	$00
	.byte	$00
	.byte	$11
	.byte	$11
	.byte	$11
	.byte	$11
	.byte	$00
	.byte	$00
	.byte	$00
	.byte	$00
	.byte	$00
	.byte	$00
	.byte	$00
	.byte	$19
	.byte	$19
	.byte	$19
	.byte	$21
	.byte	$21
	.byte	$21
	.byte	$21
	.byte	$21
	.byte	$21
	.byte	$21
	.byte	$21
	.byte	$21
	.byte	$26
	.byte	$00
	.byte	$00
	.byte	$00
	.byte	$00
	.byte	$00
	.byte	$00
	.byte	$2F
	.byte	$2F
	.byte	$2F
	.byte	$2F
	.byte	$2F
	.byte	$2F
	.byte	$2F
	.byte	$2F
	.byte	$2F
	.byte	$2A
	.byte	$21
	.byte	$21
	.byte	$21
	.byte	$21
	.byte	$21
	.byte	$21
	.byte	$2F
	.byte	$2F
	.byte	$2F
	.byte	$2F
	.byte	$2F
	.byte	$2F
	.byte	$2F
	.byte	$2F
	.byte	$2F
	.byte	$2F
	.byte	$2F
	.byte	$2F
	.byte	$2F
	.byte	$2F
	.byte	$2F
	.byte	$2F
	.byte	$2F
	.byte	$2F
	.byte	$2F
	.byte	$2F
	.byte	$2F
	.byte	$2F
	.byte	$2F
	.byte	$2F
	.byte	$2F
	.byte	$2F
	.byte	$2F
	.byte	$2F
	.byte	$2F
	.byte	$2F
	.byte	$2F
	.byte	$2F
	.byte	$2F
	.byte	$2F
	.byte	$2F
	.byte	$2F
	.byte	$2F
	.byte	$2F
	.byte	$2F
	.byte	$2F
	.byte	$2F
	.byte	$2F
	.byte	$2F
	.byte	$2F
	.byte	$2F
	.byte	$2F
	.byte	$2F
	.byte	$2F
	.byte	$2F
	.byte	$2F
	.byte	$2F
	.byte	$2F
	.byte	$2F
	.byte	$2F
	.byte	$2F
	.byte	$2F
	.byte	$2F
	.byte	$2F
	.byte	$2F
	.byte	$2F
	.byte	$2F
	.byte	$2F
	.byte	$2F
	.byte	$2F
	.byte	$01
	.byte	$05
	.byte	$05
	.byte	$05
	.byte	$01
	.byte	$05
	.byte	$05
	.byte	$05
	.byte	$01
	.byte	$05
	.byte	$05
	.byte	$05
	.byte	$01
	.byte	$05
	.byte	$05
	.byte	$05
_stereomadness__11:
	.byte	$00
	.byte	$00
	.byte	$00
	.byte	$00
	.byte	$00
	.byte	$00
	.byte	$00
	.byte	$00
	.byte	$00
	.byte	$00
	.byte	$00
	.byte	$00
	.byte	$00
	.byte	$00
	.byte	$00
	.byte	$00
	.byte	$00
	.byte	$00
	.byte	$00
	.byte	$00
	.byte	$00
	.byte	$00
	.byte	$00
	.byte	$00
	.byte	$00
	.byte	$00
	.byte	$00
	.byte	$00
	.byte	$00
	.byte	$00
	.byte	$00
	.byte	$00
	.byte	$00
	.byte	$00
	.byte	$00
	.byte	$00
	.byte	$00
	.byte	$00
	.byte	$00
	.byte	$00
	.byte	$00
	.byte	$00
	.byte	$00
	.byte	$00
	.byte	$00
	.byte	$00
	.byte	$00
	.byte	$00
	.byte	$00
	.byte	$00
	.byte	$00
	.byte	$00
	.byte	$00
	.byte	$00
	.byte	$00
	.byte	$00
	.byte	$00
	.byte	$00
	.byte	$00
	.byte	$00
	.byte	$00
	.byte	$00
	.byte	$00
	.byte	$00
	.byte	$00
	.byte	$00
	.byte	$00
	.byte	$00
	.byte	$00
	.byte	$00
	.byte	$00
	.byte	$00
	.byte	$00
	.byte	$00
	.byte	$00
	.byte	$00
	.byte	$00
	.byte	$00
	.byte	$00
	.byte	$00
	.byte	$00
	.byte	$00
	.byte	$00
	.byte	$00
	.byte	$00
	.byte	$00
	.byte	$00
	.byte	$00
	.byte	$00
	.byte	$00
	.byte	$00
	.byte	$00
	.byte	$00
	.byte	$00
	.byte	$00
	.byte	$00
	.byte	$11
	.byte	$00
	.byte	$00
	.byte	$00
	.byte	$00
	.byte	$00
	.byte	$00
	.byte	$00
	.byte	$00
	.byte	$00
	.byte	$00
	.byte	$00
	.byte	$00
	.byte	$00
	.byte	$00
	.byte	$00
	.byte	$19
	.byte	$00
	.byte	$00
	.byte	$00
	.byte	$00
	.byte	$00
	.byte	$00
	.byte	$00
	.byte	$11
	.byte	$00
	.byte	$00
	.byte	$00
	.byte	$00
	.byte	$00
	.byte	$00
	.byte	$00
	.byte	$00
	.byte	$00
	.byte	$00
	.byte	$00
	.byte	$25
	.byte	$21
	.byte	$21
	.byte	$21
	.byte	$26
	.byte	$00
	.byte	$00
	.byte	$00
	.byte	$00
	.byte	$00
	.byte	$00
	.byte	$00
	.byte	$21
	.byte	$21
	.byte	$21
	.byte	$21
	.byte	$29
	.byte	$2F
	.byte	$2F
	.byte	$2F
	.byte	$22
	.byte	$11
	.byte	$00
	.byte	$00
	.byte	$00
	.byte	$00
	.byte	$00
	.byte	$00
	.byte	$2F
	.byte	$2F
	.byte	$2F
	.byte	$2F
	.byte	$2F
	.byte	$2F
	.byte	$2F
	.byte	$2F
	.byte	$2A
	.byte	$21
	.byte	$21
	.byte	$21
	.byte	$21
	.byte	$21
	.byte	$2E
	.byte	$2E
	.byte	$2F
	.byte	$2F
	.byte	$2F
	.byte	$2F
	.byte	$2F
	.byte	$2F
	.byte	$2F
	.byte	$2F
	.byte	$2F
	.byte	$2F
	.byte	$2F
	.byte	$2F
	.byte	$2F
	.byte	$22
	.byte	$00
	.byte	$00
	.byte	$2F
	.byte	$2F
	.byte	$2F
	.byte	$2F
	.byte	$2F
	.byte	$2F
	.byte	$2F
	.byte	$2F
	.byte	$2F
	.byte	$2F
	.byte	$2F
	.byte	$2F
	.byte	$2F
	.byte	$22
	.byte	$00
	.byte	$00
	.byte	$2F
	.byte	$2F
	.byte	$2F
	.byte	$2F
	.byte	$2F
	.byte	$2F
	.byte	$2F
	.byte	$2F
	.byte	$2F
	.byte	$2F
	.byte	$2F
	.byte	$2F
	.byte	$2F
	.byte	$22
	.byte	$18
	.byte	$18
	.byte	$01
	.byte	$05
	.byte	$05
	.byte	$05
	.byte	$01
	.byte	$05
	.byte	$05
	.byte	$05
	.byte	$01
	.byte	$05
	.byte	$05
	.byte	$05
	.byte	$01
	.byte	$05
	.byte	$05
	.byte	$05
_stereomadness__12:
	.byte	$00
	.byte	$00
	.byte	$00
	.byte	$00
	.byte	$00
	.byte	$00
	.byte	$00
	.byte	$00
	.byte	$00
	.byte	$00
	.byte	$00
	.byte	$00
	.byte	$00
	.byte	$00
	.byte	$00
	.byte	$00
	.byte	$00
	.byte	$00
	.byte	$00
	.byte	$00
	.byte	$00
	.byte	$00
	.byte	$00
	.byte	$00
	.byte	$00
	.byte	$00
	.byte	$00
	.byte	$00
	.byte	$00
	.byte	$00
	.byte	$00
	.byte	$00
	.byte	$00
	.byte	$00
	.byte	$00
	.byte	$00
	.byte	$00
	.byte	$00
	.byte	$00
	.byte	$00
	.byte	$00
	.byte	$00
	.byte	$00
	.byte	$00
	.byte	$00
	.byte	$00
	.byte	$00
	.byte	$00
	.byte	$00
	.byte	$00
	.byte	$00
	.byte	$00
	.byte	$00
	.byte	$00
	.byte	$00
	.byte	$00
	.byte	$00
	.byte	$00
	.byte	$00
	.byte	$00
	.byte	$00
	.byte	$00
	.byte	$00
	.byte	$00
	.byte	$00
	.byte	$00
	.byte	$00
	.byte	$00
	.byte	$00
	.byte	$00
	.byte	$00
	.byte	$00
	.byte	$00
	.byte	$00
	.byte	$00
	.byte	$00
	.byte	$00
	.byte	$00
	.byte	$00
	.byte	$00
	.byte	$00
	.byte	$00
	.byte	$00
	.byte	$00
	.byte	$00
	.byte	$00
	.byte	$00
	.byte	$00
	.byte	$00
	.byte	$00
	.byte	$00
	.byte	$00
	.byte	$00
	.byte	$00
	.byte	$00
	.byte	$00
	.byte	$00
	.byte	$00
	.byte	$00
	.byte	$00
	.byte	$00
	.byte	$00
	.byte	$00
	.byte	$00
	.byte	$00
	.byte	$00
	.byte	$00
	.byte	$00
	.byte	$00
	.byte	$00
	.byte	$00
	.byte	$00
	.byte	$00
	.byte	$00
	.byte	$00
	.byte	$00
	.byte	$00
	.byte	$00
	.byte	$00
	.byte	$00
	.byte	$00
	.byte	$00
	.byte	$00
	.byte	$00
	.byte	$00
	.byte	$00
	.byte	$00
	.byte	$00
	.byte	$00
	.byte	$00
	.byte	$00
	.byte	$00
	.byte	$00
	.byte	$00
	.byte	$00
	.byte	$00
	.byte	$00
	.byte	$00
	.byte	$00
	.byte	$00
	.byte	$00
	.byte	$00
	.byte	$00
	.byte	$00
	.byte	$00
	.byte	$00
	.byte	$00
	.byte	$00
	.byte	$00
	.byte	$00
	.byte	$00
	.byte	$00
	.byte	$11
	.byte	$00
	.byte	$00
	.byte	$00
	.byte	$00
	.byte	$00
	.byte	$00
	.byte	$00
	.byte	$2E
	.byte	$2E
	.byte	$31
	.byte	$00
	.byte	$00
	.byte	$19
	.byte	$19
	.byte	$19
	.byte	$19
	.byte	$00
	.byte	$00
	.byte	$00
	.byte	$00
	.byte	$00
	.byte	$00
	.byte	$00
	.byte	$00
	.byte	$00
	.byte	$00
	.byte	$00
	.byte	$00
	.byte	$00
	.byte	$00
	.byte	$00
	.byte	$00
	.byte	$00
	.byte	$19
	.byte	$19
	.byte	$19
	.byte	$19
	.byte	$19
	.byte	$19
	.byte	$00
	.byte	$00
	.byte	$00
	.byte	$00
	.byte	$00
	.byte	$00
	.byte	$00
	.byte	$00
	.byte	$00
	.byte	$00
	.byte	$00
	.byte	$00
	.byte	$00
	.byte	$00
	.byte	$00
	.byte	$00
	.byte	$18
	.byte	$18
	.byte	$18
	.byte	$18
	.byte	$18
	.byte	$18
	.byte	$18
	.byte	$18
	.byte	$18
	.byte	$18
	.byte	$18
	.byte	$18
	.byte	$18
	.byte	$18
	.byte	$18
	.byte	$18
	.byte	$01
	.byte	$05
	.byte	$05
	.byte	$05
	.byte	$01
	.byte	$05
	.byte	$05
	.byte	$05
	.byte	$01
	.byte	$05
	.byte	$05
	.byte	$05
	.byte	$01
	.byte	$05
	.byte	$05
	.byte	$05
_stereomadness__13:
	.byte	$00
	.byte	$00
	.byte	$00
	.byte	$00
	.byte	$00
	.byte	$00
	.byte	$00
	.byte	$00
	.byte	$00
	.byte	$00
	.byte	$00
	.byte	$00
	.byte	$00
	.byte	$00
	.byte	$00
	.byte	$00
	.byte	$00
	.byte	$00
	.byte	$00
	.byte	$00
	.byte	$00
	.byte	$00
	.byte	$00
	.byte	$00
	.byte	$00
	.byte	$00
	.byte	$00
	.byte	$00
	.byte	$00
	.byte	$00
	.byte	$00
	.byte	$00
	.byte	$00
	.byte	$00
	.byte	$00
	.byte	$00
	.byte	$00
	.byte	$00
	.byte	$00
	.byte	$00
	.byte	$00
	.byte	$00
	.byte	$00
	.byte	$00
	.byte	$00
	.byte	$00
	.byte	$00
	.byte	$00
	.byte	$00
	.byte	$00
	.byte	$00
	.byte	$00
	.byte	$00
	.byte	$00
	.byte	$00
	.byte	$00
	.byte	$00
	.byte	$00
	.byte	$00
	.byte	$00
	.byte	$00
	.byte	$00
	.byte	$00
	.byte	$00
	.byte	$00
	.byte	$00
	.byte	$00
	.byte	$00
	.byte	$00
	.byte	$00
	.byte	$00
	.byte	$00
	.byte	$00
	.byte	$00
	.byte	$00
	.byte	$00
	.byte	$00
	.byte	$00
	.byte	$00
	.byte	$00
	.byte	$00
	.byte	$00
	.byte	$00
	.byte	$00
	.byte	$00
	.byte	$00
	.byte	$00
	.byte	$00
	.byte	$00
	.byte	$00
	.byte	$00
	.byte	$00
	.byte	$00
	.byte	$00
	.byte	$00
	.byte	$00
	.byte	$00
	.byte	$00
	.byte	$00
	.byte	$00
	.byte	$00
	.byte	$00
	.byte	$00
	.byte	$00
	.byte	$00
	.byte	$00
	.byte	$00
	.byte	$00
	.byte	$00
	.byte	$00
	.byte	$00
	.byte	$00
	.byte	$00
	.byte	$00
	.byte	$00
	.byte	$00
	.byte	$00
	.byte	$00
	.byte	$00
	.byte	$00
	.byte	$00
	.byte	$00
	.byte	$00
	.byte	$00
	.byte	$00
	.byte	$00
	.byte	$00
	.byte	$00
	.byte	$00
	.byte	$00
	.byte	$00
	.byte	$00
	.byte	$00
	.byte	$00
	.byte	$00
	.byte	$00
	.byte	$00
	.byte	$00
	.byte	$00
	.byte	$00
	.byte	$00
	.byte	$00
	.byte	$00
	.byte	$00
	.byte	$00
	.byte	$00
	.byte	$00
	.byte	$00
	.byte	$00
	.byte	$00
	.byte	$00
	.byte	$00
	.byte	$00
	.byte	$00
	.byte	$00
	.byte	$00
	.byte	$00
	.byte	$00
	.byte	$00
	.byte	$00
	.byte	$11
	.byte	$00
	.byte	$00
	.byte	$00
	.byte	$00
	.byte	$00
	.byte	$00
	.byte	$00
	.byte	$00
	.byte	$00
	.byte	$00
	.byte	$00
	.byte	$00
	.byte	$00
	.byte	$19
	.byte	$00
	.byte	$19
	.byte	$00
	.byte	$00
	.byte	$00
	.byte	$00
	.byte	$00
	.byte	$00
	.byte	$00
	.byte	$00
	.byte	$00
	.byte	$19
	.byte	$00
	.byte	$00
	.byte	$00
	.byte	$00
	.byte	$00
	.byte	$00
	.byte	$00
	.byte	$19
	.byte	$19
	.byte	$19
	.byte	$19
	.byte	$19
	.byte	$00
	.byte	$00
	.byte	$00
	.byte	$00
	.byte	$00
	.byte	$00
	.byte	$00
	.byte	$00
	.byte	$00
	.byte	$18
	.byte	$18
	.byte	$18
	.byte	$18
	.byte	$18
	.byte	$18
	.byte	$18
	.byte	$18
	.byte	$18
	.byte	$18
	.byte	$18
	.byte	$18
	.byte	$18
	.byte	$18
	.byte	$18
	.byte	$18
	.byte	$01
	.byte	$05
	.byte	$05
	.byte	$05
	.byte	$01
	.byte	$05
	.byte	$05
	.byte	$05
	.byte	$01
	.byte	$05
	.byte	$05
	.byte	$05
	.byte	$01
	.byte	$05
	.byte	$05
	.byte	$05
_stereomadness__14:
	.byte	$00
	.byte	$00
	.byte	$00
	.byte	$00
	.byte	$00
	.byte	$00
	.byte	$00
	.byte	$00
	.byte	$00
	.byte	$00
	.byte	$00
	.byte	$00
	.byte	$00
	.byte	$00
	.byte	$00
	.byte	$00
	.byte	$00
	.byte	$00
	.byte	$00
	.byte	$00
	.byte	$00
	.byte	$00
	.byte	$00
	.byte	$00
	.byte	$00
	.byte	$00
	.byte	$00
	.byte	$00
	.byte	$00
	.byte	$00
	.byte	$00
	.byte	$00
	.byte	$00
	.byte	$00
	.byte	$00
	.byte	$00
	.byte	$00
	.byte	$00
	.byte	$00
	.byte	$00
	.byte	$00
	.byte	$00
	.byte	$00
	.byte	$00
	.byte	$00
	.byte	$00
	.byte	$00
	.byte	$00
	.byte	$00
	.byte	$00
	.byte	$00
	.byte	$00
	.byte	$00
	.byte	$00
	.byte	$00
	.byte	$00
	.byte	$00
	.byte	$00
	.byte	$00
	.byte	$00
	.byte	$00
	.byte	$00
	.byte	$00
	.byte	$00
	.byte	$00
	.byte	$00
	.byte	$00
	.byte	$00
	.byte	$00
	.byte	$00
	.byte	$00
	.byte	$00
	.byte	$00
	.byte	$00
	.byte	$00
	.byte	$00
	.byte	$00
	.byte	$00
	.byte	$00
	.byte	$00
	.byte	$00
	.byte	$00
	.byte	$00
	.byte	$00
	.byte	$00
	.byte	$00
	.byte	$00
	.byte	$00
	.byte	$00
	.byte	$00
	.byte	$00
	.byte	$00
	.byte	$00
	.byte	$00
	.byte	$11
	.byte	$00
	.byte	$00
	.byte	$00
	.byte	$00
	.byte	$00
	.byte	$00
	.byte	$00
	.byte	$00
	.byte	$00
	.byte	$00
	.byte	$00
	.byte	$00
	.byte	$00
	.byte	$00
	.byte	$00
	.byte	$19
	.byte	$00
	.byte	$00
	.byte	$00
	.byte	$00
	.byte	$00
	.byte	$00
	.byte	$00
	.byte	$00
	.byte	$00
	.byte	$00
	.byte	$00
	.byte	$19
	.byte	$00
	.byte	$00
	.byte	$00
	.byte	$00
	.byte	$00
	.byte	$00
	.byte	$00
	.byte	$00
	.byte	$00
	.byte	$00
	.byte	$00
	.byte	$19
	.byte	$00
	.byte	$00
	.byte	$00
	.byte	$00
	.byte	$00
	.byte	$00
	.byte	$00
	.byte	$00
	.byte	$00
	.byte	$00
	.byte	$00
	.byte	$19
	.byte	$00
	.byte	$00
	.byte	$00
	.byte	$00
	.byte	$00
	.byte	$00
	.byte	$00
	.byte	$00
	.byte	$00
	.byte	$00
	.byte	$00
	.byte	$00
	.byte	$00
	.byte	$00
	.byte	$00
	.byte	$00
	.byte	$00
	.byte	$00
	.byte	$00
	.byte	$00
	.byte	$00
	.byte	$00
	.byte	$00
	.byte	$00
	.byte	$00
	.byte	$33
	.byte	$2E
	.byte	$2E
	.byte	$2E
	.byte	$00
	.byte	$00
	.byte	$00
	.byte	$00
	.byte	$00
	.byte	$00
	.byte	$00
	.byte	$00
	.byte	$00
	.byte	$00
	.byte	$00
	.byte	$00
	.byte	$00
	.byte	$00
	.byte	$00
	.byte	$00
	.byte	$00
	.byte	$00
	.byte	$00
	.byte	$00
	.byte	$00
	.byte	$00
	.byte	$00
	.byte	$00
	.byte	$00
	.byte	$00
	.byte	$00
	.byte	$00
	.byte	$00
	.byte	$00
	.byte	$00
	.byte	$00
	.byte	$18
	.byte	$18
	.byte	$18
	.byte	$18
	.byte	$18
	.byte	$18
	.byte	$18
	.byte	$18
	.byte	$18
	.byte	$18
	.byte	$18
	.byte	$18
	.byte	$18
	.byte	$18
	.byte	$18
	.byte	$18
	.byte	$01
	.byte	$05
	.byte	$05
	.byte	$05
	.byte	$01
	.byte	$05
	.byte	$05
	.byte	$05
	.byte	$01
	.byte	$05
	.byte	$05
	.byte	$05
	.byte	$01
	.byte	$05
	.byte	$05
	.byte	$05
_stereomadness__15:
	.byte	$00
	.byte	$00
	.byte	$00
	.byte	$24
	.byte	$2F
	.byte	$2F
	.byte	$2F
	.byte	$2F
	.byte	$2F
	.byte	$2F
	.byte	$2F
	.byte	$2F
	.byte	$2F
	.byte	$2F
	.byte	$2F
	.byte	$2F
	.byte	$00
	.byte	$00
	.byte	$00
	.byte	$24
	.byte	$2F
	.byte	$2F
	.byte	$2F
	.byte	$2F
	.byte	$2F
	.byte	$2F
	.byte	$2F
	.byte	$2F
	.byte	$2F
	.byte	$2F
	.byte	$2F
	.byte	$2F
	.byte	$00
	.byte	$00
	.byte	$00
	.byte	$24
	.byte	$2F
	.byte	$2F
	.byte	$2F
	.byte	$2F
	.byte	$2F
	.byte	$2F
	.byte	$2F
	.byte	$2F
	.byte	$2F
	.byte	$2F
	.byte	$2F
	.byte	$2F
	.byte	$00
	.byte	$00
	.byte	$00
	.byte	$24
	.byte	$2F
	.byte	$2F
	.byte	$2F
	.byte	$2F
	.byte	$2F
	.byte	$2F
	.byte	$2F
	.byte	$2F
	.byte	$2F
	.byte	$2F
	.byte	$2F
	.byte	$2F
	.byte	$00
	.byte	$00
	.byte	$00
	.byte	$24
	.byte	$2F
	.byte	$2F
	.byte	$2F
	.byte	$2F
	.byte	$2F
	.byte	$2F
	.byte	$2F
	.byte	$2F
	.byte	$2F
	.byte	$2F
	.byte	$2F
	.byte	$2F
	.byte	$00
	.byte	$00
	.byte	$00
	.byte	$24
	.byte	$2F
	.byte	$2F
	.byte	$2F
	.byte	$2F
	.byte	$2F
	.byte	$2F
	.byte	$2F
	.byte	$2F
	.byte	$2F
	.byte	$2F
	.byte	$2F
	.byte	$2F
	.byte	$00
	.byte	$00
	.byte	$00
	.byte	$28
	.byte	$23
	.byte	$23
	.byte	$23
	.byte	$23
	.byte	$2C
	.byte	$2F
	.byte	$2F
	.byte	$2F
	.byte	$2F
	.byte	$2F
	.byte	$2F
	.byte	$2F
	.byte	$00
	.byte	$00
	.byte	$00
	.byte	$00
	.byte	$00
	.byte	$00
	.byte	$00
	.byte	$00
	.byte	$28
	.byte	$23
	.byte	$23
	.byte	$23
	.byte	$23
	.byte	$23
	.byte	$23
	.byte	$23
	.byte	$00
	.byte	$00
	.byte	$00
	.byte	$00
	.byte	$00
	.byte	$00
	.byte	$00
	.byte	$00
	.byte	$00
	.byte	$00
	.byte	$00
	.byte	$00
	.byte	$00
	.byte	$00
	.byte	$00
	.byte	$00
	.byte	$00
	.byte	$00
	.byte	$00
	.byte	$00
	.byte	$00
	.byte	$00
	.byte	$00
	.byte	$00
	.byte	$00
	.byte	$00
	.byte	$00
	.byte	$00
	.byte	$00
	.byte	$00
	.byte	$00
	.byte	$00
	.byte	$2E
	.byte	$2E
	.byte	$2E
	.byte	$21
	.byte	$21
	.byte	$21
	.byte	$21
	.byte	$21
	.byte	$21
	.byte	$21
	.byte	$21
	.byte	$21
	.byte	$21
	.byte	$21
	.byte	$21
	.byte	$21
	.byte	$00
	.byte	$00
	.byte	$00
	.byte	$24
	.byte	$2F
	.byte	$2F
	.byte	$2F
	.byte	$2F
	.byte	$2F
	.byte	$2F
	.byte	$2F
	.byte	$2F
	.byte	$2F
	.byte	$2F
	.byte	$2F
	.byte	$2F
	.byte	$00
	.byte	$00
	.byte	$00
	.byte	$24
	.byte	$2F
	.byte	$2F
	.byte	$2F
	.byte	$2F
	.byte	$2F
	.byte	$2F
	.byte	$2F
	.byte	$2F
	.byte	$2F
	.byte	$2F
	.byte	$2F
	.byte	$2F
	.byte	$18
	.byte	$18
	.byte	$18
	.byte	$24
	.byte	$2F
	.byte	$2F
	.byte	$2F
	.byte	$2F
	.byte	$2F
	.byte	$2F
	.byte	$2F
	.byte	$2F
	.byte	$2F
	.byte	$2F
	.byte	$2F
	.byte	$2F
	.byte	$01
	.byte	$05
	.byte	$05
	.byte	$05
	.byte	$01
	.byte	$05
	.byte	$05
	.byte	$05
	.byte	$01
	.byte	$05
	.byte	$05
	.byte	$05
	.byte	$01
	.byte	$05
	.byte	$05
	.byte	$05
_stereomadness__16:
	.byte	$2F
	.byte	$2F
	.byte	$2F
	.byte	$2F
	.byte	$2F
	.byte	$2F
	.byte	$2F
	.byte	$2F
	.byte	$2F
	.byte	$2F
	.byte	$22
	.byte	$07
	.byte	$03
	.byte	$07
	.byte	$07
	.byte	$07
	.byte	$2F
	.byte	$2F
	.byte	$2F
	.byte	$2F
	.byte	$2F
	.byte	$2F
	.byte	$2F
	.byte	$2F
	.byte	$2F
	.byte	$2F
	.byte	$22
	.byte	$07
	.byte	$03
	.byte	$07
	.byte	$07
	.byte	$07
	.byte	$2F
	.byte	$2F
	.byte	$2F
	.byte	$2F
	.byte	$2F
	.byte	$2F
	.byte	$2F
	.byte	$2F
	.byte	$2F
	.byte	$2F
	.byte	$22
	.byte	$06
	.byte	$02
	.byte	$06
	.byte	$06
	.byte	$06
	.byte	$2F
	.byte	$2F
	.byte	$2F
	.byte	$2F
	.byte	$2F
	.byte	$2F
	.byte	$2F
	.byte	$2F
	.byte	$2F
	.byte	$2F
	.byte	$22
	.byte	$06
	.byte	$02
	.byte	$06
	.byte	$06
	.byte	$06
	.byte	$2F
	.byte	$2F
	.byte	$2F
	.byte	$2F
	.byte	$2F
	.byte	$2F
	.byte	$2F
	.byte	$2F
	.byte	$2F
	.byte	$2F
	.byte	$22
	.byte	$00
	.byte	$00
	.byte	$00
	.byte	$00
	.byte	$00
	.byte	$2F
	.byte	$2F
	.byte	$2F
	.byte	$2F
	.byte	$2F
	.byte	$2F
	.byte	$2F
	.byte	$2F
	.byte	$2F
	.byte	$2F
	.byte	$22
	.byte	$00
	.byte	$00
	.byte	$00
	.byte	$00
	.byte	$00
	.byte	$2F
	.byte	$2F
	.byte	$2F
	.byte	$2F
	.byte	$2F
	.byte	$2B
	.byte	$23
	.byte	$23
	.byte	$23
	.byte	$23
	.byte	$27
	.byte	$00
	.byte	$00
	.byte	$00
	.byte	$00
	.byte	$00
	.byte	$23
	.byte	$23
	.byte	$23
	.byte	$23
	.byte	$23
	.byte	$27
	.byte	$00
	.byte	$00
	.byte	$00
	.byte	$00
	.byte	$00
	.byte	$00
	.byte	$00
	.byte	$00
	.byte	$00
	.byte	$00
	.byte	$00
	.byte	$00
	.byte	$00
	.byte	$00
	.byte	$00
	.byte	$00
	.byte	$00
	.byte	$00
	.byte	$00
	.byte	$00
	.byte	$00
	.byte	$00
	.byte	$00
	.byte	$00
	.byte	$00
	.byte	$00
	.byte	$00
	.byte	$00
	.byte	$00
	.byte	$00
	.byte	$00
	.byte	$00
	.byte	$00
	.byte	$00
	.byte	$00
	.byte	$00
	.byte	$00
	.byte	$00
	.byte	$00
	.byte	$00
	.byte	$00
	.byte	$00
	.byte	$21
	.byte	$21
	.byte	$21
	.byte	$21
	.byte	$21
	.byte	$21
	.byte	$21
	.byte	$21
	.byte	$21
	.byte	$21
	.byte	$26
	.byte	$00
	.byte	$00
	.byte	$00
	.byte	$00
	.byte	$00
	.byte	$2F
	.byte	$2F
	.byte	$2F
	.byte	$2F
	.byte	$2F
	.byte	$2F
	.byte	$2F
	.byte	$2F
	.byte	$2F
	.byte	$2F
	.byte	$22
	.byte	$00
	.byte	$00
	.byte	$00
	.byte	$00
	.byte	$00
	.byte	$2F
	.byte	$2F
	.byte	$2F
	.byte	$2F
	.byte	$2F
	.byte	$2F
	.byte	$2F
	.byte	$2F
	.byte	$2F
	.byte	$2F
	.byte	$22
	.byte	$00
	.byte	$00
	.byte	$00
	.byte	$00
	.byte	$00
	.byte	$2F
	.byte	$2F
	.byte	$2F
	.byte	$2F
	.byte	$2F
	.byte	$2F
	.byte	$2F
	.byte	$2F
	.byte	$2F
	.byte	$2F
	.byte	$22
	.byte	$00
	.byte	$00
	.byte	$00
	.byte	$00
	.byte	$00
	.byte	$01
	.byte	$05
	.byte	$05
	.byte	$05
	.byte	$01
	.byte	$05
	.byte	$05
	.byte	$05
	.byte	$01
	.byte	$05
	.byte	$05
	.byte	$05
	.byte	$01
	.byte	$05
	.byte	$05
	.byte	$05
_stereomadness__17:
	.byte	$03
	.byte	$07
	.byte	$07
	.byte	$07
	.byte	$03
	.byte	$07
	.byte	$07
	.byte	$07
	.byte	$03
	.byte	$07
	.byte	$07
	.byte	$07
	.byte	$03
	.byte	$07
	.byte	$07
	.byte	$07
	.byte	$03
	.byte	$07
	.byte	$07
	.byte	$07
	.byte	$03
	.byte	$07
	.byte	$07
	.byte	$07
	.byte	$03
	.byte	$07
	.byte	$07
	.byte	$07
	.byte	$03
	.byte	$07
	.byte	$07
	.byte	$07
	.byte	$02
	.byte	$06
	.byte	$06
	.byte	$06
	.byte	$02
	.byte	$06
	.byte	$06
	.byte	$06
	.byte	$02
	.byte	$06
	.byte	$06
	.byte	$06
	.byte	$02
	.byte	$06
	.byte	$06
	.byte	$06
	.byte	$02
	.byte	$06
	.byte	$06
	.byte	$06
	.byte	$02
	.byte	$06
	.byte	$06
	.byte	$06
	.byte	$02
	.byte	$06
	.byte	$06
	.byte	$06
	.byte	$02
	.byte	$06
	.byte	$06
	.byte	$06
	.byte	$00
	.byte	$00
	.byte	$00
	.byte	$00
	.byte	$00
	.byte	$00
	.byte	$00
	.byte	$00
	.byte	$00
	.byte	$00
	.byte	$00
	.byte	$00
	.byte	$00
	.byte	$00
	.byte	$00
	.byte	$00
	.byte	$00
	.byte	$00
	.byte	$00
	.byte	$00
	.byte	$00
	.byte	$00
	.byte	$00
	.byte	$00
	.byte	$00
	.byte	$00
	.byte	$00
	.byte	$00
	.byte	$00
	.byte	$00
	.byte	$00
	.byte	$00
	.byte	$00
	.byte	$00
	.byte	$00
	.byte	$00
	.byte	$00
	.byte	$00
	.byte	$00
	.byte	$00
	.byte	$00
	.byte	$00
	.byte	$00
	.byte	$00
	.byte	$00
	.byte	$00
	.byte	$00
	.byte	$00
	.byte	$00
	.byte	$00
	.byte	$00
	.byte	$00
	.byte	$00
	.byte	$00
	.byte	$00
	.byte	$00
	.byte	$00
	.byte	$00
	.byte	$00
	.byte	$00
	.byte	$00
	.byte	$00
	.byte	$00
	.byte	$00
	.byte	$00
	.byte	$00
	.byte	$00
	.byte	$00
	.byte	$00
	.byte	$00
	.byte	$00
	.byte	$00
	.byte	$00
	.byte	$00
	.byte	$00
	.byte	$00
	.byte	$00
	.byte	$00
	.byte	$00
	.byte	$00
	.byte	$00
	.byte	$00
	.byte	$00
	.byte	$00
	.byte	$00
	.byte	$00
	.byte	$00
	.byte	$00
	.byte	$00
	.byte	$00
	.byte	$00
	.byte	$00
	.byte	$00
	.byte	$00
	.byte	$00
	.byte	$00
	.byte	$00
	.byte	$00
	.byte	$00
	.byte	$00
	.byte	$00
	.byte	$00
	.byte	$00
	.byte	$00
	.byte	$00
	.byte	$00
	.byte	$00
	.byte	$00
	.byte	$00
	.byte	$00
	.byte	$00
	.byte	$00
	.byte	$00
	.byte	$00
	.byte	$00
	.byte	$00
	.byte	$00
	.byte	$00
	.byte	$00
	.byte	$00
	.byte	$00
	.byte	$00
	.byte	$00
	.byte	$00
	.byte	$00
	.byte	$00
	.byte	$00
	.byte	$00
	.byte	$00
	.byte	$00
	.byte	$00
	.byte	$00
	.byte	$00
	.byte	$00
	.byte	$00
	.byte	$00
	.byte	$00
	.byte	$00
	.byte	$00
	.byte	$00
	.byte	$00
	.byte	$00
	.byte	$00
	.byte	$00
	.byte	$00
	.byte	$00
	.byte	$00
	.byte	$00
	.byte	$00
	.byte	$00
	.byte	$00
	.byte	$00
	.byte	$00
	.byte	$00
	.byte	$00
	.byte	$00
	.byte	$00
	.byte	$00
	.byte	$00
	.byte	$00
	.byte	$01
	.byte	$05
	.byte	$05
	.byte	$05
	.byte	$01
	.byte	$05
	.byte	$05
	.byte	$05
	.byte	$01
	.byte	$05
	.byte	$05
	.byte	$05
	.byte	$01
	.byte	$05
	.byte	$05
	.byte	$05
_stereomadness__18:
	.byte	$03
	.byte	$07
	.byte	$07
	.byte	$07
	.byte	$03
	.byte	$07
	.byte	$07
	.byte	$07
	.byte	$03
	.byte	$07
	.byte	$07
	.byte	$07
	.byte	$03
	.byte	$07
	.byte	$07
	.byte	$07
	.byte	$03
	.byte	$07
	.byte	$07
	.byte	$07
	.byte	$03
	.byte	$07
	.byte	$07
	.byte	$07
	.byte	$03
	.byte	$07
	.byte	$07
	.byte	$07
	.byte	$03
	.byte	$07
	.byte	$07
	.byte	$07
	.byte	$02
	.byte	$06
	.byte	$06
	.byte	$06
	.byte	$02
	.byte	$06
	.byte	$06
	.byte	$06
	.byte	$02
	.byte	$06
	.byte	$06
	.byte	$06
	.byte	$02
	.byte	$06
	.byte	$06
	.byte	$06
	.byte	$02
	.byte	$06
	.byte	$06
	.byte	$06
	.byte	$02
	.byte	$06
	.byte	$06
	.byte	$06
	.byte	$02
	.byte	$06
	.byte	$06
	.byte	$06
	.byte	$02
	.byte	$06
	.byte	$06
	.byte	$06
	.byte	$00
	.byte	$00
	.byte	$00
	.byte	$00
	.byte	$00
	.byte	$00
	.byte	$00
	.byte	$00
	.byte	$00
	.byte	$00
	.byte	$00
	.byte	$00
	.byte	$00
	.byte	$2D
	.byte	$00
	.byte	$00
	.byte	$00
	.byte	$00
	.byte	$00
	.byte	$00
	.byte	$00
	.byte	$00
	.byte	$00
	.byte	$00
	.byte	$00
	.byte	$00
	.byte	$00
	.byte	$00
	.byte	$00
	.byte	$2D
	.byte	$00
	.byte	$00
	.byte	$00
	.byte	$00
	.byte	$00
	.byte	$00
	.byte	$00
	.byte	$00
	.byte	$00
	.byte	$00
	.byte	$00
	.byte	$00
	.byte	$00
	.byte	$00
	.byte	$00
	.byte	$32
	.byte	$00
	.byte	$00
	.byte	$00
	.byte	$00
	.byte	$00
	.byte	$00
	.byte	$00
	.byte	$00
	.byte	$00
	.byte	$00
	.byte	$00
	.byte	$00
	.byte	$00
	.byte	$00
	.byte	$00
	.byte	$00
	.byte	$00
	.byte	$00
	.byte	$00
	.byte	$00
	.byte	$00
	.byte	$00
	.byte	$00
	.byte	$00
	.byte	$00
	.byte	$00
	.byte	$00
	.byte	$00
	.byte	$00
	.byte	$00
	.byte	$00
	.byte	$00
	.byte	$00
	.byte	$00
	.byte	$00
	.byte	$00
	.byte	$00
	.byte	$00
	.byte	$00
	.byte	$00
	.byte	$00
	.byte	$00
	.byte	$00
	.byte	$00
	.byte	$00
	.byte	$00
	.byte	$00
	.byte	$00
	.byte	$00
	.byte	$00
	.byte	$00
	.byte	$00
	.byte	$00
	.byte	$00
	.byte	$00
	.byte	$00
	.byte	$00
	.byte	$00
	.byte	$00
	.byte	$00
	.byte	$00
	.byte	$00
	.byte	$00
	.byte	$00
	.byte	$00
	.byte	$00
	.byte	$00
	.byte	$00
	.byte	$00
	.byte	$00
	.byte	$00
	.byte	$00
	.byte	$00
	.byte	$00
	.byte	$00
	.byte	$00
	.byte	$00
	.byte	$00
	.byte	$00
	.byte	$00
	.byte	$00
	.byte	$00
	.byte	$00
	.byte	$00
	.byte	$00
	.byte	$00
	.byte	$00
	.byte	$00
	.byte	$00
	.byte	$00
	.byte	$00
	.byte	$00
	.byte	$00
	.byte	$00
	.byte	$00
	.byte	$00
	.byte	$00
	.byte	$00
	.byte	$00
	.byte	$00
	.byte	$00
	.byte	$00
	.byte	$00
	.byte	$00
	.byte	$00
	.byte	$00
	.byte	$00
	.byte	$00
	.byte	$00
	.byte	$00
	.byte	$00
	.byte	$00
	.byte	$00
	.byte	$00
	.byte	$01
	.byte	$05
	.byte	$05
	.byte	$05
	.byte	$01
	.byte	$05
	.byte	$05
	.byte	$05
	.byte	$01
	.byte	$05
	.byte	$05
	.byte	$05
	.byte	$01
	.byte	$05
	.byte	$05
	.byte	$05
_stereomadness__19:
	.byte	$03
	.byte	$07
	.byte	$07
	.byte	$07
	.byte	$03
	.byte	$07
	.byte	$07
	.byte	$07
	.byte	$03
	.byte	$07
	.byte	$07
	.byte	$07
	.byte	$03
	.byte	$07
	.byte	$07
	.byte	$07
	.byte	$03
	.byte	$07
	.byte	$07
	.byte	$07
	.byte	$03
	.byte	$07
	.byte	$07
	.byte	$07
	.byte	$03
	.byte	$07
	.byte	$07
	.byte	$07
	.byte	$03
	.byte	$07
	.byte	$07
	.byte	$07
	.byte	$02
	.byte	$06
	.byte	$06
	.byte	$06
	.byte	$02
	.byte	$06
	.byte	$06
	.byte	$06
	.byte	$02
	.byte	$06
	.byte	$06
	.byte	$06
	.byte	$02
	.byte	$06
	.byte	$06
	.byte	$06
	.byte	$02
	.byte	$06
	.byte	$06
	.byte	$06
	.byte	$02
	.byte	$06
	.byte	$06
	.byte	$06
	.byte	$02
	.byte	$06
	.byte	$06
	.byte	$06
	.byte	$02
	.byte	$06
	.byte	$06
	.byte	$06
	.byte	$00
	.byte	$00
	.byte	$00
	.byte	$00
	.byte	$00
	.byte	$00
	.byte	$00
	.byte	$00
	.byte	$00
	.byte	$00
	.byte	$32
	.byte	$1B
	.byte	$1B
	.byte	$1B
	.byte	$1B
	.byte	$1B
	.byte	$00
	.byte	$00
	.byte	$00
	.byte	$00
	.byte	$00
	.byte	$00
	.byte	$00
	.byte	$00
	.byte	$00
	.byte	$00
	.byte	$00
	.byte	$00
	.byte	$00
	.byte	$00
	.byte	$00
	.byte	$00
	.byte	$00
	.byte	$00
	.byte	$00
	.byte	$00
	.byte	$00
	.byte	$00
	.byte	$00
	.byte	$00
	.byte	$00
	.byte	$00
	.byte	$00
	.byte	$00
	.byte	$00
	.byte	$00
	.byte	$00
	.byte	$00
	.byte	$00
	.byte	$00
	.byte	$00
	.byte	$00
	.byte	$00
	.byte	$00
	.byte	$00
	.byte	$00
	.byte	$00
	.byte	$00
	.byte	$00
	.byte	$00
	.byte	$00
	.byte	$00
	.byte	$00
	.byte	$00
	.byte	$00
	.byte	$00
	.byte	$00
	.byte	$00
	.byte	$00
	.byte	$00
	.byte	$00
	.byte	$00
	.byte	$00
	.byte	$00
	.byte	$00
	.byte	$00
	.byte	$00
	.byte	$00
	.byte	$00
	.byte	$00
	.byte	$00
	.byte	$00
	.byte	$00
	.byte	$00
	.byte	$00
	.byte	$00
	.byte	$00
	.byte	$00
	.byte	$00
	.byte	$00
	.byte	$00
	.byte	$00
	.byte	$00
	.byte	$00
	.byte	$00
	.byte	$00
	.byte	$00
	.byte	$00
	.byte	$00
	.byte	$00
	.byte	$00
	.byte	$00
	.byte	$00
	.byte	$00
	.byte	$00
	.byte	$00
	.byte	$00
	.byte	$00
	.byte	$00
	.byte	$00
	.byte	$00
	.byte	$00
	.byte	$00
	.byte	$00
	.byte	$00
	.byte	$00
	.byte	$00
	.byte	$00
	.byte	$00
	.byte	$00
	.byte	$00
	.byte	$00
	.byte	$00
	.byte	$00
	.byte	$00
	.byte	$00
	.byte	$00
	.byte	$00
	.byte	$00
	.byte	$00
	.byte	$00
	.byte	$00
	.byte	$00
	.byte	$00
	.byte	$00
	.byte	$00
	.byte	$00
	.byte	$00
	.byte	$00
	.byte	$00
	.byte	$00
	.byte	$00
	.byte	$00
	.byte	$00
	.byte	$00
	.byte	$00
	.byte	$00
	.byte	$00
	.byte	$00
	.byte	$00
	.byte	$00
	.byte	$00
	.byte	$00
	.byte	$00
	.byte	$30
	.byte	$11
	.byte	$11
	.byte	$11
	.byte	$11
	.byte	$11
	.byte	$01
	.byte	$05
	.byte	$05
	.byte	$05
	.byte	$01
	.byte	$05
	.byte	$05
	.byte	$05
	.byte	$01
	.byte	$05
	.byte	$05
	.byte	$05
	.byte	$01
	.byte	$05
	.byte	$05
	.byte	$05
_stereomadness__20:
	.byte	$03
	.byte	$07
	.byte	$07
	.byte	$07
	.byte	$03
	.byte	$07
	.byte	$07
	.byte	$07
	.byte	$03
	.byte	$07
	.byte	$07
	.byte	$07
	.byte	$03
	.byte	$07
	.byte	$07
	.byte	$07
	.byte	$03
	.byte	$07
	.byte	$07
	.byte	$07
	.byte	$03
	.byte	$07
	.byte	$07
	.byte	$07
	.byte	$03
	.byte	$07
	.byte	$07
	.byte	$07
	.byte	$03
	.byte	$07
	.byte	$07
	.byte	$07
	.byte	$02
	.byte	$06
	.byte	$06
	.byte	$06
	.byte	$02
	.byte	$06
	.byte	$06
	.byte	$06
	.byte	$02
	.byte	$06
	.byte	$06
	.byte	$06
	.byte	$02
	.byte	$06
	.byte	$06
	.byte	$06
	.byte	$02
	.byte	$06
	.byte	$06
	.byte	$06
	.byte	$02
	.byte	$06
	.byte	$06
	.byte	$06
	.byte	$02
	.byte	$06
	.byte	$06
	.byte	$06
	.byte	$02
	.byte	$06
	.byte	$06
	.byte	$06
	.byte	$1B
	.byte	$1B
	.byte	$1B
	.byte	$1B
	.byte	$1B
	.byte	$1B
	.byte	$1B
	.byte	$1B
	.byte	$1B
	.byte	$32
	.byte	$00
	.byte	$00
	.byte	$00
	.byte	$00
	.byte	$00
	.byte	$00
	.byte	$00
	.byte	$00
	.byte	$00
	.byte	$00
	.byte	$00
	.byte	$00
	.byte	$00
	.byte	$00
	.byte	$00
	.byte	$00
	.byte	$00
	.byte	$00
	.byte	$00
	.byte	$00
	.byte	$00
	.byte	$00
	.byte	$00
	.byte	$00
	.byte	$00
	.byte	$00
	.byte	$00
	.byte	$00
	.byte	$00
	.byte	$00
	.byte	$00
	.byte	$00
	.byte	$00
	.byte	$00
	.byte	$00
	.byte	$00
	.byte	$00
	.byte	$00
	.byte	$00
	.byte	$00
	.byte	$00
	.byte	$00
	.byte	$00
	.byte	$00
	.byte	$00
	.byte	$00
	.byte	$00
	.byte	$00
	.byte	$00
	.byte	$00
	.byte	$00
	.byte	$00
	.byte	$00
	.byte	$00
	.byte	$00
	.byte	$00
	.byte	$00
	.byte	$00
	.byte	$00
	.byte	$00
	.byte	$00
	.byte	$00
	.byte	$00
	.byte	$00
	.byte	$00
	.byte	$00
	.byte	$00
	.byte	$00
	.byte	$00
	.byte	$00
	.byte	$00
	.byte	$00
	.byte	$00
	.byte	$00
	.byte	$00
	.byte	$00
	.byte	$00
	.byte	$00
	.byte	$00
	.byte	$00
	.byte	$00
	.byte	$00
	.byte	$00
	.byte	$00
	.byte	$00
	.byte	$00
	.byte	$00
	.byte	$00
	.byte	$00
	.byte	$00
	.byte	$00
	.byte	$00
	.byte	$00
	.byte	$00
	.byte	$00
	.byte	$00
	.byte	$00
	.byte	$00
	.byte	$00
	.byte	$00
	.byte	$00
	.byte	$00
	.byte	$00
	.byte	$00
	.byte	$00
	.byte	$00
	.byte	$00
	.byte	$00
	.byte	$00
	.byte	$00
	.byte	$00
	.byte	$00
	.byte	$00
	.byte	$00
	.byte	$00
	.byte	$00
	.byte	$00
	.byte	$00
	.byte	$00
	.byte	$00
	.byte	$00
	.byte	$00
	.byte	$00
	.byte	$00
	.byte	$00
	.byte	$00
	.byte	$00
	.byte	$00
	.byte	$00
	.byte	$00
	.byte	$00
	.byte	$00
	.byte	$00
	.byte	$00
	.byte	$11
	.byte	$11
	.byte	$11
	.byte	$11
	.byte	$11
	.byte	$11
	.byte	$11
	.byte	$11
	.byte	$11
	.byte	$30
	.byte	$00
	.byte	$00
	.byte	$00
	.byte	$00
	.byte	$00
	.byte	$00
	.byte	$01
	.byte	$05
	.byte	$05
	.byte	$05
	.byte	$01
	.byte	$05
	.byte	$05
	.byte	$05
	.byte	$01
	.byte	$05
	.byte	$05
	.byte	$05
	.byte	$01
	.byte	$05
	.byte	$05
	.byte	$05
_stereomadness__21:
	.byte	$03
	.byte	$07
	.byte	$07
	.byte	$07
	.byte	$03
	.byte	$07
	.byte	$07
	.byte	$07
	.byte	$03
	.byte	$07
	.byte	$07
	.byte	$07
	.byte	$03
	.byte	$07
	.byte	$07
	.byte	$07
	.byte	$03
	.byte	$07
	.byte	$07
	.byte	$07
	.byte	$03
	.byte	$07
	.byte	$07
	.byte	$07
	.byte	$03
	.byte	$07
	.byte	$07
	.byte	$07
	.byte	$03
	.byte	$07
	.byte	$07
	.byte	$07
	.byte	$02
	.byte	$06
	.byte	$06
	.byte	$06
	.byte	$02
	.byte	$06
	.byte	$06
	.byte	$06
	.byte	$02
	.byte	$06
	.byte	$06
	.byte	$06
	.byte	$02
	.byte	$06
	.byte	$06
	.byte	$06
	.byte	$02
	.byte	$06
	.byte	$06
	.byte	$06
	.byte	$02
	.byte	$06
	.byte	$06
	.byte	$06
	.byte	$02
	.byte	$06
	.byte	$06
	.byte	$06
	.byte	$02
	.byte	$06
	.byte	$06
	.byte	$06
	.byte	$00
	.byte	$00
	.byte	$00
	.byte	$00
	.byte	$00
	.byte	$00
	.byte	$00
	.byte	$00
	.byte	$00
	.byte	$00
	.byte	$00
	.byte	$00
	.byte	$00
	.byte	$00
	.byte	$00
	.byte	$00
	.byte	$00
	.byte	$00
	.byte	$00
	.byte	$00
	.byte	$00
	.byte	$00
	.byte	$00
	.byte	$00
	.byte	$00
	.byte	$00
	.byte	$00
	.byte	$00
	.byte	$00
	.byte	$00
	.byte	$00
	.byte	$00
	.byte	$00
	.byte	$00
	.byte	$00
	.byte	$00
	.byte	$00
	.byte	$00
	.byte	$00
	.byte	$00
	.byte	$00
	.byte	$00
	.byte	$00
	.byte	$00
	.byte	$00
	.byte	$00
	.byte	$00
	.byte	$00
	.byte	$00
	.byte	$00
	.byte	$00
	.byte	$00
	.byte	$00
	.byte	$00
	.byte	$00
	.byte	$00
	.byte	$00
	.byte	$00
	.byte	$00
	.byte	$00
	.byte	$00
	.byte	$00
	.byte	$00
	.byte	$00
	.byte	$00
	.byte	$00
	.byte	$00
	.byte	$00
	.byte	$00
	.byte	$00
	.byte	$00
	.byte	$00
	.byte	$00
	.byte	$00
	.byte	$00
	.byte	$00
	.byte	$00
	.byte	$00
	.byte	$00
	.byte	$00
	.byte	$00
	.byte	$00
	.byte	$00
	.byte	$00
	.byte	$00
	.byte	$00
	.byte	$00
	.byte	$00
	.byte	$00
	.byte	$00
	.byte	$00
	.byte	$00
	.byte	$00
	.byte	$00
	.byte	$00
	.byte	$00
	.byte	$00
	.byte	$00
	.byte	$00
	.byte	$00
	.byte	$00
	.byte	$00
	.byte	$00
	.byte	$00
	.byte	$00
	.byte	$00
	.byte	$00
	.byte	$00
	.byte	$00
	.byte	$00
	.byte	$00
	.byte	$00
	.byte	$00
	.byte	$00
	.byte	$00
	.byte	$00
	.byte	$00
	.byte	$00
	.byte	$00
	.byte	$00
	.byte	$00
	.byte	$00
	.byte	$00
	.byte	$00
	.byte	$00
	.byte	$00
	.byte	$00
	.byte	$00
	.byte	$00
	.byte	$00
	.byte	$00
	.byte	$00
	.byte	$00
	.byte	$00
	.byte	$30
	.byte	$00
	.byte	$00
	.byte	$00
	.byte	$00
	.byte	$00
	.byte	$00
	.byte	$00
	.byte	$00
	.byte	$00
	.byte	$00
	.byte	$00
	.byte	$00
	.byte	$00
	.byte	$00
	.byte	$00
	.byte	$2D
	.byte	$11
	.byte	$11
	.byte	$11
	.byte	$11
	.byte	$00
	.byte	$00
	.byte	$00
	.byte	$00
	.byte	$00
	.byte	$01
	.byte	$05
	.byte	$05
	.byte	$05
	.byte	$01
	.byte	$05
	.byte	$05
	.byte	$05
	.byte	$01
	.byte	$05
	.byte	$05
	.byte	$05
	.byte	$01
	.byte	$05
	.byte	$05
	.byte	$05
_stereomadness__22:
	.byte	$03
	.byte	$07
	.byte	$07
	.byte	$07
	.byte	$03
	.byte	$07
	.byte	$07
	.byte	$07
	.byte	$03
	.byte	$07
	.byte	$07
	.byte	$07
	.byte	$03
	.byte	$07
	.byte	$07
	.byte	$07
	.byte	$03
	.byte	$07
	.byte	$07
	.byte	$07
	.byte	$03
	.byte	$07
	.byte	$07
	.byte	$07
	.byte	$03
	.byte	$07
	.byte	$07
	.byte	$07
	.byte	$03
	.byte	$07
	.byte	$07
	.byte	$07
	.byte	$02
	.byte	$06
	.byte	$06
	.byte	$06
	.byte	$02
	.byte	$06
	.byte	$06
	.byte	$06
	.byte	$02
	.byte	$06
	.byte	$06
	.byte	$06
	.byte	$02
	.byte	$06
	.byte	$06
	.byte	$06
	.byte	$02
	.byte	$06
	.byte	$06
	.byte	$06
	.byte	$02
	.byte	$06
	.byte	$06
	.byte	$06
	.byte	$02
	.byte	$06
	.byte	$06
	.byte	$06
	.byte	$02
	.byte	$06
	.byte	$06
	.byte	$06
	.byte	$00
	.byte	$00
	.byte	$00
	.byte	$2D
	.byte	$1B
	.byte	$1B
	.byte	$1B
	.byte	$1B
	.byte	$00
	.byte	$00
	.byte	$00
	.byte	$00
	.byte	$00
	.byte	$00
	.byte	$00
	.byte	$00
	.byte	$00
	.byte	$00
	.byte	$00
	.byte	$32
	.byte	$00
	.byte	$00
	.byte	$00
	.byte	$00
	.byte	$00
	.byte	$00
	.byte	$00
	.byte	$00
	.byte	$00
	.byte	$00
	.byte	$00
	.byte	$00
	.byte	$00
	.byte	$00
	.byte	$00
	.byte	$00
	.byte	$00
	.byte	$00
	.byte	$00
	.byte	$00
	.byte	$00
	.byte	$00
	.byte	$00
	.byte	$00
	.byte	$00
	.byte	$00
	.byte	$00
	.byte	$00
	.byte	$00
	.byte	$00
	.byte	$00
	.byte	$00
	.byte	$00
	.byte	$00
	.byte	$00
	.byte	$00
	.byte	$00
	.byte	$00
	.byte	$00
	.byte	$00
	.byte	$00
	.byte	$00
	.byte	$00
	.byte	$00
	.byte	$00
	.byte	$00
	.byte	$00
	.byte	$00
	.byte	$00
	.byte	$00
	.byte	$00
	.byte	$00
	.byte	$00
	.byte	$00
	.byte	$00
	.byte	$00
	.byte	$00
	.byte	$00
	.byte	$00
	.byte	$00
	.byte	$00
	.byte	$00
	.byte	$00
	.byte	$00
	.byte	$00
	.byte	$00
	.byte	$00
	.byte	$00
	.byte	$00
	.byte	$00
	.byte	$00
	.byte	$00
	.byte	$00
	.byte	$00
	.byte	$00
	.byte	$00
	.byte	$00
	.byte	$00
	.byte	$00
	.byte	$00
	.byte	$00
	.byte	$00
	.byte	$00
	.byte	$00
	.byte	$00
	.byte	$00
	.byte	$00
	.byte	$00
	.byte	$00
	.byte	$00
	.byte	$00
	.byte	$00
	.byte	$00
	.byte	$00
	.byte	$00
	.byte	$00
	.byte	$00
	.byte	$00
	.byte	$00
	.byte	$00
	.byte	$00
	.byte	$00
	.byte	$00
	.byte	$00
	.byte	$00
	.byte	$00
	.byte	$00
	.byte	$00
	.byte	$00
	.byte	$00
	.byte	$00
	.byte	$00
	.byte	$00
	.byte	$00
	.byte	$00
	.byte	$00
	.byte	$00
	.byte	$00
	.byte	$00
	.byte	$00
	.byte	$00
	.byte	$00
	.byte	$00
	.byte	$00
	.byte	$00
	.byte	$00
	.byte	$00
	.byte	$00
	.byte	$00
	.byte	$00
	.byte	$00
	.byte	$00
	.byte	$00
	.byte	$00
	.byte	$00
	.byte	$00
	.byte	$30
	.byte	$11
	.byte	$11
	.byte	$11
	.byte	$01
	.byte	$05
	.byte	$05
	.byte	$05
	.byte	$01
	.byte	$05
	.byte	$05
	.byte	$05
	.byte	$01
	.byte	$05
	.byte	$05
	.byte	$05
	.byte	$01
	.byte	$05
	.byte	$05
	.byte	$05
_stereomadness__23:
	.byte	$03
	.byte	$07
	.byte	$07
	.byte	$07
	.byte	$03
	.byte	$07
	.byte	$07
	.byte	$07
	.byte	$03
	.byte	$07
	.byte	$07
	.byte	$07
	.byte	$03
	.byte	$07
	.byte	$07
	.byte	$07
	.byte	$03
	.byte	$07
	.byte	$07
	.byte	$07
	.byte	$03
	.byte	$07
	.byte	$07
	.byte	$07
	.byte	$03
	.byte	$07
	.byte	$07
	.byte	$07
	.byte	$03
	.byte	$07
	.byte	$07
	.byte	$07
	.byte	$02
	.byte	$06
	.byte	$06
	.byte	$06
	.byte	$02
	.byte	$06
	.byte	$06
	.byte	$06
	.byte	$02
	.byte	$06
	.byte	$06
	.byte	$06
	.byte	$02
	.byte	$06
	.byte	$06
	.byte	$06
	.byte	$02
	.byte	$06
	.byte	$06
	.byte	$06
	.byte	$02
	.byte	$06
	.byte	$06
	.byte	$06
	.byte	$02
	.byte	$06
	.byte	$06
	.byte	$06
	.byte	$02
	.byte	$06
	.byte	$06
	.byte	$06
	.byte	$00
	.byte	$00
	.byte	$00
	.byte	$00
	.byte	$00
	.byte	$00
	.byte	$00
	.byte	$00
	.byte	$00
	.byte	$00
	.byte	$00
	.byte	$00
	.byte	$00
	.byte	$00
	.byte	$00
	.byte	$00
	.byte	$00
	.byte	$00
	.byte	$00
	.byte	$00
	.byte	$00
	.byte	$00
	.byte	$00
	.byte	$00
	.byte	$00
	.byte	$00
	.byte	$00
	.byte	$00
	.byte	$00
	.byte	$00
	.byte	$00
	.byte	$00
	.byte	$00
	.byte	$00
	.byte	$00
	.byte	$00
	.byte	$00
	.byte	$00
	.byte	$00
	.byte	$00
	.byte	$00
	.byte	$00
	.byte	$00
	.byte	$00
	.byte	$00
	.byte	$00
	.byte	$00
	.byte	$00
	.byte	$00
	.byte	$00
	.byte	$00
	.byte	$00
	.byte	$00
	.byte	$00
	.byte	$00
	.byte	$00
	.byte	$00
	.byte	$00
	.byte	$00
	.byte	$00
	.byte	$00
	.byte	$00
	.byte	$00
	.byte	$00
	.byte	$00
	.byte	$00
	.byte	$00
	.byte	$00
	.byte	$00
	.byte	$00
	.byte	$00
	.byte	$00
	.byte	$00
	.byte	$00
	.byte	$00
	.byte	$00
	.byte	$00
	.byte	$00
	.byte	$00
	.byte	$00
	.byte	$00
	.byte	$00
	.byte	$00
	.byte	$00
	.byte	$00
	.byte	$00
	.byte	$00
	.byte	$00
	.byte	$00
	.byte	$00
	.byte	$00
	.byte	$00
	.byte	$00
	.byte	$00
	.byte	$00
	.byte	$00
	.byte	$00
	.byte	$00
	.byte	$00
	.byte	$00
	.byte	$00
	.byte	$00
	.byte	$00
	.byte	$00
	.byte	$00
	.byte	$00
	.byte	$00
	.byte	$00
	.byte	$00
	.byte	$00
	.byte	$00
	.byte	$00
	.byte	$00
	.byte	$00
	.byte	$00
	.byte	$00
	.byte	$00
	.byte	$00
	.byte	$00
	.byte	$00
	.byte	$30
	.byte	$00
	.byte	$00
	.byte	$00
	.byte	$00
	.byte	$00
	.byte	$00
	.byte	$00
	.byte	$00
	.byte	$00
	.byte	$30
	.byte	$00
	.byte	$00
	.byte	$00
	.byte	$00
	.byte	$00
	.byte	$2D
	.byte	$00
	.byte	$00
	.byte	$00
	.byte	$00
	.byte	$00
	.byte	$00
	.byte	$00
	.byte	$11
	.byte	$11
	.byte	$2D
	.byte	$11
	.byte	$11
	.byte	$11
	.byte	$11
	.byte	$11
	.byte	$2D
	.byte	$00
	.byte	$00
	.byte	$00
	.byte	$00
	.byte	$00
	.byte	$00
	.byte	$00
	.byte	$01
	.byte	$05
	.byte	$05
	.byte	$05
	.byte	$01
	.byte	$05
	.byte	$05
	.byte	$05
	.byte	$01
	.byte	$05
	.byte	$05
	.byte	$05
	.byte	$01
	.byte	$05
	.byte	$05
	.byte	$05
_stereomadness__24:
	.byte	$03
	.byte	$07
	.byte	$07
	.byte	$07
	.byte	$03
	.byte	$07
	.byte	$07
	.byte	$07
	.byte	$03
	.byte	$07
	.byte	$07
	.byte	$07
	.byte	$03
	.byte	$07
	.byte	$07
	.byte	$07
	.byte	$03
	.byte	$07
	.byte	$07
	.byte	$07
	.byte	$03
	.byte	$07
	.byte	$07
	.byte	$07
	.byte	$03
	.byte	$07
	.byte	$07
	.byte	$07
	.byte	$03
	.byte	$07
	.byte	$07
	.byte	$07
	.byte	$02
	.byte	$06
	.byte	$06
	.byte	$06
	.byte	$02
	.byte	$06
	.byte	$06
	.byte	$06
	.byte	$02
	.byte	$06
	.byte	$06
	.byte	$06
	.byte	$02
	.byte	$06
	.byte	$06
	.byte	$06
	.byte	$02
	.byte	$06
	.byte	$06
	.byte	$06
	.byte	$02
	.byte	$06
	.byte	$06
	.byte	$06
	.byte	$02
	.byte	$06
	.byte	$06
	.byte	$06
	.byte	$02
	.byte	$06
	.byte	$06
	.byte	$06
	.byte	$1B
	.byte	$1B
	.byte	$1B
	.byte	$1B
	.byte	$1B
	.byte	$1B
	.byte	$1B
	.byte	$2D
	.byte	$1B
	.byte	$1B
	.byte	$1B
	.byte	$1B
	.byte	$1B
	.byte	$1B
	.byte	$1B
	.byte	$1B
	.byte	$00
	.byte	$00
	.byte	$00
	.byte	$00
	.byte	$00
	.byte	$00
	.byte	$00
	.byte	$2D
	.byte	$00
	.byte	$00
	.byte	$00
	.byte	$00
	.byte	$00
	.byte	$00
	.byte	$00
	.byte	$00
	.byte	$00
	.byte	$00
	.byte	$00
	.byte	$00
	.byte	$00
	.byte	$00
	.byte	$00
	.byte	$2D
	.byte	$00
	.byte	$00
	.byte	$00
	.byte	$00
	.byte	$00
	.byte	$00
	.byte	$00
	.byte	$00
	.byte	$00
	.byte	$00
	.byte	$00
	.byte	$00
	.byte	$00
	.byte	$00
	.byte	$00
	.byte	$32
	.byte	$00
	.byte	$00
	.byte	$00
	.byte	$00
	.byte	$00
	.byte	$00
	.byte	$00
	.byte	$00
	.byte	$00
	.byte	$00
	.byte	$00
	.byte	$00
	.byte	$00
	.byte	$00
	.byte	$00
	.byte	$00
	.byte	$00
	.byte	$00
	.byte	$00
	.byte	$00
	.byte	$00
	.byte	$00
	.byte	$00
	.byte	$00
	.byte	$00
	.byte	$00
	.byte	$00
	.byte	$00
	.byte	$00
	.byte	$00
	.byte	$00
	.byte	$00
	.byte	$00
	.byte	$00
	.byte	$00
	.byte	$00
	.byte	$00
	.byte	$00
	.byte	$00
	.byte	$00
	.byte	$00
	.byte	$00
	.byte	$00
	.byte	$00
	.byte	$00
	.byte	$00
	.byte	$00
	.byte	$00
	.byte	$00
	.byte	$00
	.byte	$00
	.byte	$00
	.byte	$00
	.byte	$00
	.byte	$00
	.byte	$00
	.byte	$00
	.byte	$00
	.byte	$00
	.byte	$00
	.byte	$00
	.byte	$00
	.byte	$00
	.byte	$00
	.byte	$00
	.byte	$00
	.byte	$00
	.byte	$00
	.byte	$00
	.byte	$00
	.byte	$00
	.byte	$00
	.byte	$00
	.byte	$00
	.byte	$00
	.byte	$00
	.byte	$00
	.byte	$00
	.byte	$00
	.byte	$00
	.byte	$00
	.byte	$00
	.byte	$00
	.byte	$00
	.byte	$00
	.byte	$00
	.byte	$00
	.byte	$00
	.byte	$00
	.byte	$00
	.byte	$00
	.byte	$00
	.byte	$00
	.byte	$00
	.byte	$00
	.byte	$00
	.byte	$00
	.byte	$00
	.byte	$00
	.byte	$00
	.byte	$00
	.byte	$00
	.byte	$00
	.byte	$00
	.byte	$01
	.byte	$05
	.byte	$05
	.byte	$05
	.byte	$01
	.byte	$05
	.byte	$05
	.byte	$05
	.byte	$01
	.byte	$05
	.byte	$05
	.byte	$05
	.byte	$01
	.byte	$05
	.byte	$05
	.byte	$05
_stereomadness__25:
	.byte	$03
	.byte	$07
	.byte	$07
	.byte	$07
	.byte	$03
	.byte	$07
	.byte	$07
	.byte	$07
	.byte	$03
	.byte	$07
	.byte	$07
	.byte	$07
	.byte	$03
	.byte	$07
	.byte	$07
	.byte	$07
	.byte	$03
	.byte	$07
	.byte	$07
	.byte	$07
	.byte	$03
	.byte	$07
	.byte	$07
	.byte	$07
	.byte	$03
	.byte	$07
	.byte	$07
	.byte	$07
	.byte	$03
	.byte	$07
	.byte	$07
	.byte	$07
	.byte	$02
	.byte	$06
	.byte	$06
	.byte	$06
	.byte	$02
	.byte	$06
	.byte	$06
	.byte	$06
	.byte	$02
	.byte	$06
	.byte	$06
	.byte	$06
	.byte	$02
	.byte	$06
	.byte	$06
	.byte	$06
	.byte	$02
	.byte	$06
	.byte	$06
	.byte	$06
	.byte	$02
	.byte	$06
	.byte	$06
	.byte	$06
	.byte	$02
	.byte	$06
	.byte	$06
	.byte	$06
	.byte	$02
	.byte	$06
	.byte	$06
	.byte	$06
	.byte	$1B
	.byte	$1B
	.byte	$1B
	.byte	$1B
	.byte	$24
	.byte	$2F
	.byte	$2F
	.byte	$2F
	.byte	$2F
	.byte	$2F
	.byte	$2F
	.byte	$2F
	.byte	$2F
	.byte	$2F
	.byte	$2F
	.byte	$2F
	.byte	$00
	.byte	$00
	.byte	$00
	.byte	$00
	.byte	$24
	.byte	$2F
	.byte	$2F
	.byte	$2F
	.byte	$2F
	.byte	$2F
	.byte	$2F
	.byte	$2F
	.byte	$2F
	.byte	$2F
	.byte	$2F
	.byte	$2F
	.byte	$00
	.byte	$00
	.byte	$00
	.byte	$00
	.byte	$28
	.byte	$23
	.byte	$23
	.byte	$23
	.byte	$23
	.byte	$23
	.byte	$23
	.byte	$23
	.byte	$23
	.byte	$23
	.byte	$23
	.byte	$23
	.byte	$00
	.byte	$00
	.byte	$00
	.byte	$00
	.byte	$00
	.byte	$00
	.byte	$00
	.byte	$00
	.byte	$00
	.byte	$00
	.byte	$00
	.byte	$00
	.byte	$00
	.byte	$00
	.byte	$00
	.byte	$00
	.byte	$00
	.byte	$00
	.byte	$00
	.byte	$00
	.byte	$00
	.byte	$00
	.byte	$00
	.byte	$00
	.byte	$00
	.byte	$00
	.byte	$00
	.byte	$00
	.byte	$00
	.byte	$00
	.byte	$00
	.byte	$00
	.byte	$00
	.byte	$00
	.byte	$00
	.byte	$00
	.byte	$00
	.byte	$00
	.byte	$00
	.byte	$00
	.byte	$00
	.byte	$00
	.byte	$00
	.byte	$00
	.byte	$00
	.byte	$00
	.byte	$00
	.byte	$00
	.byte	$00
	.byte	$00
	.byte	$00
	.byte	$00
	.byte	$00
	.byte	$00
	.byte	$00
	.byte	$00
	.byte	$00
	.byte	$00
	.byte	$00
	.byte	$00
	.byte	$00
	.byte	$00
	.byte	$00
	.byte	$00
	.byte	$00
	.byte	$00
	.byte	$00
	.byte	$00
	.byte	$25
	.byte	$21
	.byte	$21
	.byte	$21
	.byte	$21
	.byte	$21
	.byte	$21
	.byte	$21
	.byte	$21
	.byte	$21
	.byte	$21
	.byte	$21
	.byte	$00
	.byte	$00
	.byte	$00
	.byte	$00
	.byte	$24
	.byte	$2F
	.byte	$2F
	.byte	$2F
	.byte	$2F
	.byte	$2F
	.byte	$2F
	.byte	$2F
	.byte	$2F
	.byte	$2F
	.byte	$2F
	.byte	$2F
	.byte	$00
	.byte	$00
	.byte	$00
	.byte	$00
	.byte	$24
	.byte	$2F
	.byte	$2F
	.byte	$2F
	.byte	$2F
	.byte	$2F
	.byte	$2F
	.byte	$2F
	.byte	$2F
	.byte	$2F
	.byte	$2F
	.byte	$2F
	.byte	$01
	.byte	$05
	.byte	$05
	.byte	$05
	.byte	$01
	.byte	$05
	.byte	$05
	.byte	$05
	.byte	$01
	.byte	$05
	.byte	$05
	.byte	$05
	.byte	$01
	.byte	$05
	.byte	$05
	.byte	$05
_stereomadness__26:
	.byte	$03
	.byte	$07
	.byte	$07
	.byte	$00
	.byte	$00
	.byte	$00
	.byte	$00
	.byte	$00
	.byte	$00
	.byte	$00
	.byte	$00
	.byte	$00
	.byte	$00
	.byte	$00
	.byte	$00
	.byte	$00
	.byte	$03
	.byte	$07
	.byte	$07
	.byte	$00
	.byte	$00
	.byte	$00
	.byte	$00
	.byte	$00
	.byte	$00
	.byte	$00
	.byte	$00
	.byte	$00
	.byte	$00
	.byte	$00
	.byte	$00
	.byte	$00
	.byte	$02
	.byte	$06
	.byte	$06
	.byte	$00
	.byte	$00
	.byte	$00
	.byte	$00
	.byte	$00
	.byte	$00
	.byte	$00
	.byte	$00
	.byte	$00
	.byte	$00
	.byte	$00
	.byte	$00
	.byte	$00
	.byte	$02
	.byte	$06
	.byte	$06
	.byte	$00
	.byte	$00
	.byte	$00
	.byte	$00
	.byte	$00
	.byte	$00
	.byte	$00
	.byte	$00
	.byte	$00
	.byte	$00
	.byte	$00
	.byte	$00
	.byte	$00
	.byte	$2F
	.byte	$2F
	.byte	$22
	.byte	$00
	.byte	$00
	.byte	$00
	.byte	$00
	.byte	$00
	.byte	$00
	.byte	$00
	.byte	$00
	.byte	$00
	.byte	$00
	.byte	$00
	.byte	$00
	.byte	$00
	.byte	$2F
	.byte	$2F
	.byte	$22
	.byte	$00
	.byte	$00
	.byte	$00
	.byte	$00
	.byte	$00
	.byte	$00
	.byte	$00
	.byte	$00
	.byte	$00
	.byte	$00
	.byte	$00
	.byte	$00
	.byte	$00
	.byte	$23
	.byte	$23
	.byte	$27
	.byte	$00
	.byte	$00
	.byte	$00
	.byte	$00
	.byte	$00
	.byte	$00
	.byte	$00
	.byte	$00
	.byte	$00
	.byte	$00
	.byte	$00
	.byte	$00
	.byte	$00
	.byte	$00
	.byte	$00
	.byte	$00
	.byte	$00
	.byte	$00
	.byte	$00
	.byte	$00
	.byte	$00
	.byte	$00
	.byte	$00
	.byte	$00
	.byte	$00
	.byte	$00
	.byte	$00
	.byte	$00
	.byte	$00
	.byte	$00
	.byte	$00
	.byte	$00
	.byte	$00
	.byte	$00
	.byte	$00
	.byte	$00
	.byte	$00
	.byte	$00
	.byte	$00
	.byte	$00
	.byte	$00
	.byte	$00
	.byte	$00
	.byte	$00
	.byte	$00
	.byte	$00
	.byte	$00
	.byte	$00
	.byte	$00
	.byte	$00
	.byte	$00
	.byte	$00
	.byte	$00
	.byte	$00
	.byte	$00
	.byte	$00
	.byte	$00
	.byte	$00
	.byte	$00
	.byte	$00
	.byte	$00
	.byte	$00
	.byte	$00
	.byte	$00
	.byte	$00
	.byte	$00
	.byte	$00
	.byte	$00
	.byte	$00
	.byte	$00
	.byte	$00
	.byte	$00
	.byte	$00
	.byte	$00
	.byte	$00
	.byte	$00
	.byte	$00
	.byte	$21
	.byte	$21
	.byte	$26
	.byte	$00
	.byte	$00
	.byte	$00
	.byte	$00
	.byte	$00
	.byte	$00
	.byte	$00
	.byte	$00
	.byte	$00
	.byte	$00
	.byte	$00
	.byte	$00
	.byte	$00
	.byte	$2F
	.byte	$2F
	.byte	$2A
	.byte	$21
	.byte	$21
	.byte	$21
	.byte	$21
	.byte	$21
	.byte	$21
	.byte	$21
	.byte	$21
	.byte	$21
	.byte	$21
	.byte	$21
	.byte	$21
	.byte	$21
	.byte	$2F
	.byte	$2F
	.byte	$2F
	.byte	$2F
	.byte	$2F
	.byte	$2F
	.byte	$2F
	.byte	$2F
	.byte	$2F
	.byte	$2F
	.byte	$2F
	.byte	$2F
	.byte	$2F
	.byte	$2F
	.byte	$2F
	.byte	$2F
	.byte	$01
	.byte	$05
	.byte	$05
	.byte	$05
	.byte	$01
	.byte	$05
	.byte	$05
	.byte	$05
	.byte	$01
	.byte	$05
	.byte	$05
	.byte	$05
	.byte	$01
	.byte	$05
	.byte	$05
	.byte	$05
_stereomadness__27:
	.byte	$00
	.byte	$00
	.byte	$00
	.byte	$00
	.byte	$00
	.byte	$00
	.byte	$00
	.byte	$00
	.byte	$00
	.byte	$00
	.byte	$00
	.byte	$00
	.byte	$00
	.byte	$00
	.byte	$00
	.byte	$00
	.byte	$00
	.byte	$00
	.byte	$00
	.byte	$00
	.byte	$00
	.byte	$00
	.byte	$00
	.byte	$00
	.byte	$00
	.byte	$00
	.byte	$00
	.byte	$00
	.byte	$00
	.byte	$00
	.byte	$00
	.byte	$00
	.byte	$00
	.byte	$00
	.byte	$00
	.byte	$00
	.byte	$00
	.byte	$00
	.byte	$00
	.byte	$00
	.byte	$00
	.byte	$00
	.byte	$00
	.byte	$00
	.byte	$00
	.byte	$00
	.byte	$00
	.byte	$00
	.byte	$00
	.byte	$00
	.byte	$00
	.byte	$00
	.byte	$00
	.byte	$00
	.byte	$00
	.byte	$00
	.byte	$00
	.byte	$00
	.byte	$00
	.byte	$00
	.byte	$00
	.byte	$00
	.byte	$00
	.byte	$00
	.byte	$00
	.byte	$00
	.byte	$00
	.byte	$00
	.byte	$00
	.byte	$00
	.byte	$00
	.byte	$00
	.byte	$00
	.byte	$00
	.byte	$00
	.byte	$00
	.byte	$00
	.byte	$00
	.byte	$00
	.byte	$00
	.byte	$00
	.byte	$00
	.byte	$00
	.byte	$00
	.byte	$00
	.byte	$00
	.byte	$00
	.byte	$00
	.byte	$00
	.byte	$00
	.byte	$00
	.byte	$00
	.byte	$00
	.byte	$00
	.byte	$00
	.byte	$00
	.byte	$00
	.byte	$00
	.byte	$00
	.byte	$00
	.byte	$00
	.byte	$00
	.byte	$00
	.byte	$00
	.byte	$00
	.byte	$00
	.byte	$00
	.byte	$00
	.byte	$00
	.byte	$00
	.byte	$00
	.byte	$00
	.byte	$00
	.byte	$00
	.byte	$00
	.byte	$00
	.byte	$00
	.byte	$00
	.byte	$00
	.byte	$00
	.byte	$00
	.byte	$00
	.byte	$00
	.byte	$00
	.byte	$00
	.byte	$00
	.byte	$00
	.byte	$00
	.byte	$00
	.byte	$00
	.byte	$00
	.byte	$00
	.byte	$00
	.byte	$00
	.byte	$00
	.byte	$00
	.byte	$00
	.byte	$00
	.byte	$00
	.byte	$00
	.byte	$00
	.byte	$00
	.byte	$00
	.byte	$00
	.byte	$00
	.byte	$00
	.byte	$00
	.byte	$00
	.byte	$00
	.byte	$00
	.byte	$00
	.byte	$00
	.byte	$00
	.byte	$00
	.byte	$00
	.byte	$00
	.byte	$30
	.byte	$00
	.byte	$00
	.byte	$00
	.byte	$00
	.byte	$00
	.byte	$00
	.byte	$00
	.byte	$00
	.byte	$00
	.byte	$00
	.byte	$00
	.byte	$30
	.byte	$00
	.byte	$00
	.byte	$00
	.byte	$32
	.byte	$00
	.byte	$00
	.byte	$00
	.byte	$00
	.byte	$00
	.byte	$00
	.byte	$00
	.byte	$30
	.byte	$00
	.byte	$00
	.byte	$00
	.byte	$2D
	.byte	$00
	.byte	$00
	.byte	$00
	.byte	$2F
	.byte	$00
	.byte	$00
	.byte	$00
	.byte	$26
	.byte	$00
	.byte	$00
	.byte	$00
	.byte	$2D
	.byte	$00
	.byte	$00
	.byte	$00
	.byte	$2D
	.byte	$00
	.byte	$00
	.byte	$00
	.byte	$2F
	.byte	$00
	.byte	$00
	.byte	$00
	.byte	$22
	.byte	$18
	.byte	$18
	.byte	$18
	.byte	$2D
	.byte	$18
	.byte	$18
	.byte	$18
	.byte	$2D
	.byte	$18
	.byte	$18
	.byte	$18
	.byte	$30
	.byte	$18
	.byte	$18
	.byte	$18
	.byte	$01
	.byte	$05
	.byte	$05
	.byte	$05
	.byte	$01
	.byte	$05
	.byte	$05
	.byte	$05
	.byte	$01
	.byte	$05
	.byte	$05
	.byte	$05
	.byte	$01
	.byte	$05
	.byte	$05
	.byte	$05
_stereomadness__28:
	.byte	$00
	.byte	$00
	.byte	$00
	.byte	$00
	.byte	$00
	.byte	$00
	.byte	$00
	.byte	$00
	.byte	$00
	.byte	$00
	.byte	$00
	.byte	$00
	.byte	$00
	.byte	$00
	.byte	$00
	.byte	$00
	.byte	$00
	.byte	$00
	.byte	$00
	.byte	$00
	.byte	$00
	.byte	$00
	.byte	$00
	.byte	$00
	.byte	$00
	.byte	$00
	.byte	$00
	.byte	$00
	.byte	$00
	.byte	$00
	.byte	$00
	.byte	$00
	.byte	$00
	.byte	$00
	.byte	$00
	.byte	$00
	.byte	$00
	.byte	$00
	.byte	$00
	.byte	$00
	.byte	$00
	.byte	$00
	.byte	$00
	.byte	$00
	.byte	$00
	.byte	$00
	.byte	$00
	.byte	$00
	.byte	$00
	.byte	$00
	.byte	$00
	.byte	$00
	.byte	$00
	.byte	$00
	.byte	$00
	.byte	$00
	.byte	$00
	.byte	$00
	.byte	$00
	.byte	$00
	.byte	$00
	.byte	$00
	.byte	$00
	.byte	$00
	.byte	$10
	.byte	$10
	.byte	$10
	.byte	$00
	.byte	$00
	.byte	$00
	.byte	$00
	.byte	$00
	.byte	$00
	.byte	$00
	.byte	$00
	.byte	$00
	.byte	$00
	.byte	$00
	.byte	$00
	.byte	$00
	.byte	$1B
	.byte	$1B
	.byte	$1B
	.byte	$00
	.byte	$00
	.byte	$00
	.byte	$00
	.byte	$00
	.byte	$00
	.byte	$00
	.byte	$00
	.byte	$00
	.byte	$00
	.byte	$00
	.byte	$00
	.byte	$00
	.byte	$00
	.byte	$00
	.byte	$00
	.byte	$00
	.byte	$00
	.byte	$00
	.byte	$00
	.byte	$00
	.byte	$00
	.byte	$00
	.byte	$00
	.byte	$00
	.byte	$00
	.byte	$00
	.byte	$00
	.byte	$00
	.byte	$00
	.byte	$00
	.byte	$00
	.byte	$00
	.byte	$00
	.byte	$00
	.byte	$00
	.byte	$00
	.byte	$00
	.byte	$00
	.byte	$00
	.byte	$00
	.byte	$00
	.byte	$00
	.byte	$00
	.byte	$00
	.byte	$30
	.byte	$00
	.byte	$00
	.byte	$00
	.byte	$00
	.byte	$00
	.byte	$00
	.byte	$00
	.byte	$00
	.byte	$00
	.byte	$00
	.byte	$00
	.byte	$00
	.byte	$00
	.byte	$00
	.byte	$00
	.byte	$32
	.byte	$00
	.byte	$00
	.byte	$00
	.byte	$00
	.byte	$00
	.byte	$00
	.byte	$00
	.byte	$00
	.byte	$00
	.byte	$00
	.byte	$00
	.byte	$00
	.byte	$00
	.byte	$00
	.byte	$00
	.byte	$2F
	.byte	$00
	.byte	$14
	.byte	$00
	.byte	$00
	.byte	$00
	.byte	$00
	.byte	$00
	.byte	$00
	.byte	$00
	.byte	$00
	.byte	$00
	.byte	$00
	.byte	$00
	.byte	$00
	.byte	$30
	.byte	$2F
	.byte	$00
	.byte	$00
	.byte	$00
	.byte	$00
	.byte	$00
	.byte	$00
	.byte	$00
	.byte	$00
	.byte	$00
	.byte	$00
	.byte	$30
	.byte	$00
	.byte	$00
	.byte	$00
	.byte	$2D
	.byte	$25
	.byte	$21
	.byte	$21
	.byte	$21
	.byte	$21
	.byte	$21
	.byte	$21
	.byte	$26
	.byte	$00
	.byte	$00
	.byte	$00
	.byte	$2D
	.byte	$00
	.byte	$00
	.byte	$00
	.byte	$2D
	.byte	$24
	.byte	$2F
	.byte	$2F
	.byte	$2F
	.byte	$2F
	.byte	$2F
	.byte	$2F
	.byte	$22
	.byte	$18
	.byte	$18
	.byte	$18
	.byte	$2D
	.byte	$18
	.byte	$18
	.byte	$18
	.byte	$2D
	.byte	$01
	.byte	$05
	.byte	$05
	.byte	$05
	.byte	$01
	.byte	$05
	.byte	$05
	.byte	$05
	.byte	$01
	.byte	$05
	.byte	$05
	.byte	$05
	.byte	$01
	.byte	$05
	.byte	$05
	.byte	$05
_stereomadness__29:
	.byte	$00
	.byte	$00
	.byte	$00
	.byte	$00
	.byte	$00
	.byte	$00
	.byte	$00
	.byte	$00
	.byte	$00
	.byte	$00
	.byte	$00
	.byte	$00
	.byte	$00
	.byte	$00
	.byte	$00
	.byte	$00
	.byte	$00
	.byte	$00
	.byte	$00
	.byte	$00
	.byte	$00
	.byte	$00
	.byte	$00
	.byte	$00
	.byte	$00
	.byte	$00
	.byte	$00
	.byte	$00
	.byte	$00
	.byte	$00
	.byte	$00
	.byte	$00
	.byte	$00
	.byte	$00
	.byte	$00
	.byte	$00
	.byte	$00
	.byte	$00
	.byte	$00
	.byte	$00
	.byte	$00
	.byte	$00
	.byte	$00
	.byte	$00
	.byte	$00
	.byte	$00
	.byte	$00
	.byte	$00
	.byte	$00
	.byte	$00
	.byte	$00
	.byte	$00
	.byte	$00
	.byte	$00
	.byte	$00
	.byte	$00
	.byte	$00
	.byte	$00
	.byte	$00
	.byte	$00
	.byte	$00
	.byte	$00
	.byte	$00
	.byte	$00
	.byte	$00
	.byte	$00
	.byte	$00
	.byte	$00
	.byte	$00
	.byte	$00
	.byte	$00
	.byte	$00
	.byte	$00
	.byte	$00
	.byte	$00
	.byte	$00
	.byte	$00
	.byte	$00
	.byte	$00
	.byte	$00
	.byte	$00
	.byte	$00
	.byte	$00
	.byte	$00
	.byte	$00
	.byte	$00
	.byte	$00
	.byte	$00
	.byte	$00
	.byte	$00
	.byte	$00
	.byte	$00
	.byte	$00
	.byte	$00
	.byte	$00
	.byte	$00
	.byte	$00
	.byte	$00
	.byte	$00
	.byte	$00
	.byte	$00
	.byte	$00
	.byte	$00
	.byte	$00
	.byte	$00
	.byte	$00
	.byte	$00
	.byte	$00
	.byte	$00
	.byte	$00
	.byte	$00
	.byte	$30
	.byte	$00
	.byte	$00
	.byte	$00
	.byte	$00
	.byte	$00
	.byte	$00
	.byte	$00
	.byte	$00
	.byte	$00
	.byte	$00
	.byte	$00
	.byte	$30
	.byte	$00
	.byte	$00
	.byte	$00
	.byte	$2D
	.byte	$00
	.byte	$00
	.byte	$00
	.byte	$00
	.byte	$00
	.byte	$00
	.byte	$00
	.byte	$30
	.byte	$00
	.byte	$00
	.byte	$00
	.byte	$2D
	.byte	$00
	.byte	$00
	.byte	$00
	.byte	$2D
	.byte	$00
	.byte	$00
	.byte	$00
	.byte	$30
	.byte	$00
	.byte	$00
	.byte	$00
	.byte	$2D
	.byte	$00
	.byte	$00
	.byte	$00
	.byte	$2D
	.byte	$00
	.byte	$00
	.byte	$00
	.byte	$2D
	.byte	$00
	.byte	$00
	.byte	$00
	.byte	$2D
	.byte	$00
	.byte	$00
	.byte	$00
	.byte	$2D
	.byte	$00
	.byte	$00
	.byte	$00
	.byte	$2D
	.byte	$00
	.byte	$00
	.byte	$00
	.byte	$2D
	.byte	$00
	.byte	$00
	.byte	$00
	.byte	$2D
	.byte	$00
	.byte	$00
	.byte	$00
	.byte	$2D
	.byte	$00
	.byte	$00
	.byte	$00
	.byte	$2D
	.byte	$00
	.byte	$00
	.byte	$00
	.byte	$2D
	.byte	$00
	.byte	$00
	.byte	$00
	.byte	$2D
	.byte	$00
	.byte	$00
	.byte	$00
	.byte	$2D
	.byte	$00
	.byte	$00
	.byte	$00
	.byte	$2D
	.byte	$00
	.byte	$00
	.byte	$00
	.byte	$2D
	.byte	$18
	.byte	$18
	.byte	$18
	.byte	$2D
	.byte	$18
	.byte	$18
	.byte	$18
	.byte	$2D
	.byte	$18
	.byte	$18
	.byte	$18
	.byte	$2D
	.byte	$18
	.byte	$18
	.byte	$18
	.byte	$2D
	.byte	$01
	.byte	$05
	.byte	$05
	.byte	$05
	.byte	$01
	.byte	$05
	.byte	$05
	.byte	$05
	.byte	$01
	.byte	$05
	.byte	$05
	.byte	$05
	.byte	$01
	.byte	$05
	.byte	$05
	.byte	$05
_stereomadness__30:
	.byte	$00
	.byte	$00
	.byte	$00
	.byte	$00
	.byte	$00
	.byte	$00
	.byte	$00
	.byte	$00
	.byte	$00
	.byte	$00
	.byte	$00
	.byte	$00
	.byte	$00
	.byte	$00
	.byte	$00
	.byte	$00
	.byte	$00
	.byte	$00
	.byte	$00
	.byte	$00
	.byte	$00
	.byte	$00
	.byte	$00
	.byte	$00
	.byte	$00
	.byte	$00
	.byte	$00
	.byte	$00
	.byte	$00
	.byte	$00
	.byte	$00
	.byte	$00
	.byte	$00
	.byte	$00
	.byte	$00
	.byte	$00
	.byte	$00
	.byte	$00
	.byte	$00
	.byte	$00
	.byte	$00
	.byte	$00
	.byte	$00
	.byte	$00
	.byte	$00
	.byte	$00
	.byte	$00
	.byte	$00
	.byte	$00
	.byte	$00
	.byte	$00
	.byte	$00
	.byte	$00
	.byte	$00
	.byte	$00
	.byte	$00
	.byte	$00
	.byte	$00
	.byte	$00
	.byte	$00
	.byte	$00
	.byte	$00
	.byte	$00
	.byte	$00
	.byte	$00
	.byte	$00
	.byte	$00
	.byte	$00
	.byte	$00
	.byte	$00
	.byte	$00
	.byte	$00
	.byte	$00
	.byte	$00
	.byte	$00
	.byte	$00
	.byte	$00
	.byte	$00
	.byte	$00
	.byte	$00
	.byte	$00
	.byte	$00
	.byte	$00
	.byte	$30
	.byte	$19
	.byte	$00
	.byte	$00
	.byte	$00
	.byte	$00
	.byte	$00
	.byte	$00
	.byte	$00
	.byte	$00
	.byte	$00
	.byte	$00
	.byte	$00
	.byte	$00
	.byte	$00
	.byte	$00
	.byte	$2D
	.byte	$00
	.byte	$00
	.byte	$19
	.byte	$19
	.byte	$00
	.byte	$00
	.byte	$00
	.byte	$00
	.byte	$00
	.byte	$00
	.byte	$00
	.byte	$00
	.byte	$00
	.byte	$00
	.byte	$00
	.byte	$2D
	.byte	$00
	.byte	$00
	.byte	$00
	.byte	$00
	.byte	$00
	.byte	$19
	.byte	$19
	.byte	$00
	.byte	$00
	.byte	$00
	.byte	$00
	.byte	$00
	.byte	$00
	.byte	$00
	.byte	$00
	.byte	$2D
	.byte	$00
	.byte	$00
	.byte	$00
	.byte	$00
	.byte	$00
	.byte	$00
	.byte	$00
	.byte	$00
	.byte	$19
	.byte	$19
	.byte	$19
	.byte	$00
	.byte	$00
	.byte	$00
	.byte	$00
	.byte	$2D
	.byte	$00
	.byte	$00
	.byte	$00
	.byte	$00
	.byte	$00
	.byte	$00
	.byte	$00
	.byte	$00
	.byte	$00
	.byte	$00
	.byte	$00
	.byte	$00
	.byte	$00
	.byte	$00
	.byte	$00
	.byte	$2D
	.byte	$00
	.byte	$00
	.byte	$00
	.byte	$00
	.byte	$00
	.byte	$00
	.byte	$00
	.byte	$00
	.byte	$00
	.byte	$00
	.byte	$00
	.byte	$00
	.byte	$00
	.byte	$00
	.byte	$00
	.byte	$2D
	.byte	$00
	.byte	$00
	.byte	$00
	.byte	$00
	.byte	$00
	.byte	$00
	.byte	$00
	.byte	$00
	.byte	$00
	.byte	$00
	.byte	$00
	.byte	$00
	.byte	$00
	.byte	$00
	.byte	$00
	.byte	$2D
	.byte	$00
	.byte	$00
	.byte	$00
	.byte	$00
	.byte	$00
	.byte	$00
	.byte	$00
	.byte	$00
	.byte	$00
	.byte	$00
	.byte	$00
	.byte	$00
	.byte	$18
	.byte	$18
	.byte	$18
	.byte	$2D
	.byte	$18
	.byte	$18
	.byte	$18
	.byte	$18
	.byte	$18
	.byte	$18
	.byte	$18
	.byte	$18
	.byte	$18
	.byte	$18
	.byte	$18
	.byte	$18
	.byte	$01
	.byte	$05
	.byte	$05
	.byte	$05
	.byte	$01
	.byte	$05
	.byte	$05
	.byte	$05
	.byte	$01
	.byte	$05
	.byte	$05
	.byte	$05
	.byte	$01
	.byte	$05
	.byte	$05
	.byte	$05
_stereomadness__31:
	.byte	$00
	.byte	$00
	.byte	$00
	.byte	$00
	.byte	$00
	.byte	$00
	.byte	$00
	.byte	$00
	.byte	$00
	.byte	$00
	.byte	$00
	.byte	$00
	.byte	$00
	.byte	$00
	.byte	$00
	.byte	$00
	.byte	$00
	.byte	$00
	.byte	$00
	.byte	$00
	.byte	$00
	.byte	$00
	.byte	$00
	.byte	$00
	.byte	$00
	.byte	$00
	.byte	$00
	.byte	$00
	.byte	$00
	.byte	$00
	.byte	$00
	.byte	$00
	.byte	$00
	.byte	$00
	.byte	$00
	.byte	$00
	.byte	$00
	.byte	$00
	.byte	$00
	.byte	$00
	.byte	$00
	.byte	$00
	.byte	$00
	.byte	$00
	.byte	$00
	.byte	$00
	.byte	$00
	.byte	$00
	.byte	$00
	.byte	$00
	.byte	$00
	.byte	$00
	.byte	$00
	.byte	$00
	.byte	$00
	.byte	$00
	.byte	$00
	.byte	$00
	.byte	$00
	.byte	$00
	.byte	$00
	.byte	$00
	.byte	$00
	.byte	$00
	.byte	$00
	.byte	$00
	.byte	$00
	.byte	$00
	.byte	$00
	.byte	$00
	.byte	$00
	.byte	$00
	.byte	$00
	.byte	$00
	.byte	$00
	.byte	$00
	.byte	$00
	.byte	$00
	.byte	$00
	.byte	$00
	.byte	$00
	.byte	$00
	.byte	$00
	.byte	$00
	.byte	$00
	.byte	$00
	.byte	$00
	.byte	$00
	.byte	$00
	.byte	$00
	.byte	$00
	.byte	$00
	.byte	$00
	.byte	$00
	.byte	$00
	.byte	$00
	.byte	$00
	.byte	$00
	.byte	$00
	.byte	$00
	.byte	$00
	.byte	$00
	.byte	$00
	.byte	$00
	.byte	$00
	.byte	$00
	.byte	$00
	.byte	$00
	.byte	$00
	.byte	$00
	.byte	$00
	.byte	$00
	.byte	$00
	.byte	$00
	.byte	$00
	.byte	$00
	.byte	$00
	.byte	$00
	.byte	$00
	.byte	$00
	.byte	$00
	.byte	$00
	.byte	$00
	.byte	$00
	.byte	$00
	.byte	$00
	.byte	$00
	.byte	$00
	.byte	$00
	.byte	$00
	.byte	$00
	.byte	$00
	.byte	$00
	.byte	$00
	.byte	$00
	.byte	$00
	.byte	$00
	.byte	$00
	.byte	$00
	.byte	$00
	.byte	$00
	.byte	$00
	.byte	$00
	.byte	$00
	.byte	$00
	.byte	$00
	.byte	$19
	.byte	$19
	.byte	$00
	.byte	$10
	.byte	$10
	.byte	$10
	.byte	$00
	.byte	$00
	.byte	$00
	.byte	$00
	.byte	$00
	.byte	$00
	.byte	$00
	.byte	$00
	.byte	$00
	.byte	$00
	.byte	$00
	.byte	$00
	.byte	$00
	.byte	$24
	.byte	$2F
	.byte	$22
	.byte	$00
	.byte	$00
	.byte	$00
	.byte	$10
	.byte	$10
	.byte	$10
	.byte	$10
	.byte	$00
	.byte	$00
	.byte	$00
	.byte	$00
	.byte	$00
	.byte	$00
	.byte	$24
	.byte	$2F
	.byte	$22
	.byte	$00
	.byte	$00
	.byte	$00
	.byte	$24
	.byte	$2F
	.byte	$2F
	.byte	$22
	.byte	$00
	.byte	$00
	.byte	$00
	.byte	$00
	.byte	$00
	.byte	$00
	.byte	$24
	.byte	$2F
	.byte	$22
	.byte	$00
	.byte	$00
	.byte	$00
	.byte	$24
	.byte	$2F
	.byte	$2F
	.byte	$22
	.byte	$00
	.byte	$18
	.byte	$18
	.byte	$18
	.byte	$18
	.byte	$18
	.byte	$24
	.byte	$2F
	.byte	$22
	.byte	$18
	.byte	$18
	.byte	$18
	.byte	$24
	.byte	$2F
	.byte	$2F
	.byte	$22
	.byte	$18
	.byte	$01
	.byte	$05
	.byte	$05
	.byte	$05
	.byte	$01
	.byte	$05
	.byte	$05
	.byte	$05
	.byte	$01
	.byte	$05
	.byte	$05
	.byte	$05
	.byte	$01
	.byte	$05
	.byte	$05
	.byte	$05
_stereomadness__32:
	.byte	$00
	.byte	$00
	.byte	$00
	.byte	$00
	.byte	$00
	.byte	$00
	.byte	$00
	.byte	$00
	.byte	$00
	.byte	$00
	.byte	$00
	.byte	$00
	.byte	$00
	.byte	$00
	.byte	$00
	.byte	$00
	.byte	$00
	.byte	$00
	.byte	$00
	.byte	$00
	.byte	$00
	.byte	$00
	.byte	$00
	.byte	$00
	.byte	$00
	.byte	$00
	.byte	$00
	.byte	$00
	.byte	$00
	.byte	$00
	.byte	$00
	.byte	$00
	.byte	$00
	.byte	$00
	.byte	$00
	.byte	$00
	.byte	$00
	.byte	$00
	.byte	$00
	.byte	$00
	.byte	$00
	.byte	$00
	.byte	$00
	.byte	$00
	.byte	$00
	.byte	$00
	.byte	$00
	.byte	$00
	.byte	$00
	.byte	$00
	.byte	$00
	.byte	$00
	.byte	$00
	.byte	$00
	.byte	$00
	.byte	$00
	.byte	$00
	.byte	$00
	.byte	$00
	.byte	$00
	.byte	$00
	.byte	$00
	.byte	$00
	.byte	$00
	.byte	$00
	.byte	$00
	.byte	$00
	.byte	$00
	.byte	$00
	.byte	$00
	.byte	$00
	.byte	$00
	.byte	$00
	.byte	$00
	.byte	$00
	.byte	$00
	.byte	$00
	.byte	$00
	.byte	$00
	.byte	$00
	.byte	$00
	.byte	$00
	.byte	$00
	.byte	$00
	.byte	$00
	.byte	$00
	.byte	$00
	.byte	$00
	.byte	$00
	.byte	$00
	.byte	$00
	.byte	$00
	.byte	$00
	.byte	$00
	.byte	$00
	.byte	$00
	.byte	$00
	.byte	$00
	.byte	$00
	.byte	$00
	.byte	$00
	.byte	$00
	.byte	$00
	.byte	$00
	.byte	$00
	.byte	$00
	.byte	$00
	.byte	$00
	.byte	$00
	.byte	$00
	.byte	$00
	.byte	$00
	.byte	$00
	.byte	$00
	.byte	$00
	.byte	$00
	.byte	$00
	.byte	$00
	.byte	$00
	.byte	$00
	.byte	$00
	.byte	$00
	.byte	$00
	.byte	$00
	.byte	$00
	.byte	$00
	.byte	$00
	.byte	$00
	.byte	$00
	.byte	$00
	.byte	$00
	.byte	$00
	.byte	$00
	.byte	$00
	.byte	$00
	.byte	$00
	.byte	$00
	.byte	$00
	.byte	$00
	.byte	$00
	.byte	$00
	.byte	$00
	.byte	$00
	.byte	$00
	.byte	$00
	.byte	$00
	.byte	$00
	.byte	$00
	.byte	$00
	.byte	$00
	.byte	$00
	.byte	$00
	.byte	$00
	.byte	$00
	.byte	$00
	.byte	$00
	.byte	$00
	.byte	$00
	.byte	$00
	.byte	$00
	.byte	$00
	.byte	$00
	.byte	$00
	.byte	$00
	.byte	$00
	.byte	$00
	.byte	$00
	.byte	$00
	.byte	$00
	.byte	$00
	.byte	$00
	.byte	$00
	.byte	$00
	.byte	$00
	.byte	$00
	.byte	$00
	.byte	$19
	.byte	$00
	.byte	$00
	.byte	$00
	.byte	$00
	.byte	$00
	.byte	$00
	.byte	$00
	.byte	$00
	.byte	$00
	.byte	$00
	.byte	$00
	.byte	$00
	.byte	$00
	.byte	$00
	.byte	$00
	.byte	$00
	.byte	$00
	.byte	$19
	.byte	$00
	.byte	$00
	.byte	$00
	.byte	$00
	.byte	$00
	.byte	$00
	.byte	$00
	.byte	$00
	.byte	$00
	.byte	$00
	.byte	$00
	.byte	$00
	.byte	$00
	.byte	$18
	.byte	$18
	.byte	$18
	.byte	$18
	.byte	$19
	.byte	$00
	.byte	$00
	.byte	$00
	.byte	$00
	.byte	$00
	.byte	$00
	.byte	$11
	.byte	$11
	.byte	$10
	.byte	$18
	.byte	$18
	.byte	$01
	.byte	$05
	.byte	$05
	.byte	$05
	.byte	$01
	.byte	$05
	.byte	$05
	.byte	$05
	.byte	$01
	.byte	$05
	.byte	$05
	.byte	$05
	.byte	$01
	.byte	$05
	.byte	$05
	.byte	$05
_stereomadness__33:
	.byte	$00
	.byte	$00
	.byte	$00
	.byte	$00
	.byte	$00
	.byte	$00
	.byte	$00
	.byte	$00
	.byte	$00
	.byte	$00
	.byte	$00
	.byte	$00
	.byte	$00
	.byte	$00
	.byte	$00
	.byte	$00
	.byte	$00
	.byte	$00
	.byte	$00
	.byte	$00
	.byte	$00
	.byte	$00
	.byte	$00
	.byte	$00
	.byte	$00
	.byte	$00
	.byte	$00
	.byte	$00
	.byte	$00
	.byte	$00
	.byte	$00
	.byte	$00
	.byte	$00
	.byte	$00
	.byte	$00
	.byte	$00
	.byte	$00
	.byte	$00
	.byte	$00
	.byte	$00
	.byte	$00
	.byte	$00
	.byte	$00
	.byte	$00
	.byte	$00
	.byte	$00
	.byte	$00
	.byte	$00
	.byte	$00
	.byte	$00
	.byte	$00
	.byte	$00
	.byte	$00
	.byte	$00
	.byte	$00
	.byte	$00
	.byte	$00
	.byte	$00
	.byte	$00
	.byte	$00
	.byte	$00
	.byte	$00
	.byte	$00
	.byte	$00
	.byte	$00
	.byte	$00
	.byte	$00
	.byte	$00
	.byte	$00
	.byte	$00
	.byte	$00
	.byte	$00
	.byte	$00
	.byte	$00
	.byte	$00
	.byte	$00
	.byte	$00
	.byte	$00
	.byte	$00
	.byte	$00
	.byte	$00
	.byte	$00
	.byte	$00
	.byte	$00
	.byte	$00
	.byte	$00
	.byte	$00
	.byte	$00
	.byte	$00
	.byte	$00
	.byte	$00
	.byte	$00
	.byte	$00
	.byte	$00
	.byte	$00
	.byte	$00
	.byte	$00
	.byte	$00
	.byte	$00
	.byte	$00
	.byte	$00
	.byte	$00
	.byte	$00
	.byte	$00
	.byte	$00
	.byte	$00
	.byte	$00
	.byte	$00
	.byte	$00
	.byte	$00
	.byte	$00
	.byte	$00
	.byte	$00
	.byte	$00
	.byte	$00
	.byte	$00
	.byte	$00
	.byte	$00
	.byte	$00
	.byte	$00
	.byte	$00
	.byte	$00
	.byte	$00
	.byte	$00
	.byte	$00
	.byte	$00
	.byte	$00
	.byte	$00
	.byte	$00
	.byte	$00
	.byte	$00
	.byte	$00
	.byte	$00
	.byte	$00
	.byte	$00
	.byte	$00
	.byte	$00
	.byte	$00
	.byte	$00
	.byte	$00
	.byte	$00
	.byte	$00
	.byte	$00
	.byte	$00
	.byte	$00
	.byte	$00
	.byte	$00
	.byte	$00
	.byte	$00
	.byte	$00
	.byte	$00
	.byte	$00
	.byte	$00
	.byte	$00
	.byte	$00
	.byte	$00
	.byte	$00
	.byte	$00
	.byte	$00
	.byte	$00
	.byte	$00
	.byte	$00
	.byte	$00
	.byte	$00
	.byte	$00
	.byte	$00
	.byte	$00
	.byte	$00
	.byte	$00
	.byte	$00
	.byte	$00
	.byte	$00
	.byte	$00
	.byte	$00
	.byte	$00
	.byte	$00
	.byte	$00
	.byte	$00
	.byte	$00
	.byte	$00
	.byte	$00
	.byte	$00
	.byte	$00
	.byte	$00
	.byte	$00
	.byte	$00
	.byte	$00
	.byte	$00
	.byte	$19
	.byte	$19
	.byte	$00
	.byte	$00
	.byte	$19
	.byte	$19
	.byte	$00
	.byte	$00
	.byte	$00
	.byte	$00
	.byte	$00
	.byte	$00
	.byte	$19
	.byte	$19
	.byte	$00
	.byte	$00
	.byte	$00
	.byte	$00
	.byte	$00
	.byte	$00
	.byte	$18
	.byte	$18
	.byte	$18
	.byte	$10
	.byte	$10
	.byte	$10
	.byte	$18
	.byte	$18
	.byte	$18
	.byte	$18
	.byte	$18
	.byte	$18
	.byte	$18
	.byte	$18
	.byte	$18
	.byte	$10
	.byte	$01
	.byte	$05
	.byte	$05
	.byte	$05
	.byte	$01
	.byte	$05
	.byte	$05
	.byte	$05
	.byte	$01
	.byte	$05
	.byte	$05
	.byte	$05
	.byte	$01
	.byte	$05
	.byte	$05
	.byte	$05
_stereomadness__34:
	.byte	$00
	.byte	$00
	.byte	$00
	.byte	$00
	.byte	$00
	.byte	$00
	.byte	$00
	.byte	$00
	.byte	$00
	.byte	$00
	.byte	$00
	.byte	$00
	.byte	$00
	.byte	$00
	.byte	$00
	.byte	$00
	.byte	$00
	.byte	$00
	.byte	$00
	.byte	$00
	.byte	$00
	.byte	$00
	.byte	$00
	.byte	$00
	.byte	$00
	.byte	$00
	.byte	$00
	.byte	$00
	.byte	$00
	.byte	$00
	.byte	$00
	.byte	$00
	.byte	$00
	.byte	$00
	.byte	$00
	.byte	$00
	.byte	$00
	.byte	$00
	.byte	$00
	.byte	$00
	.byte	$00
	.byte	$00
	.byte	$00
	.byte	$00
	.byte	$00
	.byte	$00
	.byte	$00
	.byte	$00
	.byte	$00
	.byte	$00
	.byte	$00
	.byte	$00
	.byte	$00
	.byte	$00
	.byte	$00
	.byte	$00
	.byte	$00
	.byte	$00
	.byte	$00
	.byte	$00
	.byte	$00
	.byte	$00
	.byte	$00
	.byte	$00
	.byte	$00
	.byte	$00
	.byte	$00
	.byte	$00
	.byte	$00
	.byte	$00
	.byte	$00
	.byte	$00
	.byte	$00
	.byte	$00
	.byte	$00
	.byte	$00
	.byte	$00
	.byte	$00
	.byte	$00
	.byte	$00
	.byte	$00
	.byte	$00
	.byte	$00
	.byte	$00
	.byte	$00
	.byte	$00
	.byte	$00
	.byte	$00
	.byte	$00
	.byte	$00
	.byte	$00
	.byte	$00
	.byte	$00
	.byte	$00
	.byte	$00
	.byte	$00
	.byte	$00
	.byte	$00
	.byte	$00
	.byte	$00
	.byte	$00
	.byte	$00
	.byte	$00
	.byte	$00
	.byte	$00
	.byte	$00
	.byte	$00
	.byte	$00
	.byte	$00
	.byte	$00
	.byte	$00
	.byte	$00
	.byte	$00
	.byte	$00
	.byte	$00
	.byte	$00
	.byte	$00
	.byte	$00
	.byte	$00
	.byte	$00
	.byte	$00
	.byte	$00
	.byte	$00
	.byte	$00
	.byte	$00
	.byte	$00
	.byte	$00
	.byte	$00
	.byte	$00
	.byte	$00
	.byte	$00
	.byte	$00
	.byte	$00
	.byte	$00
	.byte	$00
	.byte	$00
	.byte	$00
	.byte	$00
	.byte	$10
	.byte	$10
	.byte	$00
	.byte	$00
	.byte	$00
	.byte	$00
	.byte	$00
	.byte	$00
	.byte	$00
	.byte	$00
	.byte	$00
	.byte	$00
	.byte	$00
	.byte	$00
	.byte	$00
	.byte	$00
	.byte	$1B
	.byte	$1B
	.byte	$00
	.byte	$00
	.byte	$00
	.byte	$00
	.byte	$00
	.byte	$00
	.byte	$00
	.byte	$00
	.byte	$00
	.byte	$00
	.byte	$00
	.byte	$00
	.byte	$00
	.byte	$00
	.byte	$00
	.byte	$00
	.byte	$00
	.byte	$00
	.byte	$00
	.byte	$00
	.byte	$00
	.byte	$00
	.byte	$00
	.byte	$00
	.byte	$00
	.byte	$00
	.byte	$00
	.byte	$00
	.byte	$00
	.byte	$00
	.byte	$00
	.byte	$00
	.byte	$00
	.byte	$00
	.byte	$00
	.byte	$00
	.byte	$00
	.byte	$00
	.byte	$00
	.byte	$00
	.byte	$00
	.byte	$00
	.byte	$00
	.byte	$00
	.byte	$00
	.byte	$00
	.byte	$00
	.byte	$00
	.byte	$00
	.byte	$00
	.byte	$00
	.byte	$00
	.byte	$10
	.byte	$10
	.byte	$11
	.byte	$11
	.byte	$00
	.byte	$00
	.byte	$00
	.byte	$00
	.byte	$00
	.byte	$00
	.byte	$11
	.byte	$11
	.byte	$00
	.byte	$00
	.byte	$00
	.byte	$00
	.byte	$01
	.byte	$05
	.byte	$05
	.byte	$05
	.byte	$01
	.byte	$05
	.byte	$05
	.byte	$05
	.byte	$01
	.byte	$05
	.byte	$05
	.byte	$05
	.byte	$01
	.byte	$05
	.byte	$05
	.byte	$05
_stereomadness__35:
	.byte	$00
	.byte	$00
	.byte	$00
	.byte	$00
	.byte	$00
	.byte	$00
	.byte	$00
	.byte	$00
	.byte	$00
	.byte	$00
	.byte	$00
	.byte	$00
	.byte	$00
	.byte	$00
	.byte	$00
	.byte	$00
	.byte	$00
	.byte	$00
	.byte	$00
	.byte	$00
	.byte	$00
	.byte	$00
	.byte	$00
	.byte	$00
	.byte	$00
	.byte	$00
	.byte	$00
	.byte	$00
	.byte	$00
	.byte	$00
	.byte	$00
	.byte	$00
	.byte	$00
	.byte	$00
	.byte	$00
	.byte	$00
	.byte	$00
	.byte	$00
	.byte	$00
	.byte	$00
	.byte	$00
	.byte	$00
	.byte	$00
	.byte	$00
	.byte	$00
	.byte	$00
	.byte	$00
	.byte	$00
	.byte	$00
	.byte	$00
	.byte	$00
	.byte	$00
	.byte	$00
	.byte	$00
	.byte	$00
	.byte	$00
	.byte	$00
	.byte	$00
	.byte	$00
	.byte	$00
	.byte	$00
	.byte	$00
	.byte	$00
	.byte	$00
	.byte	$00
	.byte	$00
	.byte	$00
	.byte	$00
	.byte	$00
	.byte	$00
	.byte	$00
	.byte	$00
	.byte	$00
	.byte	$00
	.byte	$00
	.byte	$00
	.byte	$00
	.byte	$00
	.byte	$00
	.byte	$00
	.byte	$00
	.byte	$00
	.byte	$00
	.byte	$00
	.byte	$00
	.byte	$00
	.byte	$00
	.byte	$00
	.byte	$00
	.byte	$00
	.byte	$00
	.byte	$00
	.byte	$00
	.byte	$00
	.byte	$00
	.byte	$00
	.byte	$00
	.byte	$00
	.byte	$00
	.byte	$00
	.byte	$00
	.byte	$00
	.byte	$00
	.byte	$00
	.byte	$00
	.byte	$00
	.byte	$00
	.byte	$00
	.byte	$00
	.byte	$00
	.byte	$00
	.byte	$00
	.byte	$00
	.byte	$00
	.byte	$00
	.byte	$00
	.byte	$00
	.byte	$00
	.byte	$00
	.byte	$00
	.byte	$00
	.byte	$00
	.byte	$00
	.byte	$00
	.byte	$00
	.byte	$00
	.byte	$00
	.byte	$00
	.byte	$00
	.byte	$00
	.byte	$10
	.byte	$10
	.byte	$10
	.byte	$00
	.byte	$00
	.byte	$00
	.byte	$00
	.byte	$00
	.byte	$10
	.byte	$00
	.byte	$00
	.byte	$00
	.byte	$00
	.byte	$00
	.byte	$00
	.byte	$00
	.byte	$1B
	.byte	$1B
	.byte	$1B
	.byte	$00
	.byte	$00
	.byte	$00
	.byte	$00
	.byte	$00
	.byte	$1B
	.byte	$00
	.byte	$00
	.byte	$00
	.byte	$00
	.byte	$00
	.byte	$00
	.byte	$00
	.byte	$00
	.byte	$00
	.byte	$00
	.byte	$00
	.byte	$00
	.byte	$00
	.byte	$00
	.byte	$00
	.byte	$00
	.byte	$00
	.byte	$00
	.byte	$00
	.byte	$00
	.byte	$00
	.byte	$00
	.byte	$00
	.byte	$00
	.byte	$00
	.byte	$00
	.byte	$00
	.byte	$00
	.byte	$00
	.byte	$00
	.byte	$00
	.byte	$00
	.byte	$00
	.byte	$00
	.byte	$00
	.byte	$00
	.byte	$00
	.byte	$00
	.byte	$00
	.byte	$00
	.byte	$00
	.byte	$00
	.byte	$00
	.byte	$00
	.byte	$00
	.byte	$00
	.byte	$00
	.byte	$00
	.byte	$00
	.byte	$00
	.byte	$00
	.byte	$00
	.byte	$00
	.byte	$00
	.byte	$00
	.byte	$11
	.byte	$11
	.byte	$11
	.byte	$00
	.byte	$00
	.byte	$00
	.byte	$00
	.byte	$00
	.byte	$11
	.byte	$00
	.byte	$00
	.byte	$00
	.byte	$00
	.byte	$00
	.byte	$01
	.byte	$05
	.byte	$05
	.byte	$05
	.byte	$01
	.byte	$05
	.byte	$05
	.byte	$05
	.byte	$01
	.byte	$05
	.byte	$05
	.byte	$05
	.byte	$01
	.byte	$05
	.byte	$05
	.byte	$05
_stereomadness__36:
	.byte	$00
	.byte	$00
	.byte	$00
	.byte	$00
	.byte	$00
	.byte	$00
	.byte	$00
	.byte	$00
	.byte	$00
	.byte	$00
	.byte	$00
	.byte	$00
	.byte	$00
	.byte	$00
	.byte	$00
	.byte	$00
	.byte	$00
	.byte	$00
	.byte	$00
	.byte	$00
	.byte	$00
	.byte	$00
	.byte	$00
	.byte	$00
	.byte	$00
	.byte	$00
	.byte	$00
	.byte	$00
	.byte	$00
	.byte	$00
	.byte	$00
	.byte	$00
	.byte	$00
	.byte	$00
	.byte	$00
	.byte	$00
	.byte	$00
	.byte	$00
	.byte	$00
	.byte	$00
	.byte	$00
	.byte	$00
	.byte	$00
	.byte	$00
	.byte	$00
	.byte	$00
	.byte	$00
	.byte	$00
	.byte	$00
	.byte	$00
	.byte	$00
	.byte	$00
	.byte	$00
	.byte	$00
	.byte	$00
	.byte	$00
	.byte	$00
	.byte	$00
	.byte	$00
	.byte	$00
	.byte	$00
	.byte	$00
	.byte	$00
	.byte	$00
	.byte	$00
	.byte	$00
	.byte	$00
	.byte	$00
	.byte	$00
	.byte	$00
	.byte	$00
	.byte	$00
	.byte	$00
	.byte	$00
	.byte	$00
	.byte	$00
	.byte	$00
	.byte	$00
	.byte	$00
	.byte	$00
	.byte	$00
	.byte	$00
	.byte	$00
	.byte	$00
	.byte	$00
	.byte	$00
	.byte	$00
	.byte	$00
	.byte	$00
	.byte	$00
	.byte	$00
	.byte	$00
	.byte	$00
	.byte	$00
	.byte	$00
	.byte	$00
	.byte	$00
	.byte	$00
	.byte	$00
	.byte	$00
	.byte	$00
	.byte	$00
	.byte	$00
	.byte	$00
	.byte	$00
	.byte	$00
	.byte	$00
	.byte	$00
	.byte	$00
	.byte	$00
	.byte	$00
	.byte	$00
	.byte	$00
	.byte	$00
	.byte	$00
	.byte	$00
	.byte	$00
	.byte	$00
	.byte	$00
	.byte	$00
	.byte	$00
	.byte	$00
	.byte	$00
	.byte	$00
	.byte	$00
	.byte	$00
	.byte	$00
	.byte	$00
	.byte	$00
	.byte	$10
	.byte	$00
	.byte	$00
	.byte	$00
	.byte	$00
	.byte	$00
	.byte	$00
	.byte	$00
	.byte	$00
	.byte	$00
	.byte	$00
	.byte	$00
	.byte	$00
	.byte	$00
	.byte	$00
	.byte	$00
	.byte	$1B
	.byte	$00
	.byte	$00
	.byte	$00
	.byte	$00
	.byte	$00
	.byte	$00
	.byte	$00
	.byte	$00
	.byte	$00
	.byte	$00
	.byte	$00
	.byte	$00
	.byte	$00
	.byte	$00
	.byte	$00
	.byte	$00
	.byte	$00
	.byte	$00
	.byte	$00
	.byte	$00
	.byte	$00
	.byte	$00
	.byte	$00
	.byte	$00
	.byte	$00
	.byte	$00
	.byte	$00
	.byte	$00
	.byte	$00
	.byte	$00
	.byte	$00
	.byte	$00
	.byte	$00
	.byte	$00
	.byte	$00
	.byte	$00
	.byte	$00
	.byte	$00
	.byte	$00
	.byte	$00
	.byte	$00
	.byte	$00
	.byte	$00
	.byte	$00
	.byte	$00
	.byte	$00
	.byte	$00
	.byte	$00
	.byte	$00
	.byte	$00
	.byte	$00
	.byte	$00
	.byte	$00
	.byte	$00
	.byte	$00
	.byte	$00
	.byte	$00
	.byte	$00
	.byte	$00
	.byte	$00
	.byte	$00
	.byte	$00
	.byte	$00
	.byte	$11
	.byte	$00
	.byte	$00
	.byte	$00
	.byte	$00
	.byte	$00
	.byte	$00
	.byte	$00
	.byte	$00
	.byte	$11
	.byte	$11
	.byte	$10
	.byte	$18
	.byte	$18
	.byte	$18
	.byte	$01
	.byte	$05
	.byte	$05
	.byte	$05
	.byte	$01
	.byte	$05
	.byte	$05
	.byte	$05
	.byte	$01
	.byte	$05
	.byte	$05
	.byte	$05
	.byte	$01
	.byte	$05
	.byte	$05
	.byte	$05
_stereomadness__37:
	.byte	$00
	.byte	$00
	.byte	$00
	.byte	$00
	.byte	$00
	.byte	$00
	.byte	$00
	.byte	$00
	.byte	$00
	.byte	$00
	.byte	$00
	.byte	$00
	.byte	$00
	.byte	$00
	.byte	$00
	.byte	$00
	.byte	$00
	.byte	$00
	.byte	$00
	.byte	$00
	.byte	$00
	.byte	$00
	.byte	$00
	.byte	$00
	.byte	$00
	.byte	$00
	.byte	$00
	.byte	$00
	.byte	$00
	.byte	$00
	.byte	$00
	.byte	$00
	.byte	$00
	.byte	$00
	.byte	$00
	.byte	$00
	.byte	$00
	.byte	$00
	.byte	$00
	.byte	$00
	.byte	$00
	.byte	$00
	.byte	$00
	.byte	$00
	.byte	$00
	.byte	$00
	.byte	$00
	.byte	$00
	.byte	$00
	.byte	$00
	.byte	$00
	.byte	$00
	.byte	$00
	.byte	$00
	.byte	$00
	.byte	$00
	.byte	$00
	.byte	$00
	.byte	$00
	.byte	$00
	.byte	$00
	.byte	$00
	.byte	$00
	.byte	$00
	.byte	$00
	.byte	$00
	.byte	$00
	.byte	$00
	.byte	$00
	.byte	$00
	.byte	$00
	.byte	$00
	.byte	$00
	.byte	$00
	.byte	$00
	.byte	$00
	.byte	$00
	.byte	$00
	.byte	$00
	.byte	$00
	.byte	$00
	.byte	$00
	.byte	$00
	.byte	$00
	.byte	$00
	.byte	$00
	.byte	$00
	.byte	$00
	.byte	$00
	.byte	$00
	.byte	$00
	.byte	$00
	.byte	$00
	.byte	$00
	.byte	$00
	.byte	$00
	.byte	$00
	.byte	$00
	.byte	$00
	.byte	$00
	.byte	$00
	.byte	$00
	.byte	$00
	.byte	$00
	.byte	$00
	.byte	$00
	.byte	$00
	.byte	$00
	.byte	$00
	.byte	$00
	.byte	$00
	.byte	$00
	.byte	$00
	.byte	$00
	.byte	$00
	.byte	$00
	.byte	$00
	.byte	$00
	.byte	$00
	.byte	$00
	.byte	$00
	.byte	$00
	.byte	$00
	.byte	$00
	.byte	$00
	.byte	$00
	.byte	$00
	.byte	$00
	.byte	$00
	.byte	$00
	.byte	$00
	.byte	$00
	.byte	$00
	.byte	$00
	.byte	$00
	.byte	$00
	.byte	$00
	.byte	$00
	.byte	$00
	.byte	$00
	.byte	$00
	.byte	$00
	.byte	$00
	.byte	$00
	.byte	$00
	.byte	$00
	.byte	$00
	.byte	$00
	.byte	$00
	.byte	$00
	.byte	$00
	.byte	$00
	.byte	$00
	.byte	$00
	.byte	$00
	.byte	$00
	.byte	$00
	.byte	$00
	.byte	$00
	.byte	$00
	.byte	$00
	.byte	$00
	.byte	$00
	.byte	$00
	.byte	$00
	.byte	$00
	.byte	$00
	.byte	$00
	.byte	$10
	.byte	$19
	.byte	$00
	.byte	$00
	.byte	$00
	.byte	$00
	.byte	$00
	.byte	$00
	.byte	$00
	.byte	$00
	.byte	$00
	.byte	$00
	.byte	$10
	.byte	$00
	.byte	$00
	.byte	$00
	.byte	$2D
	.byte	$00
	.byte	$00
	.byte	$19
	.byte	$00
	.byte	$00
	.byte	$00
	.byte	$00
	.byte	$10
	.byte	$00
	.byte	$00
	.byte	$00
	.byte	$2D
	.byte	$00
	.byte	$00
	.byte	$00
	.byte	$2D
	.byte	$00
	.byte	$00
	.byte	$00
	.byte	$00
	.byte	$19
	.byte	$00
	.byte	$00
	.byte	$2D
	.byte	$18
	.byte	$18
	.byte	$18
	.byte	$2D
	.byte	$18
	.byte	$18
	.byte	$18
	.byte	$2D
	.byte	$18
	.byte	$18
	.byte	$18
	.byte	$18
	.byte	$18
	.byte	$18
	.byte	$19
	.byte	$01
	.byte	$05
	.byte	$05
	.byte	$05
	.byte	$01
	.byte	$05
	.byte	$05
	.byte	$05
	.byte	$01
	.byte	$05
	.byte	$05
	.byte	$05
	.byte	$01
	.byte	$05
	.byte	$05
	.byte	$05
_stereomadness__38:
	.byte	$00
	.byte	$00
	.byte	$00
	.byte	$00
	.byte	$00
	.byte	$00
	.byte	$00
	.byte	$00
	.byte	$00
	.byte	$00
	.byte	$00
	.byte	$00
	.byte	$00
	.byte	$00
	.byte	$00
	.byte	$00
	.byte	$00
	.byte	$00
	.byte	$00
	.byte	$00
	.byte	$00
	.byte	$00
	.byte	$00
	.byte	$00
	.byte	$00
	.byte	$00
	.byte	$00
	.byte	$00
	.byte	$00
	.byte	$00
	.byte	$00
	.byte	$00
	.byte	$00
	.byte	$00
	.byte	$00
	.byte	$00
	.byte	$00
	.byte	$00
	.byte	$00
	.byte	$00
	.byte	$00
	.byte	$00
	.byte	$00
	.byte	$00
	.byte	$00
	.byte	$00
	.byte	$00
	.byte	$00
	.byte	$00
	.byte	$00
	.byte	$00
	.byte	$00
	.byte	$00
	.byte	$00
	.byte	$00
	.byte	$00
	.byte	$00
	.byte	$00
	.byte	$00
	.byte	$00
	.byte	$00
	.byte	$00
	.byte	$00
	.byte	$00
	.byte	$00
	.byte	$00
	.byte	$00
	.byte	$00
	.byte	$00
	.byte	$00
	.byte	$00
	.byte	$00
	.byte	$00
	.byte	$00
	.byte	$00
	.byte	$00
	.byte	$00
	.byte	$00
	.byte	$00
	.byte	$00
	.byte	$00
	.byte	$00
	.byte	$00
	.byte	$00
	.byte	$00
	.byte	$00
	.byte	$00
	.byte	$00
	.byte	$00
	.byte	$00
	.byte	$00
	.byte	$00
	.byte	$00
	.byte	$00
	.byte	$00
	.byte	$00
	.byte	$00
	.byte	$00
	.byte	$00
	.byte	$00
	.byte	$00
	.byte	$00
	.byte	$00
	.byte	$00
	.byte	$00
	.byte	$00
	.byte	$00
	.byte	$00
	.byte	$00
	.byte	$00
	.byte	$00
	.byte	$00
	.byte	$00
	.byte	$00
	.byte	$00
	.byte	$00
	.byte	$00
	.byte	$00
	.byte	$00
	.byte	$00
	.byte	$00
	.byte	$00
	.byte	$00
	.byte	$00
	.byte	$00
	.byte	$00
	.byte	$00
	.byte	$00
	.byte	$00
	.byte	$00
	.byte	$00
	.byte	$00
	.byte	$00
	.byte	$00
	.byte	$00
	.byte	$00
	.byte	$00
	.byte	$00
	.byte	$00
	.byte	$00
	.byte	$00
	.byte	$00
	.byte	$00
	.byte	$00
	.byte	$00
	.byte	$00
	.byte	$00
	.byte	$00
	.byte	$00
	.byte	$00
	.byte	$00
	.byte	$00
	.byte	$00
	.byte	$00
	.byte	$00
	.byte	$00
	.byte	$00
	.byte	$00
	.byte	$00
	.byte	$00
	.byte	$00
	.byte	$00
	.byte	$00
	.byte	$00
	.byte	$00
	.byte	$00
	.byte	$00
	.byte	$00
	.byte	$00
	.byte	$00
	.byte	$00
	.byte	$00
	.byte	$00
	.byte	$00
	.byte	$00
	.byte	$00
	.byte	$00
	.byte	$00
	.byte	$00
	.byte	$00
	.byte	$00
	.byte	$00
	.byte	$00
	.byte	$00
	.byte	$00
	.byte	$00
	.byte	$00
	.byte	$00
	.byte	$00
	.byte	$10
	.byte	$10
	.byte	$10
	.byte	$00
	.byte	$00
	.byte	$00
	.byte	$00
	.byte	$00
	.byte	$00
	.byte	$00
	.byte	$00
	.byte	$00
	.byte	$00
	.byte	$00
	.byte	$00
	.byte	$00
	.byte	$1B
	.byte	$1B
	.byte	$1B
	.byte	$00
	.byte	$00
	.byte	$00
	.byte	$00
	.byte	$00
	.byte	$11
	.byte	$11
	.byte	$00
	.byte	$00
	.byte	$00
	.byte	$00
	.byte	$00
	.byte	$00
	.byte	$00
	.byte	$00
	.byte	$00
	.byte	$01
	.byte	$05
	.byte	$05
	.byte	$05
	.byte	$01
	.byte	$05
	.byte	$05
	.byte	$05
	.byte	$01
	.byte	$05
	.byte	$05
	.byte	$05
	.byte	$01
	.byte	$05
	.byte	$05
	.byte	$05
_stereomadness__39:
	.byte	$00
	.byte	$00
	.byte	$00
	.byte	$00
	.byte	$00
	.byte	$00
	.byte	$00
	.byte	$00
	.byte	$00
	.byte	$00
	.byte	$00
	.byte	$00
	.byte	$00
	.byte	$00
	.byte	$00
	.byte	$00
	.byte	$00
	.byte	$00
	.byte	$00
	.byte	$00
	.byte	$00
	.byte	$00
	.byte	$00
	.byte	$00
	.byte	$00
	.byte	$00
	.byte	$00
	.byte	$00
	.byte	$00
	.byte	$00
	.byte	$00
	.byte	$00
	.byte	$00
	.byte	$00
	.byte	$00
	.byte	$00
	.byte	$00
	.byte	$00
	.byte	$00
	.byte	$00
	.byte	$00
	.byte	$00
	.byte	$00
	.byte	$00
	.byte	$00
	.byte	$00
	.byte	$00
	.byte	$00
	.byte	$00
	.byte	$00
	.byte	$00
	.byte	$00
	.byte	$00
	.byte	$00
	.byte	$00
	.byte	$00
	.byte	$00
	.byte	$00
	.byte	$00
	.byte	$00
	.byte	$00
	.byte	$00
	.byte	$00
	.byte	$00
	.byte	$00
	.byte	$00
	.byte	$00
	.byte	$00
	.byte	$00
	.byte	$00
	.byte	$00
	.byte	$00
	.byte	$00
	.byte	$00
	.byte	$00
	.byte	$00
	.byte	$00
	.byte	$00
	.byte	$00
	.byte	$00
	.byte	$00
	.byte	$00
	.byte	$00
	.byte	$00
	.byte	$00
	.byte	$00
	.byte	$00
	.byte	$00
	.byte	$00
	.byte	$00
	.byte	$00
	.byte	$00
	.byte	$00
	.byte	$00
	.byte	$00
	.byte	$00
	.byte	$00
	.byte	$00
	.byte	$00
	.byte	$00
	.byte	$00
	.byte	$00
	.byte	$00
	.byte	$00
	.byte	$00
	.byte	$00
	.byte	$00
	.byte	$00
	.byte	$00
	.byte	$00
	.byte	$00
	.byte	$00
	.byte	$00
	.byte	$00
	.byte	$00
	.byte	$00
	.byte	$00
	.byte	$00
	.byte	$00
	.byte	$00
	.byte	$00
	.byte	$00
	.byte	$00
	.byte	$00
	.byte	$00
	.byte	$00
	.byte	$00
	.byte	$00
	.byte	$00
	.byte	$00
	.byte	$00
	.byte	$00
	.byte	$00
	.byte	$00
	.byte	$00
	.byte	$00
	.byte	$00
	.byte	$00
	.byte	$00
	.byte	$00
	.byte	$00
	.byte	$00
	.byte	$00
	.byte	$00
	.byte	$00
	.byte	$00
	.byte	$00
	.byte	$00
	.byte	$00
	.byte	$00
	.byte	$00
	.byte	$00
	.byte	$00
	.byte	$00
	.byte	$00
	.byte	$00
	.byte	$00
	.byte	$00
	.byte	$00
	.byte	$00
	.byte	$00
	.byte	$00
	.byte	$00
	.byte	$00
	.byte	$00
	.byte	$00
	.byte	$00
	.byte	$00
	.byte	$00
	.byte	$00
	.byte	$00
	.byte	$00
	.byte	$00
	.byte	$00
	.byte	$00
	.byte	$00
	.byte	$10
	.byte	$00
	.byte	$00
	.byte	$00
	.byte	$00
	.byte	$00
	.byte	$00
	.byte	$00
	.byte	$00
	.byte	$00
	.byte	$00
	.byte	$00
	.byte	$00
	.byte	$00
	.byte	$00
	.byte	$00
	.byte	$1B
	.byte	$00
	.byte	$00
	.byte	$00
	.byte	$00
	.byte	$00
	.byte	$00
	.byte	$00
	.byte	$00
	.byte	$00
	.byte	$00
	.byte	$00
	.byte	$00
	.byte	$00
	.byte	$00
	.byte	$00
	.byte	$00
	.byte	$00
	.byte	$00
	.byte	$00
	.byte	$00
	.byte	$11
	.byte	$10
	.byte	$00
	.byte	$00
	.byte	$00
	.byte	$00
	.byte	$00
	.byte	$00
	.byte	$00
	.byte	$00
	.byte	$19
	.byte	$01
	.byte	$05
	.byte	$05
	.byte	$05
	.byte	$01
	.byte	$05
	.byte	$05
	.byte	$05
	.byte	$01
	.byte	$05
	.byte	$05
	.byte	$05
	.byte	$01
	.byte	$05
	.byte	$05
	.byte	$05
_stereomadness__40:
	.byte	$00
	.byte	$00
	.byte	$00
	.byte	$00
	.byte	$00
	.byte	$00
	.byte	$00
	.byte	$00
	.byte	$00
	.byte	$00
	.byte	$00
	.byte	$00
	.byte	$00
	.byte	$00
	.byte	$00
	.byte	$00
	.byte	$00
	.byte	$00
	.byte	$00
	.byte	$00
	.byte	$00
	.byte	$00
	.byte	$00
	.byte	$00
	.byte	$00
	.byte	$00
	.byte	$00
	.byte	$00
	.byte	$00
	.byte	$00
	.byte	$00
	.byte	$00
	.byte	$00
	.byte	$00
	.byte	$00
	.byte	$00
	.byte	$00
	.byte	$00
	.byte	$00
	.byte	$00
	.byte	$00
	.byte	$00
	.byte	$00
	.byte	$00
	.byte	$00
	.byte	$00
	.byte	$00
	.byte	$00
	.byte	$00
	.byte	$00
	.byte	$00
	.byte	$00
	.byte	$00
	.byte	$00
	.byte	$00
	.byte	$00
	.byte	$00
	.byte	$00
	.byte	$00
	.byte	$00
	.byte	$00
	.byte	$00
	.byte	$00
	.byte	$00
	.byte	$00
	.byte	$00
	.byte	$00
	.byte	$00
	.byte	$00
	.byte	$00
	.byte	$00
	.byte	$00
	.byte	$00
	.byte	$00
	.byte	$00
	.byte	$00
	.byte	$00
	.byte	$00
	.byte	$00
	.byte	$00
	.byte	$00
	.byte	$00
	.byte	$00
	.byte	$00
	.byte	$00
	.byte	$00
	.byte	$00
	.byte	$00
	.byte	$00
	.byte	$00
	.byte	$00
	.byte	$00
	.byte	$00
	.byte	$00
	.byte	$00
	.byte	$00
	.byte	$00
	.byte	$00
	.byte	$00
	.byte	$00
	.byte	$00
	.byte	$00
	.byte	$00
	.byte	$00
	.byte	$00
	.byte	$00
	.byte	$00
	.byte	$00
	.byte	$00
	.byte	$00
	.byte	$00
	.byte	$00
	.byte	$00
	.byte	$00
	.byte	$00
	.byte	$00
	.byte	$00
	.byte	$00
	.byte	$00
	.byte	$00
	.byte	$00
	.byte	$00
	.byte	$00
	.byte	$00
	.byte	$00
	.byte	$00
	.byte	$00
	.byte	$00
	.byte	$00
	.byte	$00
	.byte	$00
	.byte	$00
	.byte	$00
	.byte	$00
	.byte	$00
	.byte	$00
	.byte	$00
	.byte	$00
	.byte	$00
	.byte	$00
	.byte	$00
	.byte	$00
	.byte	$00
	.byte	$00
	.byte	$00
	.byte	$00
	.byte	$00
	.byte	$00
	.byte	$00
	.byte	$00
	.byte	$00
	.byte	$00
	.byte	$00
	.byte	$00
	.byte	$00
	.byte	$00
	.byte	$00
	.byte	$00
	.byte	$00
	.byte	$00
	.byte	$00
	.byte	$00
	.byte	$00
	.byte	$00
	.byte	$00
	.byte	$00
	.byte	$00
	.byte	$00
	.byte	$00
	.byte	$00
	.byte	$00
	.byte	$00
	.byte	$00
	.byte	$00
	.byte	$19
	.byte	$00
	.byte	$00
	.byte	$00
	.byte	$00
	.byte	$00
	.byte	$00
	.byte	$00
	.byte	$00
	.byte	$00
	.byte	$00
	.byte	$00
	.byte	$19
	.byte	$00
	.byte	$00
	.byte	$00
	.byte	$00
	.byte	$00
	.byte	$00
	.byte	$00
	.byte	$00
	.byte	$00
	.byte	$00
	.byte	$00
	.byte	$19
	.byte	$00
	.byte	$00
	.byte	$00
	.byte	$00
	.byte	$00
	.byte	$00
	.byte	$00
	.byte	$00
	.byte	$00
	.byte	$19
	.byte	$19
	.byte	$19
	.byte	$18
	.byte	$18
	.byte	$18
	.byte	$18
	.byte	$18
	.byte	$18
	.byte	$18
	.byte	$18
	.byte	$18
	.byte	$18
	.byte	$18
	.byte	$18
	.byte	$18
	.byte	$01
	.byte	$05
	.byte	$05
	.byte	$05
	.byte	$01
	.byte	$05
	.byte	$05
	.byte	$05
	.byte	$01
	.byte	$05
	.byte	$05
	.byte	$05
	.byte	$01
	.byte	$05
	.byte	$05
	.byte	$05
_stereomadness__41:
	.byte	$00
	.byte	$00
	.byte	$00
	.byte	$00
	.byte	$00
	.byte	$00
	.byte	$00
	.byte	$00
	.byte	$00
	.byte	$00
	.byte	$00
	.byte	$00
	.byte	$00
	.byte	$00
	.byte	$00
	.byte	$00
	.byte	$00
	.byte	$00
	.byte	$00
	.byte	$00
	.byte	$00
	.byte	$00
	.byte	$00
	.byte	$00
	.byte	$00
	.byte	$00
	.byte	$00
	.byte	$00
	.byte	$00
	.byte	$00
	.byte	$00
	.byte	$00
	.byte	$00
	.byte	$00
	.byte	$00
	.byte	$00
	.byte	$00
	.byte	$00
	.byte	$00
	.byte	$00
	.byte	$00
	.byte	$00
	.byte	$00
	.byte	$00
	.byte	$00
	.byte	$00
	.byte	$00
	.byte	$00
	.byte	$00
	.byte	$00
	.byte	$00
	.byte	$00
	.byte	$00
	.byte	$00
	.byte	$00
	.byte	$00
	.byte	$00
	.byte	$00
	.byte	$00
	.byte	$00
	.byte	$00
	.byte	$00
	.byte	$00
	.byte	$00
	.byte	$00
	.byte	$00
	.byte	$00
	.byte	$00
	.byte	$00
	.byte	$00
	.byte	$00
	.byte	$00
	.byte	$00
	.byte	$00
	.byte	$00
	.byte	$00
	.byte	$00
	.byte	$00
	.byte	$00
	.byte	$00
	.byte	$00
	.byte	$00
	.byte	$00
	.byte	$00
	.byte	$00
	.byte	$00
	.byte	$00
	.byte	$00
	.byte	$00
	.byte	$00
	.byte	$00
	.byte	$00
	.byte	$00
	.byte	$00
	.byte	$00
	.byte	$00
	.byte	$00
	.byte	$00
	.byte	$00
	.byte	$00
	.byte	$00
	.byte	$00
	.byte	$00
	.byte	$00
	.byte	$00
	.byte	$00
	.byte	$00
	.byte	$00
	.byte	$00
	.byte	$00
	.byte	$00
	.byte	$00
	.byte	$00
	.byte	$00
	.byte	$00
	.byte	$00
	.byte	$00
	.byte	$00
	.byte	$10
	.byte	$00
	.byte	$00
	.byte	$00
	.byte	$00
	.byte	$00
	.byte	$00
	.byte	$00
	.byte	$00
	.byte	$00
	.byte	$00
	.byte	$00
	.byte	$00
	.byte	$00
	.byte	$00
	.byte	$00
	.byte	$00
	.byte	$00
	.byte	$10
	.byte	$00
	.byte	$00
	.byte	$00
	.byte	$00
	.byte	$00
	.byte	$00
	.byte	$00
	.byte	$00
	.byte	$00
	.byte	$19
	.byte	$19
	.byte	$19
	.byte	$00
	.byte	$00
	.byte	$00
	.byte	$00
	.byte	$00
	.byte	$10
	.byte	$00
	.byte	$12
	.byte	$00
	.byte	$00
	.byte	$00
	.byte	$00
	.byte	$00
	.byte	$00
	.byte	$00
	.byte	$00
	.byte	$00
	.byte	$10
	.byte	$00
	.byte	$00
	.byte	$00
	.byte	$00
	.byte	$00
	.byte	$10
	.byte	$00
	.byte	$00
	.byte	$00
	.byte	$00
	.byte	$00
	.byte	$00
	.byte	$00
	.byte	$00
	.byte	$00
	.byte	$00
	.byte	$00
	.byte	$10
	.byte	$00
	.byte	$00
	.byte	$00
	.byte	$00
	.byte	$00
	.byte	$00
	.byte	$00
	.byte	$00
	.byte	$00
	.byte	$00
	.byte	$00
	.byte	$00
	.byte	$00
	.byte	$00
	.byte	$00
	.byte	$00
	.byte	$00
	.byte	$10
	.byte	$00
	.byte	$00
	.byte	$00
	.byte	$00
	.byte	$00
	.byte	$18
	.byte	$18
	.byte	$18
	.byte	$18
	.byte	$18
	.byte	$18
	.byte	$18
	.byte	$18
	.byte	$18
	.byte	$18
	.byte	$18
	.byte	$18
	.byte	$10
	.byte	$10
	.byte	$18
	.byte	$18
	.byte	$01
	.byte	$05
	.byte	$05
	.byte	$05
	.byte	$01
	.byte	$05
	.byte	$05
	.byte	$05
	.byte	$01
	.byte	$05
	.byte	$05
	.byte	$05
	.byte	$01
	.byte	$05
	.byte	$05
	.byte	$05
_stereomadness__42:
	.byte	$00
	.byte	$00
	.byte	$00
	.byte	$00
	.byte	$00
	.byte	$00
	.byte	$00
	.byte	$00
	.byte	$00
	.byte	$00
	.byte	$00
	.byte	$00
	.byte	$00
	.byte	$00
	.byte	$00
	.byte	$00
	.byte	$00
	.byte	$00
	.byte	$00
	.byte	$00
	.byte	$00
	.byte	$00
	.byte	$00
	.byte	$00
	.byte	$00
	.byte	$00
	.byte	$00
	.byte	$00
	.byte	$00
	.byte	$00
	.byte	$00
	.byte	$00
	.byte	$00
	.byte	$00
	.byte	$00
	.byte	$00
	.byte	$00
	.byte	$00
	.byte	$00
	.byte	$00
	.byte	$00
	.byte	$00
	.byte	$00
	.byte	$00
	.byte	$00
	.byte	$00
	.byte	$00
	.byte	$00
	.byte	$00
	.byte	$00
	.byte	$00
	.byte	$00
	.byte	$00
	.byte	$00
	.byte	$00
	.byte	$00
	.byte	$00
	.byte	$00
	.byte	$00
	.byte	$00
	.byte	$00
	.byte	$00
	.byte	$00
	.byte	$00
	.byte	$00
	.byte	$00
	.byte	$00
	.byte	$00
	.byte	$00
	.byte	$00
	.byte	$00
	.byte	$00
	.byte	$00
	.byte	$00
	.byte	$00
	.byte	$00
	.byte	$00
	.byte	$00
	.byte	$00
	.byte	$00
	.byte	$00
	.byte	$00
	.byte	$00
	.byte	$00
	.byte	$00
	.byte	$00
	.byte	$00
	.byte	$00
	.byte	$00
	.byte	$00
	.byte	$00
	.byte	$00
	.byte	$00
	.byte	$00
	.byte	$00
	.byte	$00
	.byte	$00
	.byte	$00
	.byte	$00
	.byte	$00
	.byte	$00
	.byte	$00
	.byte	$00
	.byte	$00
	.byte	$00
	.byte	$00
	.byte	$00
	.byte	$00
	.byte	$00
	.byte	$00
	.byte	$00
	.byte	$00
	.byte	$00
	.byte	$00
	.byte	$00
	.byte	$00
	.byte	$00
	.byte	$00
	.byte	$00
	.byte	$00
	.byte	$00
	.byte	$00
	.byte	$00
	.byte	$00
	.byte	$00
	.byte	$00
	.byte	$00
	.byte	$00
	.byte	$00
	.byte	$00
	.byte	$00
	.byte	$00
	.byte	$00
	.byte	$00
	.byte	$00
	.byte	$00
	.byte	$00
	.byte	$00
	.byte	$00
	.byte	$00
	.byte	$00
	.byte	$00
	.byte	$00
	.byte	$00
	.byte	$00
	.byte	$00
	.byte	$00
	.byte	$00
	.byte	$00
	.byte	$00
	.byte	$00
	.byte	$00
	.byte	$00
	.byte	$00
	.byte	$00
	.byte	$00
	.byte	$00
	.byte	$00
	.byte	$00
	.byte	$00
	.byte	$00
	.byte	$00
	.byte	$00
	.byte	$00
	.byte	$00
	.byte	$00
	.byte	$00
	.byte	$00
	.byte	$00
	.byte	$00
	.byte	$00
	.byte	$00
	.byte	$00
	.byte	$00
	.byte	$00
	.byte	$00
	.byte	$00
	.byte	$00
	.byte	$00
	.byte	$11
	.byte	$00
	.byte	$00
	.byte	$00
	.byte	$00
	.byte	$00
	.byte	$19
	.byte	$19
	.byte	$19
	.byte	$00
	.byte	$00
	.byte	$00
	.byte	$00
	.byte	$19
	.byte	$00
	.byte	$00
	.byte	$19
	.byte	$00
	.byte	$19
	.byte	$00
	.byte	$00
	.byte	$00
	.byte	$00
	.byte	$00
	.byte	$00
	.byte	$00
	.byte	$19
	.byte	$00
	.byte	$00
	.byte	$18
	.byte	$18
	.byte	$18
	.byte	$18
	.byte	$18
	.byte	$18
	.byte	$18
	.byte	$18
	.byte	$18
	.byte	$18
	.byte	$18
	.byte	$18
	.byte	$18
	.byte	$18
	.byte	$18
	.byte	$19
	.byte	$01
	.byte	$05
	.byte	$05
	.byte	$05
	.byte	$01
	.byte	$05
	.byte	$05
	.byte	$05
	.byte	$01
	.byte	$05
	.byte	$05
	.byte	$05
	.byte	$01
	.byte	$05
	.byte	$05
	.byte	$05
_stereomadness__43:
	.byte	$00
	.byte	$00
	.byte	$00
	.byte	$00
	.byte	$00
	.byte	$00
	.byte	$00
	.byte	$00
	.byte	$00
	.byte	$00
	.byte	$00
	.byte	$00
	.byte	$00
	.byte	$00
	.byte	$00
	.byte	$00
	.byte	$00
	.byte	$00
	.byte	$00
	.byte	$00
	.byte	$00
	.byte	$00
	.byte	$00
	.byte	$00
	.byte	$00
	.byte	$00
	.byte	$00
	.byte	$00
	.byte	$00
	.byte	$00
	.byte	$00
	.byte	$00
	.byte	$00
	.byte	$00
	.byte	$00
	.byte	$00
	.byte	$00
	.byte	$00
	.byte	$00
	.byte	$00
	.byte	$00
	.byte	$00
	.byte	$00
	.byte	$00
	.byte	$00
	.byte	$00
	.byte	$00
	.byte	$00
	.byte	$00
	.byte	$00
	.byte	$00
	.byte	$00
	.byte	$00
	.byte	$00
	.byte	$00
	.byte	$00
	.byte	$00
	.byte	$00
	.byte	$00
	.byte	$00
	.byte	$00
	.byte	$00
	.byte	$00
	.byte	$00
	.byte	$00
	.byte	$00
	.byte	$00
	.byte	$00
	.byte	$00
	.byte	$00
	.byte	$00
	.byte	$00
	.byte	$00
	.byte	$00
	.byte	$00
	.byte	$00
	.byte	$00
	.byte	$00
	.byte	$00
	.byte	$00
	.byte	$00
	.byte	$00
	.byte	$00
	.byte	$00
	.byte	$00
	.byte	$00
	.byte	$00
	.byte	$00
	.byte	$00
	.byte	$00
	.byte	$00
	.byte	$00
	.byte	$00
	.byte	$00
	.byte	$00
	.byte	$00
	.byte	$00
	.byte	$00
	.byte	$00
	.byte	$00
	.byte	$00
	.byte	$00
	.byte	$00
	.byte	$00
	.byte	$00
	.byte	$00
	.byte	$00
	.byte	$00
	.byte	$00
	.byte	$00
	.byte	$00
	.byte	$00
	.byte	$00
	.byte	$00
	.byte	$00
	.byte	$00
	.byte	$00
	.byte	$00
	.byte	$00
	.byte	$00
	.byte	$00
	.byte	$00
	.byte	$00
	.byte	$00
	.byte	$00
	.byte	$00
	.byte	$00
	.byte	$00
	.byte	$00
	.byte	$00
	.byte	$00
	.byte	$00
	.byte	$00
	.byte	$00
	.byte	$00
	.byte	$00
	.byte	$00
	.byte	$00
	.byte	$10
	.byte	$10
	.byte	$10
	.byte	$00
	.byte	$00
	.byte	$00
	.byte	$00
	.byte	$00
	.byte	$00
	.byte	$00
	.byte	$00
	.byte	$00
	.byte	$00
	.byte	$00
	.byte	$00
	.byte	$00
	.byte	$1B
	.byte	$1B
	.byte	$1B
	.byte	$00
	.byte	$00
	.byte	$00
	.byte	$00
	.byte	$00
	.byte	$00
	.byte	$00
	.byte	$00
	.byte	$00
	.byte	$00
	.byte	$00
	.byte	$00
	.byte	$00
	.byte	$00
	.byte	$00
	.byte	$00
	.byte	$00
	.byte	$00
	.byte	$00
	.byte	$00
	.byte	$00
	.byte	$00
	.byte	$00
	.byte	$00
	.byte	$00
	.byte	$00
	.byte	$00
	.byte	$00
	.byte	$00
	.byte	$00
	.byte	$00
	.byte	$00
	.byte	$00
	.byte	$00
	.byte	$00
	.byte	$00
	.byte	$00
	.byte	$00
	.byte	$00
	.byte	$00
	.byte	$00
	.byte	$00
	.byte	$00
	.byte	$00
	.byte	$00
	.byte	$00
	.byte	$00
	.byte	$00
	.byte	$00
	.byte	$00
	.byte	$00
	.byte	$19
	.byte	$19
	.byte	$11
	.byte	$11
	.byte	$00
	.byte	$00
	.byte	$00
	.byte	$00
	.byte	$00
	.byte	$00
	.byte	$11
	.byte	$11
	.byte	$11
	.byte	$00
	.byte	$00
	.byte	$00
	.byte	$01
	.byte	$05
	.byte	$05
	.byte	$05
	.byte	$01
	.byte	$05
	.byte	$05
	.byte	$05
	.byte	$01
	.byte	$05
	.byte	$05
	.byte	$05
	.byte	$01
	.byte	$05
	.byte	$05
	.byte	$05
_stereomadness__44:
	.byte	$00
	.byte	$00
	.byte	$00
	.byte	$00
	.byte	$00
	.byte	$00
	.byte	$00
	.byte	$00
	.byte	$00
	.byte	$00
	.byte	$00
	.byte	$00
	.byte	$00
	.byte	$00
	.byte	$00
	.byte	$00
	.byte	$00
	.byte	$00
	.byte	$00
	.byte	$00
	.byte	$00
	.byte	$00
	.byte	$00
	.byte	$00
	.byte	$00
	.byte	$00
	.byte	$00
	.byte	$00
	.byte	$00
	.byte	$00
	.byte	$00
	.byte	$00
	.byte	$00
	.byte	$00
	.byte	$00
	.byte	$00
	.byte	$00
	.byte	$00
	.byte	$00
	.byte	$00
	.byte	$00
	.byte	$00
	.byte	$00
	.byte	$00
	.byte	$00
	.byte	$00
	.byte	$00
	.byte	$00
	.byte	$00
	.byte	$00
	.byte	$00
	.byte	$00
	.byte	$00
	.byte	$00
	.byte	$00
	.byte	$00
	.byte	$00
	.byte	$00
	.byte	$00
	.byte	$00
	.byte	$00
	.byte	$00
	.byte	$00
	.byte	$00
	.byte	$00
	.byte	$00
	.byte	$00
	.byte	$00
	.byte	$00
	.byte	$00
	.byte	$00
	.byte	$00
	.byte	$00
	.byte	$00
	.byte	$00
	.byte	$00
	.byte	$00
	.byte	$00
	.byte	$00
	.byte	$00
	.byte	$00
	.byte	$00
	.byte	$00
	.byte	$00
	.byte	$00
	.byte	$00
	.byte	$00
	.byte	$00
	.byte	$00
	.byte	$00
	.byte	$00
	.byte	$00
	.byte	$00
	.byte	$00
	.byte	$00
	.byte	$00
	.byte	$00
	.byte	$00
	.byte	$00
	.byte	$00
	.byte	$00
	.byte	$00
	.byte	$00
	.byte	$00
	.byte	$00
	.byte	$00
	.byte	$00
	.byte	$00
	.byte	$00
	.byte	$00
	.byte	$00
	.byte	$00
	.byte	$00
	.byte	$00
	.byte	$00
	.byte	$00
	.byte	$00
	.byte	$00
	.byte	$00
	.byte	$00
	.byte	$00
	.byte	$00
	.byte	$00
	.byte	$00
	.byte	$00
	.byte	$00
	.byte	$00
	.byte	$00
	.byte	$00
	.byte	$00
	.byte	$00
	.byte	$00
	.byte	$00
	.byte	$00
	.byte	$00
	.byte	$00
	.byte	$00
	.byte	$00
	.byte	$00
	.byte	$00
	.byte	$00
	.byte	$00
	.byte	$00
	.byte	$00
	.byte	$00
	.byte	$00
	.byte	$00
	.byte	$00
	.byte	$00
	.byte	$00
	.byte	$00
	.byte	$00
	.byte	$00
	.byte	$00
	.byte	$00
	.byte	$00
	.byte	$00
	.byte	$00
	.byte	$00
	.byte	$00
	.byte	$00
	.byte	$00
	.byte	$00
	.byte	$00
	.byte	$00
	.byte	$00
	.byte	$00
	.byte	$00
	.byte	$00
	.byte	$00
	.byte	$00
	.byte	$00
	.byte	$00
	.byte	$00
	.byte	$00
	.byte	$00
	.byte	$00
	.byte	$00
	.byte	$00
	.byte	$00
	.byte	$00
	.byte	$00
	.byte	$00
	.byte	$00
	.byte	$00
	.byte	$00
	.byte	$00
	.byte	$00
	.byte	$00
	.byte	$00
	.byte	$00
	.byte	$00
	.byte	$00
	.byte	$00
	.byte	$00
	.byte	$00
	.byte	$00
	.byte	$00
	.byte	$00
	.byte	$00
	.byte	$00
	.byte	$00
	.byte	$00
	.byte	$00
	.byte	$00
	.byte	$00
	.byte	$00
	.byte	$00
	.byte	$00
	.byte	$00
	.byte	$00
	.byte	$00
	.byte	$00
	.byte	$00
	.byte	$10
	.byte	$19
	.byte	$19
	.byte	$18
	.byte	$18
	.byte	$18
	.byte	$19
	.byte	$19
	.byte	$18
	.byte	$18
	.byte	$01
	.byte	$05
	.byte	$05
	.byte	$05
	.byte	$01
	.byte	$05
	.byte	$05
	.byte	$05
	.byte	$01
	.byte	$05
	.byte	$05
	.byte	$05
	.byte	$01
	.byte	$05
	.byte	$05
	.byte	$05
_stereomadness__45:
	.byte	$00
	.byte	$00
	.byte	$00
	.byte	$00
	.byte	$00
	.byte	$00
	.byte	$00
	.byte	$00
	.byte	$00
	.byte	$00
	.byte	$00
	.byte	$00
	.byte	$00
	.byte	$00
	.byte	$00
	.byte	$00
	.byte	$00
	.byte	$00
	.byte	$00
	.byte	$00
	.byte	$00
	.byte	$00
	.byte	$00
	.byte	$00
	.byte	$00
	.byte	$00
	.byte	$00
	.byte	$00
	.byte	$00
	.byte	$00
	.byte	$00
	.byte	$00
	.byte	$00
	.byte	$00
	.byte	$00
	.byte	$00
	.byte	$00
	.byte	$00
	.byte	$00
	.byte	$00
	.byte	$00
	.byte	$00
	.byte	$00
	.byte	$00
	.byte	$00
	.byte	$00
	.byte	$00
	.byte	$00
	.byte	$00
	.byte	$00
	.byte	$00
	.byte	$00
	.byte	$00
	.byte	$00
	.byte	$00
	.byte	$00
	.byte	$00
	.byte	$00
	.byte	$00
	.byte	$00
	.byte	$00
	.byte	$00
	.byte	$00
	.byte	$00
	.byte	$00
	.byte	$00
	.byte	$00
	.byte	$00
	.byte	$00
	.byte	$00
	.byte	$00
	.byte	$00
	.byte	$00
	.byte	$00
	.byte	$00
	.byte	$00
	.byte	$00
	.byte	$00
	.byte	$00
	.byte	$00
	.byte	$00
	.byte	$00
	.byte	$00
	.byte	$00
	.byte	$00
	.byte	$00
	.byte	$00
	.byte	$00
	.byte	$00
	.byte	$00
	.byte	$00
	.byte	$00
	.byte	$00
	.byte	$00
	.byte	$00
	.byte	$00
	.byte	$00
	.byte	$00
	.byte	$00
	.byte	$00
	.byte	$00
	.byte	$00
	.byte	$00
	.byte	$00
	.byte	$00
	.byte	$00
	.byte	$00
	.byte	$00
	.byte	$00
	.byte	$00
	.byte	$00
	.byte	$00
	.byte	$00
	.byte	$00
	.byte	$00
	.byte	$00
	.byte	$00
	.byte	$00
	.byte	$00
	.byte	$00
	.byte	$00
	.byte	$00
	.byte	$00
	.byte	$00
	.byte	$00
	.byte	$00
	.byte	$00
	.byte	$00
	.byte	$00
	.byte	$00
	.byte	$00
	.byte	$00
	.byte	$00
	.byte	$00
	.byte	$00
	.byte	$00
	.byte	$00
	.byte	$00
	.byte	$00
	.byte	$00
	.byte	$00
	.byte	$00
	.byte	$00
	.byte	$00
	.byte	$00
	.byte	$00
	.byte	$00
	.byte	$00
	.byte	$00
	.byte	$00
	.byte	$00
	.byte	$00
	.byte	$00
	.byte	$00
	.byte	$00
	.byte	$00
	.byte	$00
	.byte	$00
	.byte	$00
	.byte	$00
	.byte	$00
	.byte	$00
	.byte	$00
	.byte	$00
	.byte	$00
	.byte	$00
	.byte	$00
	.byte	$00
	.byte	$00
	.byte	$00
	.byte	$00
	.byte	$00
	.byte	$00
	.byte	$00
	.byte	$00
	.byte	$00
	.byte	$00
	.byte	$00
	.byte	$00
	.byte	$00
	.byte	$00
	.byte	$00
	.byte	$00
	.byte	$00
	.byte	$00
	.byte	$00
	.byte	$19
	.byte	$00
	.byte	$00
	.byte	$00
	.byte	$00
	.byte	$00
	.byte	$00
	.byte	$00
	.byte	$00
	.byte	$00
	.byte	$10
	.byte	$19
	.byte	$19
	.byte	$00
	.byte	$00
	.byte	$00
	.byte	$00
	.byte	$00
	.byte	$19
	.byte	$00
	.byte	$00
	.byte	$00
	.byte	$18
	.byte	$19
	.byte	$19
	.byte	$10
	.byte	$10
	.byte	$18
	.byte	$18
	.byte	$18
	.byte	$18
	.byte	$18
	.byte	$18
	.byte	$18
	.byte	$18
	.byte	$18
	.byte	$19
	.byte	$19
	.byte	$01
	.byte	$05
	.byte	$05
	.byte	$05
	.byte	$01
	.byte	$05
	.byte	$05
	.byte	$05
	.byte	$01
	.byte	$05
	.byte	$05
	.byte	$05
	.byte	$01
	.byte	$05
	.byte	$05
	.byte	$05
_stereomadness__46:
	.byte	$00
	.byte	$00
	.byte	$00
	.byte	$00
	.byte	$00
	.byte	$00
	.byte	$00
	.byte	$00
	.byte	$00
	.byte	$00
	.byte	$00
	.byte	$00
	.byte	$00
	.byte	$00
	.byte	$00
	.byte	$00
	.byte	$00
	.byte	$00
	.byte	$00
	.byte	$00
	.byte	$00
	.byte	$00
	.byte	$00
	.byte	$00
	.byte	$00
	.byte	$00
	.byte	$00
	.byte	$00
	.byte	$00
	.byte	$00
	.byte	$00
	.byte	$00
	.byte	$00
	.byte	$00
	.byte	$00
	.byte	$00
	.byte	$00
	.byte	$00
	.byte	$00
	.byte	$00
	.byte	$00
	.byte	$00
	.byte	$00
	.byte	$00
	.byte	$00
	.byte	$00
	.byte	$00
	.byte	$00
	.byte	$00
	.byte	$00
	.byte	$00
	.byte	$00
	.byte	$00
	.byte	$00
	.byte	$00
	.byte	$00
	.byte	$00
	.byte	$00
	.byte	$00
	.byte	$00
	.byte	$00
	.byte	$00
	.byte	$00
	.byte	$00
	.byte	$00
	.byte	$00
	.byte	$00
	.byte	$00
	.byte	$00
	.byte	$00
	.byte	$00
	.byte	$00
	.byte	$00
	.byte	$00
	.byte	$00
	.byte	$00
	.byte	$00
	.byte	$00
	.byte	$00
	.byte	$00
	.byte	$00
	.byte	$00
	.byte	$00
	.byte	$00
	.byte	$00
	.byte	$00
	.byte	$00
	.byte	$00
	.byte	$00
	.byte	$00
	.byte	$00
	.byte	$00
	.byte	$00
	.byte	$00
	.byte	$00
	.byte	$00
	.byte	$00
	.byte	$00
	.byte	$00
	.byte	$00
	.byte	$00
	.byte	$00
	.byte	$00
	.byte	$00
	.byte	$00
	.byte	$00
	.byte	$00
	.byte	$00
	.byte	$00
	.byte	$00
	.byte	$00
	.byte	$00
	.byte	$00
	.byte	$00
	.byte	$00
	.byte	$00
	.byte	$00
	.byte	$00
	.byte	$00
	.byte	$00
	.byte	$00
	.byte	$00
	.byte	$00
	.byte	$00
	.byte	$00
	.byte	$00
	.byte	$00
	.byte	$00
	.byte	$00
	.byte	$00
	.byte	$00
	.byte	$00
	.byte	$00
	.byte	$00
	.byte	$00
	.byte	$00
	.byte	$00
	.byte	$00
	.byte	$00
	.byte	$00
	.byte	$00
	.byte	$00
	.byte	$00
	.byte	$00
	.byte	$00
	.byte	$00
	.byte	$00
	.byte	$00
	.byte	$00
	.byte	$00
	.byte	$00
	.byte	$00
	.byte	$00
	.byte	$00
	.byte	$00
	.byte	$00
	.byte	$00
	.byte	$00
	.byte	$00
	.byte	$00
	.byte	$00
	.byte	$00
	.byte	$00
	.byte	$00
	.byte	$00
	.byte	$00
	.byte	$00
	.byte	$00
	.byte	$00
	.byte	$00
	.byte	$00
	.byte	$00
	.byte	$00
	.byte	$00
	.byte	$00
	.byte	$00
	.byte	$00
	.byte	$00
	.byte	$00
	.byte	$00
	.byte	$00
	.byte	$00
	.byte	$11
	.byte	$00
	.byte	$00
	.byte	$00
	.byte	$00
	.byte	$00
	.byte	$00
	.byte	$00
	.byte	$11
	.byte	$00
	.byte	$00
	.byte	$00
	.byte	$00
	.byte	$00
	.byte	$19
	.byte	$00
	.byte	$19
	.byte	$00
	.byte	$19
	.byte	$19
	.byte	$19
	.byte	$19
	.byte	$00
	.byte	$00
	.byte	$19
	.byte	$00
	.byte	$19
	.byte	$18
	.byte	$18
	.byte	$18
	.byte	$18
	.byte	$18
	.byte	$18
	.byte	$18
	.byte	$18
	.byte	$18
	.byte	$18
	.byte	$18
	.byte	$18
	.byte	$18
	.byte	$18
	.byte	$18
	.byte	$01
	.byte	$05
	.byte	$05
	.byte	$05
	.byte	$01
	.byte	$05
	.byte	$05
	.byte	$05
	.byte	$01
	.byte	$05
	.byte	$05
	.byte	$05
	.byte	$01
	.byte	$05
	.byte	$05
	.byte	$05
_stereomadness__47:
	.byte	$00
	.byte	$00
	.byte	$00
	.byte	$00
	.byte	$00
	.byte	$00
	.byte	$00
	.byte	$00
	.byte	$00
	.byte	$00
	.byte	$00
	.byte	$00
	.byte	$03
	.byte	$07
	.byte	$07
	.byte	$07
	.byte	$00
	.byte	$00
	.byte	$00
	.byte	$00
	.byte	$00
	.byte	$00
	.byte	$00
	.byte	$00
	.byte	$00
	.byte	$00
	.byte	$00
	.byte	$00
	.byte	$03
	.byte	$07
	.byte	$07
	.byte	$07
	.byte	$00
	.byte	$00
	.byte	$00
	.byte	$00
	.byte	$00
	.byte	$00
	.byte	$00
	.byte	$00
	.byte	$00
	.byte	$00
	.byte	$00
	.byte	$00
	.byte	$02
	.byte	$06
	.byte	$06
	.byte	$06
	.byte	$00
	.byte	$00
	.byte	$00
	.byte	$00
	.byte	$00
	.byte	$00
	.byte	$00
	.byte	$00
	.byte	$00
	.byte	$00
	.byte	$00
	.byte	$00
	.byte	$02
	.byte	$06
	.byte	$06
	.byte	$06
	.byte	$00
	.byte	$00
	.byte	$00
	.byte	$00
	.byte	$00
	.byte	$00
	.byte	$00
	.byte	$00
	.byte	$00
	.byte	$00
	.byte	$00
	.byte	$00
	.byte	$10
	.byte	$00
	.byte	$00
	.byte	$00
	.byte	$00
	.byte	$00
	.byte	$00
	.byte	$00
	.byte	$00
	.byte	$00
	.byte	$00
	.byte	$00
	.byte	$00
	.byte	$00
	.byte	$00
	.byte	$00
	.byte	$10
	.byte	$00
	.byte	$00
	.byte	$00
	.byte	$00
	.byte	$00
	.byte	$00
	.byte	$00
	.byte	$00
	.byte	$00
	.byte	$00
	.byte	$00
	.byte	$00
	.byte	$00
	.byte	$00
	.byte	$00
	.byte	$10
	.byte	$00
	.byte	$00
	.byte	$00
	.byte	$00
	.byte	$00
	.byte	$00
	.byte	$00
	.byte	$00
	.byte	$00
	.byte	$00
	.byte	$00
	.byte	$00
	.byte	$00
	.byte	$00
	.byte	$00
	.byte	$00
	.byte	$00
	.byte	$00
	.byte	$00
	.byte	$00
	.byte	$00
	.byte	$00
	.byte	$00
	.byte	$00
	.byte	$00
	.byte	$00
	.byte	$00
	.byte	$00
	.byte	$00
	.byte	$00
	.byte	$00
	.byte	$00
	.byte	$00
	.byte	$00
	.byte	$00
	.byte	$00
	.byte	$00
	.byte	$00
	.byte	$00
	.byte	$00
	.byte	$00
	.byte	$00
	.byte	$00
	.byte	$00
	.byte	$00
	.byte	$00
	.byte	$00
	.byte	$00
	.byte	$00
	.byte	$00
	.byte	$00
	.byte	$00
	.byte	$00
	.byte	$00
	.byte	$00
	.byte	$00
	.byte	$00
	.byte	$00
	.byte	$00
	.byte	$00
	.byte	$00
	.byte	$00
	.byte	$00
	.byte	$00
	.byte	$00
	.byte	$00
	.byte	$00
	.byte	$00
	.byte	$00
	.byte	$00
	.byte	$00
	.byte	$19
	.byte	$19
	.byte	$19
	.byte	$00
	.byte	$00
	.byte	$00
	.byte	$00
	.byte	$00
	.byte	$10
	.byte	$00
	.byte	$00
	.byte	$00
	.byte	$19
	.byte	$00
	.byte	$00
	.byte	$00
	.byte	$00
	.byte	$00
	.byte	$00
	.byte	$00
	.byte	$19
	.byte	$19
	.byte	$19
	.byte	$00
	.byte	$10
	.byte	$00
	.byte	$00
	.byte	$00
	.byte	$18
	.byte	$18
	.byte	$18
	.byte	$18
	.byte	$18
	.byte	$18
	.byte	$18
	.byte	$18
	.byte	$18
	.byte	$18
	.byte	$18
	.byte	$18
	.byte	$10
	.byte	$00
	.byte	$00
	.byte	$00
	.byte	$01
	.byte	$05
	.byte	$05
	.byte	$05
	.byte	$01
	.byte	$05
	.byte	$05
	.byte	$05
	.byte	$01
	.byte	$05
	.byte	$05
	.byte	$05
	.byte	$01
	.byte	$05
	.byte	$05
	.byte	$05
_stereomadness__48:
	.byte	$03
	.byte	$07
	.byte	$07
	.byte	$07
	.byte	$03
	.byte	$07
	.byte	$07
	.byte	$07
	.byte	$03
	.byte	$07
	.byte	$07
	.byte	$07
	.byte	$03
	.byte	$07
	.byte	$07
	.byte	$07
	.byte	$03
	.byte	$07
	.byte	$07
	.byte	$07
	.byte	$03
	.byte	$07
	.byte	$07
	.byte	$07
	.byte	$03
	.byte	$07
	.byte	$07
	.byte	$07
	.byte	$03
	.byte	$07
	.byte	$07
	.byte	$07
	.byte	$02
	.byte	$06
	.byte	$06
	.byte	$06
	.byte	$02
	.byte	$06
	.byte	$06
	.byte	$06
	.byte	$02
	.byte	$06
	.byte	$06
	.byte	$06
	.byte	$02
	.byte	$06
	.byte	$06
	.byte	$06
	.byte	$02
	.byte	$06
	.byte	$06
	.byte	$06
	.byte	$02
	.byte	$06
	.byte	$06
	.byte	$06
	.byte	$02
	.byte	$06
	.byte	$06
	.byte	$06
	.byte	$02
	.byte	$06
	.byte	$06
	.byte	$06
	.byte	$00
	.byte	$00
	.byte	$00
	.byte	$00
	.byte	$00
	.byte	$00
	.byte	$00
	.byte	$00
	.byte	$00
	.byte	$10
	.byte	$2F
	.byte	$2F
	.byte	$2F
	.byte	$2F
	.byte	$2F
	.byte	$2F
	.byte	$00
	.byte	$00
	.byte	$00
	.byte	$00
	.byte	$00
	.byte	$00
	.byte	$00
	.byte	$00
	.byte	$00
	.byte	$00
	.byte	$10
	.byte	$2F
	.byte	$2F
	.byte	$2F
	.byte	$2F
	.byte	$2F
	.byte	$00
	.byte	$00
	.byte	$00
	.byte	$00
	.byte	$00
	.byte	$00
	.byte	$00
	.byte	$00
	.byte	$00
	.byte	$00
	.byte	$00
	.byte	$10
	.byte	$10
	.byte	$10
	.byte	$10
	.byte	$10
	.byte	$00
	.byte	$00
	.byte	$00
	.byte	$00
	.byte	$00
	.byte	$00
	.byte	$00
	.byte	$00
	.byte	$00
	.byte	$00
	.byte	$00
	.byte	$00
	.byte	$00
	.byte	$00
	.byte	$00
	.byte	$00
	.byte	$00
	.byte	$00
	.byte	$00
	.byte	$00
	.byte	$00
	.byte	$00
	.byte	$00
	.byte	$00
	.byte	$00
	.byte	$00
	.byte	$00
	.byte	$00
	.byte	$00
	.byte	$00
	.byte	$00
	.byte	$00
	.byte	$00
	.byte	$00
	.byte	$00
	.byte	$00
	.byte	$00
	.byte	$00
	.byte	$00
	.byte	$00
	.byte	$00
	.byte	$00
	.byte	$00
	.byte	$00
	.byte	$00
	.byte	$00
	.byte	$00
	.byte	$00
	.byte	$00
	.byte	$00
	.byte	$00
	.byte	$00
	.byte	$00
	.byte	$00
	.byte	$00
	.byte	$00
	.byte	$00
	.byte	$00
	.byte	$00
	.byte	$00
	.byte	$00
	.byte	$00
	.byte	$00
	.byte	$00
	.byte	$00
	.byte	$00
	.byte	$00
	.byte	$00
	.byte	$00
	.byte	$00
	.byte	$00
	.byte	$00
	.byte	$00
	.byte	$00
	.byte	$00
	.byte	$10
	.byte	$10
	.byte	$10
	.byte	$10
	.byte	$10
	.byte	$00
	.byte	$00
	.byte	$00
	.byte	$00
	.byte	$00
	.byte	$00
	.byte	$00
	.byte	$00
	.byte	$00
	.byte	$00
	.byte	$10
	.byte	$2F
	.byte	$2F
	.byte	$2F
	.byte	$2F
	.byte	$2F
	.byte	$00
	.byte	$00
	.byte	$00
	.byte	$00
	.byte	$00
	.byte	$00
	.byte	$00
	.byte	$00
	.byte	$00
	.byte	$10
	.byte	$2F
	.byte	$2F
	.byte	$2F
	.byte	$2F
	.byte	$2F
	.byte	$2F
	.byte	$01
	.byte	$05
	.byte	$05
	.byte	$05
	.byte	$01
	.byte	$05
	.byte	$05
	.byte	$05
	.byte	$01
	.byte	$05
	.byte	$05
	.byte	$05
	.byte	$01
	.byte	$05
	.byte	$05
	.byte	$05
_stereomadness__49:
	.byte	$03
	.byte	$07
	.byte	$07
	.byte	$07
	.byte	$03
	.byte	$07
	.byte	$07
	.byte	$07
	.byte	$03
	.byte	$07
	.byte	$07
	.byte	$07
	.byte	$03
	.byte	$07
	.byte	$07
	.byte	$07
	.byte	$03
	.byte	$07
	.byte	$07
	.byte	$07
	.byte	$03
	.byte	$07
	.byte	$07
	.byte	$07
	.byte	$03
	.byte	$07
	.byte	$07
	.byte	$07
	.byte	$03
	.byte	$07
	.byte	$07
	.byte	$07
	.byte	$02
	.byte	$06
	.byte	$06
	.byte	$06
	.byte	$02
	.byte	$06
	.byte	$06
	.byte	$06
	.byte	$02
	.byte	$06
	.byte	$06
	.byte	$06
	.byte	$02
	.byte	$06
	.byte	$06
	.byte	$06
	.byte	$02
	.byte	$06
	.byte	$06
	.byte	$06
	.byte	$02
	.byte	$06
	.byte	$06
	.byte	$06
	.byte	$02
	.byte	$06
	.byte	$06
	.byte	$06
	.byte	$02
	.byte	$06
	.byte	$06
	.byte	$06
	.byte	$2F
	.byte	$2F
	.byte	$10
	.byte	$17
	.byte	$17
	.byte	$17
	.byte	$17
	.byte	$17
	.byte	$17
	.byte	$17
	.byte	$17
	.byte	$10
	.byte	$2F
	.byte	$2F
	.byte	$2F
	.byte	$2F
	.byte	$2F
	.byte	$10
	.byte	$00
	.byte	$00
	.byte	$00
	.byte	$00
	.byte	$00
	.byte	$00
	.byte	$00
	.byte	$00
	.byte	$00
	.byte	$00
	.byte	$10
	.byte	$2F
	.byte	$2F
	.byte	$2F
	.byte	$10
	.byte	$00
	.byte	$00
	.byte	$00
	.byte	$00
	.byte	$00
	.byte	$00
	.byte	$00
	.byte	$00
	.byte	$00
	.byte	$00
	.byte	$00
	.byte	$00
	.byte	$10
	.byte	$10
	.byte	$10
	.byte	$00
	.byte	$00
	.byte	$00
	.byte	$00
	.byte	$00
	.byte	$00
	.byte	$00
	.byte	$00
	.byte	$00
	.byte	$00
	.byte	$00
	.byte	$00
	.byte	$00
	.byte	$00
	.byte	$00
	.byte	$00
	.byte	$00
	.byte	$00
	.byte	$00
	.byte	$00
	.byte	$00
	.byte	$00
	.byte	$00
	.byte	$00
	.byte	$00
	.byte	$00
	.byte	$00
	.byte	$00
	.byte	$00
	.byte	$00
	.byte	$00
	.byte	$00
	.byte	$00
	.byte	$00
	.byte	$00
	.byte	$00
	.byte	$00
	.byte	$00
	.byte	$00
	.byte	$00
	.byte	$00
	.byte	$00
	.byte	$00
	.byte	$00
	.byte	$00
	.byte	$00
	.byte	$00
	.byte	$00
	.byte	$00
	.byte	$00
	.byte	$00
	.byte	$00
	.byte	$00
	.byte	$00
	.byte	$00
	.byte	$00
	.byte	$00
	.byte	$00
	.byte	$00
	.byte	$00
	.byte	$00
	.byte	$00
	.byte	$00
	.byte	$00
	.byte	$10
	.byte	$00
	.byte	$00
	.byte	$00
	.byte	$00
	.byte	$00
	.byte	$00
	.byte	$00
	.byte	$00
	.byte	$00
	.byte	$00
	.byte	$00
	.byte	$00
	.byte	$10
	.byte	$10
	.byte	$10
	.byte	$2F
	.byte	$10
	.byte	$00
	.byte	$00
	.byte	$00
	.byte	$00
	.byte	$00
	.byte	$00
	.byte	$00
	.byte	$00
	.byte	$00
	.byte	$00
	.byte	$10
	.byte	$2F
	.byte	$2F
	.byte	$2F
	.byte	$2F
	.byte	$2F
	.byte	$10
	.byte	$18
	.byte	$18
	.byte	$18
	.byte	$18
	.byte	$18
	.byte	$18
	.byte	$18
	.byte	$18
	.byte	$10
	.byte	$2F
	.byte	$2F
	.byte	$2F
	.byte	$2F
	.byte	$01
	.byte	$05
	.byte	$05
	.byte	$05
	.byte	$01
	.byte	$05
	.byte	$05
	.byte	$05
	.byte	$01
	.byte	$05
	.byte	$05
	.byte	$05
	.byte	$01
	.byte	$05
	.byte	$05
	.byte	$05
_stereomadness__50:
	.byte	$03
	.byte	$07
	.byte	$07
	.byte	$07
	.byte	$03
	.byte	$07
	.byte	$07
	.byte	$07
	.byte	$03
	.byte	$07
	.byte	$07
	.byte	$07
	.byte	$03
	.byte	$07
	.byte	$07
	.byte	$07
	.byte	$03
	.byte	$07
	.byte	$07
	.byte	$07
	.byte	$03
	.byte	$07
	.byte	$07
	.byte	$07
	.byte	$03
	.byte	$07
	.byte	$07
	.byte	$07
	.byte	$03
	.byte	$07
	.byte	$07
	.byte	$07
	.byte	$02
	.byte	$06
	.byte	$06
	.byte	$06
	.byte	$02
	.byte	$06
	.byte	$06
	.byte	$06
	.byte	$02
	.byte	$06
	.byte	$06
	.byte	$06
	.byte	$02
	.byte	$06
	.byte	$06
	.byte	$06
	.byte	$02
	.byte	$06
	.byte	$06
	.byte	$06
	.byte	$02
	.byte	$06
	.byte	$06
	.byte	$06
	.byte	$02
	.byte	$06
	.byte	$06
	.byte	$06
	.byte	$02
	.byte	$06
	.byte	$06
	.byte	$06
	.byte	$2F
	.byte	$2F
	.byte	$2F
	.byte	$2F
	.byte	$10
	.byte	$17
	.byte	$17
	.byte	$17
	.byte	$17
	.byte	$17
	.byte	$17
	.byte	$17
	.byte	$17
	.byte	$17
	.byte	$17
	.byte	$17
	.byte	$2F
	.byte	$2F
	.byte	$2F
	.byte	$10
	.byte	$00
	.byte	$00
	.byte	$00
	.byte	$00
	.byte	$00
	.byte	$00
	.byte	$00
	.byte	$00
	.byte	$00
	.byte	$00
	.byte	$00
	.byte	$00
	.byte	$10
	.byte	$10
	.byte	$10
	.byte	$00
	.byte	$00
	.byte	$00
	.byte	$00
	.byte	$00
	.byte	$00
	.byte	$00
	.byte	$00
	.byte	$00
	.byte	$00
	.byte	$00
	.byte	$00
	.byte	$00
	.byte	$00
	.byte	$00
	.byte	$00
	.byte	$00
	.byte	$00
	.byte	$00
	.byte	$00
	.byte	$00
	.byte	$00
	.byte	$00
	.byte	$00
	.byte	$00
	.byte	$00
	.byte	$00
	.byte	$00
	.byte	$00
	.byte	$00
	.byte	$00
	.byte	$00
	.byte	$00
	.byte	$00
	.byte	$00
	.byte	$00
	.byte	$00
	.byte	$00
	.byte	$00
	.byte	$00
	.byte	$00
	.byte	$00
	.byte	$00
	.byte	$00
	.byte	$00
	.byte	$00
	.byte	$00
	.byte	$00
	.byte	$00
	.byte	$00
	.byte	$00
	.byte	$00
	.byte	$00
	.byte	$00
	.byte	$00
	.byte	$00
	.byte	$00
	.byte	$00
	.byte	$00
	.byte	$00
	.byte	$00
	.byte	$00
	.byte	$00
	.byte	$00
	.byte	$00
	.byte	$00
	.byte	$00
	.byte	$00
	.byte	$00
	.byte	$00
	.byte	$00
	.byte	$00
	.byte	$00
	.byte	$10
	.byte	$10
	.byte	$10
	.byte	$00
	.byte	$10
	.byte	$10
	.byte	$10
	.byte	$00
	.byte	$00
	.byte	$00
	.byte	$00
	.byte	$00
	.byte	$00
	.byte	$00
	.byte	$00
	.byte	$00
	.byte	$10
	.byte	$2F
	.byte	$10
	.byte	$00
	.byte	$2F
	.byte	$2F
	.byte	$2F
	.byte	$10
	.byte	$00
	.byte	$00
	.byte	$00
	.byte	$00
	.byte	$00
	.byte	$00
	.byte	$00
	.byte	$00
	.byte	$10
	.byte	$2F
	.byte	$10
	.byte	$00
	.byte	$2F
	.byte	$2F
	.byte	$2F
	.byte	$2F
	.byte	$10
	.byte	$18
	.byte	$18
	.byte	$18
	.byte	$18
	.byte	$18
	.byte	$18
	.byte	$18
	.byte	$10
	.byte	$2F
	.byte	$10
	.byte	$18
	.byte	$01
	.byte	$05
	.byte	$05
	.byte	$05
	.byte	$01
	.byte	$05
	.byte	$05
	.byte	$05
	.byte	$01
	.byte	$05
	.byte	$05
	.byte	$05
	.byte	$01
	.byte	$05
	.byte	$05
	.byte	$05
_stereomadness__51:
	.byte	$03
	.byte	$07
	.byte	$07
	.byte	$07
	.byte	$03
	.byte	$07
	.byte	$07
	.byte	$07
	.byte	$03
	.byte	$07
	.byte	$07
	.byte	$07
	.byte	$03
	.byte	$07
	.byte	$07
	.byte	$07
	.byte	$03
	.byte	$07
	.byte	$07
	.byte	$07
	.byte	$03
	.byte	$07
	.byte	$07
	.byte	$07
	.byte	$03
	.byte	$07
	.byte	$07
	.byte	$07
	.byte	$03
	.byte	$07
	.byte	$07
	.byte	$07
	.byte	$02
	.byte	$06
	.byte	$06
	.byte	$06
	.byte	$02
	.byte	$06
	.byte	$06
	.byte	$06
	.byte	$02
	.byte	$06
	.byte	$06
	.byte	$06
	.byte	$02
	.byte	$06
	.byte	$06
	.byte	$06
	.byte	$02
	.byte	$06
	.byte	$06
	.byte	$06
	.byte	$02
	.byte	$06
	.byte	$06
	.byte	$06
	.byte	$02
	.byte	$06
	.byte	$06
	.byte	$06
	.byte	$02
	.byte	$06
	.byte	$06
	.byte	$06
	.byte	$17
	.byte	$17
	.byte	$17
	.byte	$17
	.byte	$17
	.byte	$17
	.byte	$17
	.byte	$17
	.byte	$17
	.byte	$17
	.byte	$17
	.byte	$10
	.byte	$2F
	.byte	$10
	.byte	$17
	.byte	$17
	.byte	$00
	.byte	$00
	.byte	$00
	.byte	$00
	.byte	$00
	.byte	$00
	.byte	$00
	.byte	$00
	.byte	$00
	.byte	$00
	.byte	$00
	.byte	$10
	.byte	$2F
	.byte	$10
	.byte	$00
	.byte	$00
	.byte	$00
	.byte	$00
	.byte	$00
	.byte	$00
	.byte	$00
	.byte	$00
	.byte	$00
	.byte	$00
	.byte	$00
	.byte	$00
	.byte	$00
	.byte	$10
	.byte	$2F
	.byte	$10
	.byte	$00
	.byte	$00
	.byte	$00
	.byte	$00
	.byte	$00
	.byte	$00
	.byte	$00
	.byte	$00
	.byte	$00
	.byte	$00
	.byte	$00
	.byte	$00
	.byte	$00
	.byte	$10
	.byte	$10
	.byte	$10
	.byte	$00
	.byte	$00
	.byte	$00
	.byte	$00
	.byte	$00
	.byte	$00
	.byte	$00
	.byte	$00
	.byte	$00
	.byte	$00
	.byte	$00
	.byte	$00
	.byte	$00
	.byte	$00
	.byte	$00
	.byte	$00
	.byte	$00
	.byte	$00
	.byte	$00
	.byte	$00
	.byte	$00
	.byte	$00
	.byte	$00
	.byte	$00
	.byte	$00
	.byte	$00
	.byte	$00
	.byte	$00
	.byte	$00
	.byte	$00
	.byte	$00
	.byte	$00
	.byte	$00
	.byte	$00
	.byte	$00
	.byte	$00
	.byte	$00
	.byte	$00
	.byte	$00
	.byte	$00
	.byte	$00
	.byte	$00
	.byte	$00
	.byte	$00
	.byte	$00
	.byte	$00
	.byte	$00
	.byte	$00
	.byte	$00
	.byte	$00
	.byte	$00
	.byte	$00
	.byte	$00
	.byte	$00
	.byte	$00
	.byte	$00
	.byte	$00
	.byte	$00
	.byte	$00
	.byte	$00
	.byte	$00
	.byte	$00
	.byte	$00
	.byte	$00
	.byte	$00
	.byte	$00
	.byte	$00
	.byte	$00
	.byte	$00
	.byte	$00
	.byte	$00
	.byte	$00
	.byte	$00
	.byte	$00
	.byte	$00
	.byte	$00
	.byte	$00
	.byte	$00
	.byte	$00
	.byte	$00
	.byte	$00
	.byte	$00
	.byte	$18
	.byte	$18
	.byte	$18
	.byte	$18
	.byte	$18
	.byte	$18
	.byte	$18
	.byte	$18
	.byte	$18
	.byte	$18
	.byte	$18
	.byte	$18
	.byte	$18
	.byte	$18
	.byte	$18
	.byte	$18
	.byte	$01
	.byte	$05
	.byte	$05
	.byte	$05
	.byte	$01
	.byte	$05
	.byte	$05
	.byte	$05
	.byte	$01
	.byte	$05
	.byte	$05
	.byte	$05
	.byte	$01
	.byte	$05
	.byte	$05
	.byte	$05
_stereomadness__52:
	.byte	$03
	.byte	$07
	.byte	$07
	.byte	$07
	.byte	$03
	.byte	$07
	.byte	$07
	.byte	$07
	.byte	$03
	.byte	$07
	.byte	$07
	.byte	$07
	.byte	$03
	.byte	$07
	.byte	$07
	.byte	$07
	.byte	$03
	.byte	$07
	.byte	$07
	.byte	$07
	.byte	$03
	.byte	$07
	.byte	$07
	.byte	$07
	.byte	$03
	.byte	$07
	.byte	$07
	.byte	$07
	.byte	$03
	.byte	$07
	.byte	$07
	.byte	$07
	.byte	$02
	.byte	$06
	.byte	$06
	.byte	$06
	.byte	$02
	.byte	$06
	.byte	$06
	.byte	$06
	.byte	$02
	.byte	$06
	.byte	$06
	.byte	$06
	.byte	$02
	.byte	$06
	.byte	$06
	.byte	$06
	.byte	$02
	.byte	$06
	.byte	$06
	.byte	$06
	.byte	$02
	.byte	$06
	.byte	$06
	.byte	$06
	.byte	$02
	.byte	$06
	.byte	$06
	.byte	$06
	.byte	$02
	.byte	$06
	.byte	$06
	.byte	$06
	.byte	$17
	.byte	$17
	.byte	$17
	.byte	$17
	.byte	$17
	.byte	$17
	.byte	$17
	.byte	$17
	.byte	$17
	.byte	$17
	.byte	$17
	.byte	$17
	.byte	$10
	.byte	$10
	.byte	$10
	.byte	$10
	.byte	$00
	.byte	$00
	.byte	$00
	.byte	$00
	.byte	$00
	.byte	$00
	.byte	$00
	.byte	$00
	.byte	$00
	.byte	$00
	.byte	$00
	.byte	$00
	.byte	$1B
	.byte	$1B
	.byte	$1B
	.byte	$1B
	.byte	$00
	.byte	$00
	.byte	$00
	.byte	$00
	.byte	$00
	.byte	$00
	.byte	$00
	.byte	$00
	.byte	$00
	.byte	$00
	.byte	$00
	.byte	$00
	.byte	$00
	.byte	$00
	.byte	$00
	.byte	$00
	.byte	$00
	.byte	$00
	.byte	$00
	.byte	$00
	.byte	$00
	.byte	$00
	.byte	$00
	.byte	$00
	.byte	$00
	.byte	$00
	.byte	$00
	.byte	$00
	.byte	$00
	.byte	$00
	.byte	$00
	.byte	$00
	.byte	$00
	.byte	$00
	.byte	$00
	.byte	$00
	.byte	$00
	.byte	$00
	.byte	$00
	.byte	$00
	.byte	$00
	.byte	$00
	.byte	$00
	.byte	$00
	.byte	$00
	.byte	$00
	.byte	$00
	.byte	$00
	.byte	$00
	.byte	$00
	.byte	$00
	.byte	$00
	.byte	$00
	.byte	$00
	.byte	$00
	.byte	$00
	.byte	$00
	.byte	$00
	.byte	$00
	.byte	$00
	.byte	$00
	.byte	$00
	.byte	$00
	.byte	$00
	.byte	$00
	.byte	$00
	.byte	$00
	.byte	$00
	.byte	$00
	.byte	$00
	.byte	$00
	.byte	$00
	.byte	$00
	.byte	$00
	.byte	$00
	.byte	$00
	.byte	$00
	.byte	$00
	.byte	$00
	.byte	$00
	.byte	$00
	.byte	$00
	.byte	$00
	.byte	$00
	.byte	$00
	.byte	$00
	.byte	$00
	.byte	$00
	.byte	$00
	.byte	$00
	.byte	$00
	.byte	$00
	.byte	$00
	.byte	$00
	.byte	$00
	.byte	$00
	.byte	$00
	.byte	$00
	.byte	$00
	.byte	$00
	.byte	$00
	.byte	$00
	.byte	$00
	.byte	$00
	.byte	$00
	.byte	$00
	.byte	$00
	.byte	$00
	.byte	$11
	.byte	$11
	.byte	$11
	.byte	$11
	.byte	$18
	.byte	$18
	.byte	$18
	.byte	$18
	.byte	$18
	.byte	$18
	.byte	$18
	.byte	$18
	.byte	$18
	.byte	$18
	.byte	$18
	.byte	$18
	.byte	$10
	.byte	$10
	.byte	$10
	.byte	$10
	.byte	$01
	.byte	$05
	.byte	$05
	.byte	$05
	.byte	$01
	.byte	$05
	.byte	$05
	.byte	$05
	.byte	$01
	.byte	$05
	.byte	$05
	.byte	$05
	.byte	$01
	.byte	$05
	.byte	$05
	.byte	$05
_stereomadness__53:
	.byte	$03
	.byte	$07
	.byte	$07
	.byte	$07
	.byte	$03
	.byte	$07
	.byte	$07
	.byte	$07
	.byte	$03
	.byte	$07
	.byte	$07
	.byte	$07
	.byte	$03
	.byte	$07
	.byte	$07
	.byte	$07
	.byte	$03
	.byte	$07
	.byte	$07
	.byte	$07
	.byte	$03
	.byte	$07
	.byte	$07
	.byte	$07
	.byte	$03
	.byte	$07
	.byte	$07
	.byte	$07
	.byte	$03
	.byte	$07
	.byte	$07
	.byte	$07
	.byte	$02
	.byte	$06
	.byte	$06
	.byte	$06
	.byte	$02
	.byte	$06
	.byte	$06
	.byte	$06
	.byte	$02
	.byte	$06
	.byte	$06
	.byte	$06
	.byte	$02
	.byte	$06
	.byte	$06
	.byte	$06
	.byte	$02
	.byte	$06
	.byte	$06
	.byte	$06
	.byte	$02
	.byte	$06
	.byte	$06
	.byte	$06
	.byte	$02
	.byte	$06
	.byte	$06
	.byte	$06
	.byte	$02
	.byte	$06
	.byte	$06
	.byte	$06
	.byte	$10
	.byte	$10
	.byte	$17
	.byte	$17
	.byte	$17
	.byte	$17
	.byte	$17
	.byte	$10
	.byte	$2F
	.byte	$2F
	.byte	$2F
	.byte	$2F
	.byte	$10
	.byte	$17
	.byte	$17
	.byte	$17
	.byte	$1B
	.byte	$1B
	.byte	$00
	.byte	$00
	.byte	$00
	.byte	$00
	.byte	$00
	.byte	$10
	.byte	$10
	.byte	$10
	.byte	$10
	.byte	$10
	.byte	$10
	.byte	$00
	.byte	$00
	.byte	$00
	.byte	$00
	.byte	$00
	.byte	$00
	.byte	$00
	.byte	$00
	.byte	$00
	.byte	$00
	.byte	$1B
	.byte	$1B
	.byte	$1B
	.byte	$1B
	.byte	$1B
	.byte	$1B
	.byte	$00
	.byte	$00
	.byte	$00
	.byte	$00
	.byte	$00
	.byte	$00
	.byte	$00
	.byte	$00
	.byte	$00
	.byte	$00
	.byte	$00
	.byte	$00
	.byte	$00
	.byte	$00
	.byte	$00
	.byte	$00
	.byte	$00
	.byte	$00
	.byte	$00
	.byte	$00
	.byte	$00
	.byte	$00
	.byte	$00
	.byte	$00
	.byte	$00
	.byte	$00
	.byte	$00
	.byte	$00
	.byte	$00
	.byte	$00
	.byte	$00
	.byte	$00
	.byte	$00
	.byte	$00
	.byte	$00
	.byte	$00
	.byte	$00
	.byte	$00
	.byte	$00
	.byte	$00
	.byte	$00
	.byte	$00
	.byte	$00
	.byte	$00
	.byte	$00
	.byte	$00
	.byte	$00
	.byte	$00
	.byte	$00
	.byte	$00
	.byte	$00
	.byte	$00
	.byte	$00
	.byte	$00
	.byte	$00
	.byte	$00
	.byte	$00
	.byte	$00
	.byte	$00
	.byte	$00
	.byte	$00
	.byte	$00
	.byte	$00
	.byte	$00
	.byte	$00
	.byte	$00
	.byte	$00
	.byte	$00
	.byte	$00
	.byte	$00
	.byte	$00
	.byte	$00
	.byte	$00
	.byte	$00
	.byte	$11
	.byte	$11
	.byte	$11
	.byte	$11
	.byte	$11
	.byte	$11
	.byte	$00
	.byte	$00
	.byte	$00
	.byte	$11
	.byte	$11
	.byte	$00
	.byte	$00
	.byte	$00
	.byte	$00
	.byte	$00
	.byte	$10
	.byte	$10
	.byte	$10
	.byte	$10
	.byte	$10
	.byte	$10
	.byte	$00
	.byte	$00
	.byte	$00
	.byte	$10
	.byte	$10
	.byte	$18
	.byte	$18
	.byte	$18
	.byte	$18
	.byte	$18
	.byte	$10
	.byte	$2F
	.byte	$2F
	.byte	$2F
	.byte	$2F
	.byte	$10
	.byte	$18
	.byte	$18
	.byte	$18
	.byte	$01
	.byte	$05
	.byte	$05
	.byte	$05
	.byte	$01
	.byte	$05
	.byte	$05
	.byte	$05
	.byte	$01
	.byte	$05
	.byte	$05
	.byte	$05
	.byte	$01
	.byte	$05
	.byte	$05
	.byte	$05
_stereomadness__54:
	.byte	$03
	.byte	$07
	.byte	$07
	.byte	$07
	.byte	$03
	.byte	$07
	.byte	$07
	.byte	$07
	.byte	$03
	.byte	$07
	.byte	$07
	.byte	$07
	.byte	$03
	.byte	$07
	.byte	$07
	.byte	$07
	.byte	$03
	.byte	$07
	.byte	$07
	.byte	$07
	.byte	$03
	.byte	$07
	.byte	$07
	.byte	$07
	.byte	$03
	.byte	$07
	.byte	$07
	.byte	$07
	.byte	$03
	.byte	$07
	.byte	$07
	.byte	$07
	.byte	$02
	.byte	$06
	.byte	$06
	.byte	$06
	.byte	$02
	.byte	$06
	.byte	$06
	.byte	$06
	.byte	$02
	.byte	$06
	.byte	$06
	.byte	$06
	.byte	$02
	.byte	$06
	.byte	$06
	.byte	$06
	.byte	$02
	.byte	$06
	.byte	$06
	.byte	$06
	.byte	$02
	.byte	$06
	.byte	$06
	.byte	$06
	.byte	$02
	.byte	$06
	.byte	$06
	.byte	$06
	.byte	$02
	.byte	$06
	.byte	$06
	.byte	$06
	.byte	$17
	.byte	$17
	.byte	$17
	.byte	$10
	.byte	$2F
	.byte	$2F
	.byte	$2F
	.byte	$2F
	.byte	$2F
	.byte	$2F
	.byte	$2F
	.byte	$2F
	.byte	$2F
	.byte	$2F
	.byte	$2F
	.byte	$10
	.byte	$00
	.byte	$00
	.byte	$00
	.byte	$10
	.byte	$2F
	.byte	$2F
	.byte	$2F
	.byte	$2F
	.byte	$2F
	.byte	$2F
	.byte	$2F
	.byte	$2F
	.byte	$2F
	.byte	$2F
	.byte	$2F
	.byte	$10
	.byte	$00
	.byte	$00
	.byte	$00
	.byte	$10
	.byte	$10
	.byte	$10
	.byte	$10
	.byte	$10
	.byte	$10
	.byte	$10
	.byte	$10
	.byte	$10
	.byte	$10
	.byte	$10
	.byte	$10
	.byte	$10
	.byte	$00
	.byte	$00
	.byte	$00
	.byte	$00
	.byte	$00
	.byte	$00
	.byte	$00
	.byte	$00
	.byte	$00
	.byte	$00
	.byte	$00
	.byte	$00
	.byte	$00
	.byte	$00
	.byte	$00
	.byte	$00
	.byte	$00
	.byte	$00
	.byte	$00
	.byte	$00
	.byte	$00
	.byte	$00
	.byte	$00
	.byte	$00
	.byte	$00
	.byte	$00
	.byte	$00
	.byte	$00
	.byte	$00
	.byte	$00
	.byte	$00
	.byte	$00
	.byte	$00
	.byte	$00
	.byte	$00
	.byte	$00
	.byte	$00
	.byte	$00
	.byte	$00
	.byte	$00
	.byte	$00
	.byte	$00
	.byte	$00
	.byte	$00
	.byte	$00
	.byte	$00
	.byte	$00
	.byte	$00
	.byte	$00
	.byte	$00
	.byte	$00
	.byte	$00
	.byte	$00
	.byte	$00
	.byte	$00
	.byte	$00
	.byte	$00
	.byte	$00
	.byte	$00
	.byte	$00
	.byte	$00
	.byte	$00
	.byte	$00
	.byte	$00
	.byte	$00
	.byte	$00
	.byte	$00
	.byte	$10
	.byte	$10
	.byte	$10
	.byte	$10
	.byte	$10
	.byte	$10
	.byte	$10
	.byte	$10
	.byte	$10
	.byte	$10
	.byte	$10
	.byte	$10
	.byte	$10
	.byte	$00
	.byte	$00
	.byte	$00
	.byte	$10
	.byte	$2F
	.byte	$2F
	.byte	$2F
	.byte	$2F
	.byte	$2F
	.byte	$2F
	.byte	$2F
	.byte	$2F
	.byte	$2F
	.byte	$2F
	.byte	$2F
	.byte	$10
	.byte	$18
	.byte	$18
	.byte	$18
	.byte	$10
	.byte	$2F
	.byte	$2F
	.byte	$2F
	.byte	$2F
	.byte	$2F
	.byte	$2F
	.byte	$2F
	.byte	$2F
	.byte	$2F
	.byte	$2F
	.byte	$2F
	.byte	$10
	.byte	$01
	.byte	$05
	.byte	$05
	.byte	$05
	.byte	$01
	.byte	$05
	.byte	$05
	.byte	$05
	.byte	$01
	.byte	$05
	.byte	$05
	.byte	$05
	.byte	$01
	.byte	$05
	.byte	$05
	.byte	$05
_stereomadness__55:
	.byte	$00
	.byte	$00
	.byte	$00
	.byte	$00
	.byte	$00
	.byte	$00
	.byte	$00
	.byte	$00
	.byte	$00
	.byte	$00
	.byte	$00
	.byte	$00
	.byte	$00
	.byte	$00
	.byte	$00
	.byte	$00
	.byte	$00
	.byte	$00
	.byte	$00
	.byte	$00
	.byte	$00
	.byte	$00
	.byte	$00
	.byte	$00
	.byte	$00
	.byte	$00
	.byte	$00
	.byte	$00
	.byte	$00
	.byte	$00
	.byte	$00
	.byte	$00
	.byte	$00
	.byte	$00
	.byte	$00
	.byte	$00
	.byte	$00
	.byte	$00
	.byte	$00
	.byte	$00
	.byte	$00
	.byte	$00
	.byte	$00
	.byte	$00
	.byte	$00
	.byte	$00
	.byte	$00
	.byte	$00
	.byte	$00
	.byte	$00
	.byte	$00
	.byte	$00
	.byte	$00
	.byte	$00
	.byte	$00
	.byte	$00
	.byte	$00
	.byte	$00
	.byte	$00
	.byte	$00
	.byte	$00
	.byte	$00
	.byte	$00
	.byte	$00
	.byte	$00
	.byte	$00
	.byte	$00
	.byte	$00
	.byte	$00
	.byte	$00
	.byte	$00
	.byte	$00
	.byte	$00
	.byte	$00
	.byte	$00
	.byte	$00
	.byte	$00
	.byte	$00
	.byte	$00
	.byte	$00
	.byte	$00
	.byte	$00
	.byte	$00
	.byte	$00
	.byte	$00
	.byte	$00
	.byte	$00
	.byte	$00
	.byte	$00
	.byte	$00
	.byte	$00
	.byte	$00
	.byte	$00
	.byte	$00
	.byte	$00
	.byte	$00
	.byte	$00
	.byte	$00
	.byte	$00
	.byte	$00
	.byte	$00
	.byte	$00
	.byte	$00
	.byte	$00
	.byte	$00
	.byte	$00
	.byte	$00
	.byte	$00
	.byte	$00
	.byte	$00
	.byte	$00
	.byte	$00
	.byte	$00
	.byte	$00
	.byte	$00
	.byte	$00
	.byte	$00
	.byte	$00
	.byte	$00
	.byte	$00
	.byte	$00
	.byte	$00
	.byte	$00
	.byte	$00
	.byte	$00
	.byte	$00
	.byte	$00
	.byte	$00
	.byte	$00
	.byte	$00
	.byte	$00
	.byte	$00
	.byte	$00
	.byte	$00
	.byte	$00
	.byte	$00
	.byte	$00
	.byte	$00
	.byte	$00
	.byte	$00
	.byte	$00
	.byte	$00
	.byte	$00
	.byte	$00
	.byte	$00
	.byte	$00
	.byte	$00
	.byte	$00
	.byte	$00
	.byte	$00
	.byte	$00
	.byte	$00
	.byte	$00
	.byte	$00
	.byte	$00
	.byte	$00
	.byte	$00
	.byte	$00
	.byte	$00
	.byte	$00
	.byte	$00
	.byte	$00
	.byte	$00
	.byte	$00
	.byte	$00
	.byte	$00
	.byte	$00
	.byte	$00
	.byte	$00
	.byte	$00
	.byte	$00
	.byte	$00
	.byte	$00
	.byte	$00
	.byte	$00
	.byte	$00
	.byte	$00
	.byte	$00
	.byte	$00
	.byte	$00
	.byte	$00
	.byte	$00
	.byte	$00
	.byte	$00
	.byte	$00
	.byte	$00
	.byte	$00
	.byte	$00
	.byte	$00
	.byte	$00
	.byte	$00
	.byte	$00
	.byte	$00
	.byte	$00
	.byte	$00
	.byte	$00
	.byte	$00
	.byte	$00
	.byte	$00
	.byte	$00
	.byte	$00
	.byte	$00
	.byte	$00
	.byte	$00
	.byte	$00
	.byte	$00
	.byte	$00
	.byte	$00
	.byte	$00
	.byte	$00
	.byte	$00
	.byte	$00
	.byte	$00
	.byte	$00
	.byte	$00
	.byte	$00
	.byte	$00
	.byte	$00
	.byte	$00
	.byte	$00
	.byte	$00
	.byte	$00
	.byte	$00
	.byte	$00
	.byte	$00
	.byte	$00
	.byte	$00
	.byte	$00
	.byte	$00
	.byte	$00
	.byte	$00
	.byte	$00
	.byte	$00
	.byte	$00
	.byte	$00
	.byte	$00
	.byte	$00
	.byte	$00
	.byte	$00
	.byte	$00
_stereomadness__56:
	.byte	$00
	.byte	$00
	.byte	$00
	.byte	$00
	.byte	$00
	.byte	$00
	.byte	$00
	.byte	$00
	.byte	$00
	.byte	$00
	.byte	$00
	.byte	$00
	.byte	$00
	.byte	$00
	.byte	$00
	.byte	$00
	.byte	$00
	.byte	$00
	.byte	$00
	.byte	$00
	.byte	$00
	.byte	$00
	.byte	$00
	.byte	$00
	.byte	$00
	.byte	$00
	.byte	$00
	.byte	$00
	.byte	$00
	.byte	$00
	.byte	$00
	.byte	$00
	.byte	$00
	.byte	$00
	.byte	$00
	.byte	$00
	.byte	$00
	.byte	$00
	.byte	$00
	.byte	$00
	.byte	$00
	.byte	$00
	.byte	$00
	.byte	$00
	.byte	$00
	.byte	$00
	.byte	$00
	.byte	$00
	.byte	$00
	.byte	$00
	.byte	$00
	.byte	$00
	.byte	$00
	.byte	$00
	.byte	$00
	.byte	$00
	.byte	$00
	.byte	$00
	.byte	$00
	.byte	$00
	.byte	$00
	.byte	$00
	.byte	$00
	.byte	$00
	.byte	$00
	.byte	$00
	.byte	$00
	.byte	$00
	.byte	$00
	.byte	$00
	.byte	$00
	.byte	$00
	.byte	$00
	.byte	$00
	.byte	$00
	.byte	$00
	.byte	$00
	.byte	$00
	.byte	$00
	.byte	$00
	.byte	$00
	.byte	$00
	.byte	$00
	.byte	$00
	.byte	$00
	.byte	$00
	.byte	$00
	.byte	$00
	.byte	$00
	.byte	$00
	.byte	$00
	.byte	$00
	.byte	$00
	.byte	$00
	.byte	$00
	.byte	$00
	.byte	$00
	.byte	$00
	.byte	$00
	.byte	$00
	.byte	$00
	.byte	$00
	.byte	$00
	.byte	$00
	.byte	$00
	.byte	$00
	.byte	$00
	.byte	$00
	.byte	$00
	.byte	$00
	.byte	$00
	.byte	$00
	.byte	$00
	.byte	$00
	.byte	$00
	.byte	$00
	.byte	$00
	.byte	$00
	.byte	$00
	.byte	$00
	.byte	$00
	.byte	$00
	.byte	$00
	.byte	$00
	.byte	$00
	.byte	$00
	.byte	$00
	.byte	$00
	.byte	$00
	.byte	$00
	.byte	$00
	.byte	$00
	.byte	$00
	.byte	$00
	.byte	$00
	.byte	$00
	.byte	$00
	.byte	$00
	.byte	$00
	.byte	$00
	.byte	$00
	.byte	$00
	.byte	$00
	.byte	$00
	.byte	$00
	.byte	$00
	.byte	$00
	.byte	$00
	.byte	$00
	.byte	$00
	.byte	$00
	.byte	$00
	.byte	$00
	.byte	$00
	.byte	$00
	.byte	$00
	.byte	$00
	.byte	$00
	.byte	$00
	.byte	$00
	.byte	$00
	.byte	$00
	.byte	$00
	.byte	$00
	.byte	$00
	.byte	$00
	.byte	$00
	.byte	$00
	.byte	$00
	.byte	$00
	.byte	$00
	.byte	$00
	.byte	$00
	.byte	$00
	.byte	$00
	.byte	$00
	.byte	$00
	.byte	$00
	.byte	$00
	.byte	$00
	.byte	$00
	.byte	$00
	.byte	$00
	.byte	$00
	.byte	$00
	.byte	$00
	.byte	$00
	.byte	$00
	.byte	$00
	.byte	$00
	.byte	$00
	.byte	$00
	.byte	$00
	.byte	$00
	.byte	$00
	.byte	$00
	.byte	$00
	.byte	$00
	.byte	$00
	.byte	$00
	.byte	$00
	.byte	$00
	.byte	$00
	.byte	$00
	.byte	$00
	.byte	$00
	.byte	$00
	.byte	$00
	.byte	$00
	.byte	$00
	.byte	$00
	.byte	$00
	.byte	$00
	.byte	$00
	.byte	$00
	.byte	$00
	.byte	$00
	.byte	$00
	.byte	$00
	.byte	$00
	.byte	$00
	.byte	$00
	.byte	$00
	.byte	$00
	.byte	$00
	.byte	$00
	.byte	$00
	.byte	$00
	.byte	$00
	.byte	$00
	.byte	$00
	.byte	$00
	.byte	$00
	.byte	$00
	.byte	$00
	.byte	$00
	.byte	$00
	.byte	$00
	.byte	$00
	.byte	$00
_stereomadness__57:
	.byte	$00
	.byte	$00
	.byte	$00
	.byte	$00
	.byte	$00
	.byte	$00
	.byte	$00
	.byte	$00
	.byte	$00
	.byte	$00
	.byte	$00
	.byte	$00
	.byte	$00
	.byte	$00
	.byte	$00
	.byte	$00
	.byte	$00
	.byte	$00
	.byte	$00
	.byte	$00
	.byte	$00
	.byte	$00
	.byte	$00
	.byte	$00
	.byte	$00
	.byte	$00
	.byte	$00
	.byte	$00
	.byte	$00
	.byte	$00
	.byte	$00
	.byte	$00
	.byte	$00
	.byte	$00
	.byte	$00
	.byte	$00
	.byte	$00
	.byte	$00
	.byte	$00
	.byte	$00
	.byte	$00
	.byte	$00
	.byte	$00
	.byte	$00
	.byte	$00
	.byte	$00
	.byte	$00
	.byte	$00
	.byte	$00
	.byte	$00
	.byte	$00
	.byte	$00
	.byte	$00
	.byte	$00
	.byte	$00
	.byte	$00
	.byte	$00
	.byte	$00
	.byte	$00
	.byte	$00
	.byte	$00
	.byte	$00
	.byte	$00
	.byte	$00
	.byte	$00
	.byte	$00
	.byte	$00
	.byte	$00
	.byte	$00
	.byte	$00
	.byte	$00
	.byte	$00
	.byte	$00
	.byte	$00
	.byte	$00
	.byte	$00
	.byte	$00
	.byte	$00
	.byte	$00
	.byte	$00
	.byte	$00
	.byte	$00
	.byte	$00
	.byte	$00
	.byte	$00
	.byte	$00
	.byte	$00
	.byte	$00
	.byte	$00
	.byte	$00
	.byte	$00
	.byte	$00
	.byte	$00
	.byte	$00
	.byte	$00
	.byte	$00
	.byte	$00
	.byte	$00
	.byte	$00
	.byte	$00
	.byte	$00
	.byte	$00
	.byte	$00
	.byte	$00
	.byte	$00
	.byte	$00
	.byte	$00
	.byte	$00
	.byte	$00
	.byte	$00
	.byte	$00
	.byte	$00
	.byte	$00
	.byte	$00
	.byte	$00
	.byte	$00
	.byte	$00
	.byte	$00
	.byte	$00
	.byte	$00
	.byte	$00
	.byte	$00
	.byte	$00
	.byte	$00
	.byte	$00
	.byte	$00
	.byte	$00
	.byte	$00
	.byte	$00
	.byte	$00
	.byte	$00
	.byte	$00
	.byte	$00
	.byte	$00
	.byte	$00
	.byte	$00
	.byte	$00
	.byte	$00
	.byte	$00
	.byte	$00
	.byte	$00
	.byte	$00
	.byte	$00
	.byte	$00
	.byte	$00
	.byte	$00
	.byte	$00
	.byte	$00
	.byte	$00
	.byte	$00
	.byte	$00
	.byte	$00
	.byte	$00
	.byte	$00
	.byte	$00
	.byte	$00
	.byte	$00
	.byte	$00
	.byte	$00
	.byte	$00
	.byte	$00
	.byte	$00
	.byte	$00
	.byte	$00
	.byte	$00
	.byte	$00
	.byte	$00
	.byte	$00
	.byte	$00
	.byte	$00
	.byte	$00
	.byte	$00
	.byte	$00
	.byte	$00
	.byte	$00
	.byte	$00
	.byte	$00
	.byte	$00
	.byte	$00
	.byte	$00
	.byte	$00
	.byte	$00
	.byte	$00
	.byte	$00
	.byte	$00
	.byte	$00
	.byte	$00
	.byte	$00
	.byte	$00
	.byte	$00
	.byte	$00
	.byte	$00
	.byte	$00
	.byte	$00
	.byte	$00
	.byte	$00
	.byte	$00
	.byte	$00
	.byte	$00
	.byte	$00
	.byte	$00
	.byte	$00
	.byte	$00
	.byte	$00
	.byte	$00
	.byte	$00
	.byte	$00
	.byte	$00
	.byte	$00
	.byte	$00
	.byte	$00
	.byte	$00
	.byte	$00
	.byte	$00
	.byte	$00
	.byte	$00
	.byte	$00
	.byte	$00
	.byte	$00
	.byte	$00
	.byte	$00
	.byte	$00
	.byte	$00
	.byte	$00
	.byte	$00
	.byte	$00
	.byte	$00
	.byte	$00
	.byte	$00
	.byte	$00
	.byte	$00
	.byte	$00
	.byte	$00
	.byte	$00
	.byte	$00
	.byte	$00
	.byte	$00
	.byte	$00
	.byte	$00
	.byte	$00
_stereomadness__list:
	.addr	_stereomadness__0
	.addr	_stereomadness__1
	.addr	_stereomadness__2
	.addr	_stereomadness__3
	.addr	_stereomadness__4
	.addr	_stereomadness__5
	.addr	_stereomadness__6
	.addr	_stereomadness__7
	.addr	_stereomadness__8
	.addr	_stereomadness__9
	.addr	_stereomadness__10
	.addr	_stereomadness__11
	.addr	_stereomadness__12
	.addr	_stereomadness__13
	.addr	_stereomadness__14
	.addr	_stereomadness__15
	.addr	_stereomadness__16
	.addr	_stereomadness__17
	.addr	_stereomadness__18
	.addr	_stereomadness__19
	.addr	_stereomadness__20
	.addr	_stereomadness__21
	.addr	_stereomadness__22
	.addr	_stereomadness__23
	.addr	_stereomadness__24
	.addr	_stereomadness__25
	.addr	_stereomadness__26
	.addr	_stereomadness__27
	.addr	_stereomadness__28
	.addr	_stereomadness__29
	.addr	_stereomadness__30
	.addr	_stereomadness__31
	.addr	_stereomadness__32
	.addr	_stereomadness__33
	.addr	_stereomadness__34
	.addr	_stereomadness__35
	.addr	_stereomadness__36
	.addr	_stereomadness__37
	.addr	_stereomadness__38
	.addr	_stereomadness__39
	.addr	_stereomadness__40
	.addr	_stereomadness__41
	.addr	_stereomadness__42
	.addr	_stereomadness__43
	.addr	_stereomadness__44
	.addr	_stereomadness__45
	.addr	_stereomadness__46
	.addr	_stereomadness__47
	.addr	_stereomadness__48
	.addr	_stereomadness__49
	.addr	_stereomadness__50
	.addr	_stereomadness__51
	.addr	_stereomadness__52
	.addr	_stereomadness__53
	.addr	_stereomadness__54
	.addr	_stereomadness__55
	.addr	_stereomadness__56
_Rooms:
	.addr	_stereomadness__0
	.addr	_stereomadness__1
	.addr	_stereomadness__2
	.addr	_stereomadness__3
	.addr	_stereomadness__4
	.addr	_stereomadness__5
	.addr	_stereomadness__6
	.addr	_stereomadness__7
	.addr	_stereomadness__8
	.addr	_stereomadness__9
	.addr	_stereomadness__10
	.addr	_stereomadness__11
	.addr	_stereomadness__12
	.addr	_stereomadness__13
	.addr	_stereomadness__14
	.addr	_stereomadness__15
	.addr	_stereomadness__16
	.addr	_stereomadness__17
	.addr	_stereomadness__18
	.addr	_stereomadness__19
	.addr	_stereomadness__20
	.addr	_stereomadness__21
	.addr	_stereomadness__22
	.addr	_stereomadness__23
	.addr	_stereomadness__24
	.addr	_stereomadness__25
	.addr	_stereomadness__26
	.addr	_stereomadness__27
	.addr	_stereomadness__28
	.addr	_stereomadness__29
	.addr	_stereomadness__30
	.addr	_stereomadness__31
	.addr	_stereomadness__32
	.addr	_stereomadness__33
	.addr	_stereomadness__34
	.addr	_stereomadness__35
	.addr	_stereomadness__36
	.addr	_stereomadness__37
	.addr	_stereomadness__38
	.addr	_stereomadness__39
	.addr	_stereomadness__40
	.addr	_stereomadness__41
	.addr	_stereomadness__42
	.addr	_stereomadness__43
	.addr	_stereomadness__44
	.addr	_stereomadness__45
	.addr	_stereomadness__46
	.addr	_stereomadness__47
	.addr	_stereomadness__48
	.addr	_stereomadness__49
	.addr	_stereomadness__50
	.addr	_stereomadness__51
	.addr	_stereomadness__52
	.addr	_stereomadness__53
	.addr	_stereomadness__54
	.addr	_stereomadness__55
	.addr	_stereomadness__56
_obj_stereomadness:
	.byte	$00
	.byte	$00
	.byte	$00
	.byte	$27
	.byte	$10
	.byte	$00
	.byte	$00
	.byte	$67
	.byte	$00
	.byte	$07
	.byte	$D0
	.byte	$29
	.byte	$10
	.byte	$07
	.byte	$D0
	.byte	$69
	.byte	$00
	.byte	$0F
	.byte	$30
	.byte	$19
	.byte	$10
	.byte	$0F
	.byte	$30
	.byte	$59
	.byte	$00
	.byte	$0F
	.byte	$40
	.byte	$1F
	.byte	$10
	.byte	$0F
	.byte	$40
	.byte	$5F
	.byte	$70
	.byte	$10
	.byte	$A0
	.byte	$01
	.byte	$00
	.byte	$10
	.byte	$B0
	.byte	$1A
	.byte	$10
	.byte	$10
	.byte	$B0
	.byte	$5A
	.byte	$00
	.byte	$10
	.byte	$C0
	.byte	$2A
	.byte	$10
	.byte	$10
	.byte	$C0
	.byte	$6A
	.byte	$80
	.byte	$1A
	.byte	$20
	.byte	$00
	.byte	$00
	.byte	$1A
	.byte	$30
	.byte	$29
	.byte	$10
	.byte	$1A
	.byte	$30
	.byte	$69
	.byte	$00
	.byte	$20
	.byte	$00
	.byte	$20
	.byte	$10
	.byte	$20
	.byte	$00
	.byte	$60
	.byte	$00
	.byte	$2F
	.byte	$D0
	.byte	$29
	.byte	$10
	.byte	$2F
	.byte	$D0
	.byte	$69
	.byte	$FF
_obj_list:
	.addr	_obj_stereomadness

.segment	"BSS"

.segment	"ZEROPAGE"
_cube_rotate:
	.res	2,$00
_pad1:
	.res	1,$00
_pad1_new:
	.res	1,$00
_collision:
	.res	1,$00
_collision_L:
	.res	1,$00
_collision_R:
	.res	1,$00
_collision_U:
	.res	1,$00
_collision_D:
	.res	1,$00
_coordinates:
	.res	1,$00
_temp1:
	.res	1,$00
_temp2:
	.res	1,$00
_temp3:
	.res	1,$00
_temp4:
	.res	1,$00
_temp5:
	.res	2,$00
_temp6:
	.res	2,$00
_gravity:
	.res	1,$00
_eject_L:
	.res	1,$00
_eject_R:
	.res	1,$00
_eject_D:
	.res	1,$00
_eject_U:
	.res	1,$00
_direction:
	.res	1,$00
_address:
	.res	2,$00
_x:
	.res	2,$00
_y:
	.res	1,$00
_nt:
	.res	1,$00
_index:
	.res	2,$00
_index2:
	.res	2,$00
_room:
	.res	1,$00
_map:
	.res	1,$00
_scroll_x:
	.res	2,$00
_scroll_y:
	.res	2,$00
_scroll_count:
	.res	1,$00
_pseudo_scroll_x:
	.res	2,$00
_L_R_switch:
	.res	1,$00
_old_x:
	.res	2,$00
_temp_x:
	.res	1,$00
_temp_y:
	.res	1,$00
_map_loaded:
	.res	1,$00
_temp_room:
	.res	1,$00
.segment	"BSS"
_song:
	.res	1,$00
_cube_data:
	.res	1,$00
_gamemode:
	.res	1,$00
_level:
	.res	1,$00
_pointer:
	.res	2,$00
_c_map:
	.res	240,$00
_c_map2:
	.res	240,$00
_Generic:
	.res	4,$00
_Generic2:
	.res	4,$00
_obj_x:
	.res	32,$00
_obj_y:
	.res	32,$00
_obj_active:
	.res	32,$00
_obj_room:
	.res	32,$00
_obj_actual_x:
	.res	32,$00
_obj_type:
	.res	32,$00

; ---------------------------------------------------------------
; void __near__ load_room (void)
; ---------------------------------------------------------------

.segment	"CODE"

.proc	_load_room: near

.segment	"CODE"

;
; set_data_pointer(Rooms[0]);
;
	lda     _Rooms
	ldx     _Rooms+1
	jsr     _set_data_pointer
;
; set_mt_pointer(metatiles1);
;
	lda     #<(_metatiles1)
	ldx     #>(_metatiles1)
	jsr     _set_mt_pointer
;
; for(y=0; ;y+=0x20){
;
	lda     #$00
L000F:	sta     _y
;
; for(x=0; ;x+=0x20){
;
	lda     #$00
	sta     _x
	sta     _x+1
;
; address = get_ppu_addr(0, x, y);
;
L0009:	jsr     decsp2
	lda     #$00
	ldy     #$01
	sta     (sp),y
	lda     _x
	dey
	sta     (sp),y
	lda     _y
	jsr     _get_ppu_addr
	sta     _address
	stx     _address+1
;
; index = (y & 0xf0) + (x >> 4);
;
	lda     _y
	and     #$F0
	sta     ptr1
	lda     _x
	ldx     _x+1
	jsr     shrax4
	clc
	adc     ptr1
	bcc     L000E
	inx
L000E:	sta     _index
	stx     _index+1
;
; buffer_4_mt(address, index); // ppu_address, index to the data
;
	lda     _address
	ldx     _address+1
	jsr     pushax
	lda     _index
	jsr     _buffer_4_mt
;
; flush_vram_update2();
;
	jsr     _flush_vram_update2
;
; if (x == 0xe0) break;
;
	lda     _x+1
	bne     L0010
	lda     _x
	cmp     #$E0
	beq     L0007
;
; for(x=0; ;x+=0x20){
;
L0010:	lda     #$20
	clc
	adc     _x
	sta     _x
	bcc     L0009
	inc     _x+1
	jmp     L0009
;
; if (y == 0xe0) break;
;
L0007:	lda     _y
	cmp     #$E0
	beq     L0003
;
; for(y=0; ;y+=0x20){
;
	lda     #$20
	clc
	adc     _y
	jmp     L000F
;
; memcpy (c_map, Rooms[0], 240);
;
L0003:	lda     #<(_c_map)
	ldx     #>(_c_map)
	jsr     pushax
	lda     _Rooms
	ldx     _Rooms+1
	jsr     pushax
	ldx     #$00
	lda     #$F0
	jsr     _memcpy
;
; sprite_obj_init();
;
	jmp     _sprite_obj_init

.endproc

; ---------------------------------------------------------------
; void __near__ draw_sprites (void)
; ---------------------------------------------------------------

.segment	"CODE"

.proc	_draw_sprites: near

.segment	"CODE"

;
; oam_clear();
;
	jsr     _oam_clear
;
; for(index = 0; index < MAX_OBJ; ++index){
;
	lda     #$00
	sta     _index
	sta     _index+1
L0002:	lda     _index+1
	cmp     #$00
	bne     L0006
	lda     _index
	cmp     #$20
L0006:	jcs     L0003
;
; index2 = obj_type[index];
;
	lda     _index
	sta     ptr1
	lda     _index+1
	clc
	adc     #>(_obj_type)
	sta     ptr1+1
	ldy     #<(_obj_type)
	ldx     #$00
	lda     (ptr1),y
	sta     _index2
	stx     _index2+1
;
; if(index2 & 0x30) continue;
;
	and     #$30
	bne     L0004
;
; temp_y = obj_y[index];
;
	lda     _index
	sta     ptr1
	lda     _index+1
	clc
	adc     #>(_obj_y)
	sta     ptr1+1
	ldy     #<(_obj_y)
	lda     (ptr1),y
	sta     _temp_y
;
; if(temp_y == TURN_OFF) continue;
;
	cmp     #$FF
	beq     L0004
;
; if(!obj_active[index]) continue;
;
	lda     _index
	sta     ptr1
	lda     _index+1
	clc
	adc     #>(_obj_active)
	sta     ptr1+1
	ldy     #<(_obj_active)
	lda     (ptr1),y
	beq     L0004
;
; temp_x = obj_x[index];
;
	lda     _index
	sta     ptr1
	lda     _index+1
	clc
	adc     #>(_obj_x)
	sta     ptr1+1
	ldy     #<(_obj_x)
	lda     (ptr1),y
	sta     _temp_x
;
; if(temp_x > 0xf0) continue;
;
	cmp     #$F1
	bcs     L0004
;
; if(temp_y < 0xf0) {
;
	lda     _temp_y
	cmp     #$F0
	bcs     L0004
;
; oam_meta_spr(temp_x, temp_y, Portals[index2]);
;
	jsr     decsp2
	lda     _temp_x
	ldy     #$01
	sta     (sp),y
	lda     _temp_y
	dey
	sta     (sp),y
	lda     _index2
	ldx     _index2+1
	stx     tmp1
	asl     a
	rol     tmp1
	clc
	adc     #<(_Portals)
	sta     ptr1
	lda     tmp1
	adc     #>(_Portals)
	sta     ptr1+1
	iny
	lda     (ptr1),y
	tax
	dey
	lda     (ptr1),y
	jsr     _oam_meta_spr
;
; for(index = 0; index < MAX_OBJ; ++index){
;
L0004:	inc     _index
	jne     L0002
	inc     _index+1
	jmp     L0002
;
; temp_x = high_byte(Cube.x);
;
L0003:	lda     _Cube+1
	sta     _temp_x
;
; if(temp_x > 0xfc) temp_x = 1;
;
	cmp     #$FD
	bcc     L001E
	lda     #$01
	sta     _temp_x
;
; if(temp_x == 0) temp_x = 1;
;
L001E:	lda     _temp_x
	bne     L001F
	lda     #$01
	sta     _temp_x
;
; if (gamemode & 0x01) {
;
L001F:	lda     _gamemode
	and     #$01
	jeq     L0020
;
; oam_meta_spr(temp_x, high_byte(Cube.y)-1, CUBE[high_byte(cube_rotate)]);
;
	jsr     decsp2
	lda     _temp_x
	ldy     #$01
	sta     (sp),y
	lda     _Cube+3
	sec
	sbc     #$01
	dey
	sta     (sp),y
	ldx     #$00
	lda     _cube_rotate+1
	asl     a
	bcc     L001C
	inx
	clc
L001C:	adc     #<(_CUBE)
	sta     ptr1
	txa
	adc     #>(_CUBE)
	sta     ptr1+1
	iny
	lda     (ptr1),y
	tax
	dey
	lda     (ptr1),y
	jsr     _oam_meta_spr
;
; if (gravity) cube_rotate -= CUBE_GRAVITY;
;
	lda     _gravity
	beq     L0011
	lda     _cube_rotate
	sec
	sbc     #$6C
	sta     _cube_rotate
	bcs     L0014
	dec     _cube_rotate+1
;
; else cube_rotate += CUBE_GRAVITY;
;
	jmp     L0014
L0011:	lda     #$6C
	clc
	adc     _cube_rotate
	sta     _cube_rotate
	bcc     L0014
	inc     _cube_rotate+1
;
; if (cube_rotate > 0x05FF) cube_rotate -= 0x0600;
;
L0014:	lda     _cube_rotate
	cmp     #$00
	lda     _cube_rotate+1
	sbc     #$06
	bvs     L0016
	eor     #$80
L0016:	bpl     L0015
	lda     _cube_rotate
	sec
	sta     _cube_rotate
	lda     _cube_rotate+1
	sbc     #$06
	sta     _cube_rotate+1
;
; if (cube_rotate < 0x0000) cube_rotate += 0x0600;
;
L0015:	ldx     _cube_rotate+1
	cpx     #$80
	bcc     L0020
	clc
	lda     _cube_rotate
	sta     _cube_rotate
	lda     #$06
	adc     _cube_rotate+1
	sta     _cube_rotate+1
;
; if (gamemode & 0x02){
;
L0020:	lda     _gamemode
	and     #$02
	beq     L0018
;
; oam_meta_spr(temp_x, high_byte(Cube.y)-1, SHIP[high_byte(cube_rotate)]);
;
	jsr     decsp2
	lda     _temp_x
	ldy     #$01
	sta     (sp),y
	lda     _Cube+3
	sec
	sbc     #$01
	dey
	sta     (sp),y
	ldx     #$00
	lda     _cube_rotate+1
	asl     a
	bcc     L001D
	inx
	clc
L001D:	adc     #<(_SHIP)
	sta     ptr1
	txa
	adc     #>(_SHIP)
	sta     ptr1+1
	iny
	lda     (ptr1),y
	tax
	dey
	lda     (ptr1),y
	jsr     _oam_meta_spr
;
; cube_rotate = 0x047F - Cube.vel_y;
;
	lda     #$7F
	sec
	sbc     _Cube+6
	sta     _cube_rotate
	lda     #$04
	sbc     _Cube+6+1
	sta     _cube_rotate+1
;
; }
;
L0018:	rts

.endproc

; ---------------------------------------------------------------
; void __near__ cube_movement (void)
; ---------------------------------------------------------------

.segment	"CODE"

.proc	_cube_movement: near

.segment	"CODE"

;
; old_x = Cube.x;
;
	lda     _Cube+1
	sta     _old_x+1
	lda     _Cube
	sta     _old_x
;
; Cube.vel_x = CUBE_SPEED;
;
	ldx     #$02
	lda     #$C4
	sta     _Cube+4
	stx     _Cube+4+1
;
; Cube.x += Cube.vel_x;
;
	clc
	adc     _Cube
	sta     _Cube
	txa
	adc     _Cube+1
	sta     _Cube+1
;
; if(Cube.x > 0xf000) { // too far, don't wrap around
;
	lda     _Cube
	cmp     #$01
	lda     _Cube+1
	sbc     #$F0
	bcc     L0033
;
; if(old_x >= 0xf000){
;
	lda     _old_x
	cmp     #$00
	lda     _old_x+1
	sbc     #$F0
	lda     #$00
	tax
	bcc     L0032
;
; Cube.x = 0xf000; // max right
;
	ldx     #$F0
;
; Cube.x = 0x0000; // max left
;
L0032:	sta     _Cube
	stx     _Cube+1
;
; Cube.vel_x = 0;
;
	sta     _Cube+4
	sta     _Cube+4+1
;
; Generic.x = high_byte(Cube.x); // this is much faster than passing a pointer to Cube
;
L0033:	lda     _Cube+1
	sta     _Generic
;
; Generic.y = high_byte(Cube.y);
;
	lda     _Cube+3
	sta     _Generic+1
;
; Generic.width = CUBE_WIDTH;
;
	lda     #$0F
	sta     _Generic+2
;
; Generic.height = CUBE_HEIGHT;
;
	sta     _Generic+3
;
; if(Cube.vel_x < 0){
;
	ldx     _Cube+4+1
	cpx     #$80
	bcc     L0005
;
; if(bg_coll_L() ){ // check collision left
;
	jsr     _bg_coll_L
	tax
	beq     L0034
;
; high_byte(Cube.x) = high_byte(Cube.x) - eject_L;
;
	lda     _Cube+1
	sec
	sbc     _eject_L
	sta     _Cube+1
;
; Cube.vel_x = 0;
;
	lda     #$00
	sta     _Cube+4
	sta     _Cube+4+1
;
; if(Cube.x > 0xf000) {
;
	lda     _Cube
	cmp     #$01
	lda     _Cube+1
	sbc     #$F0
	bcc     L0034
;
; Cube.x = 0xf000;
;
	ldx     #$F0
;
; else if(Cube.vel_x > 0){
;
	jmp     L003D
L0005:	lda     _Cube+4
	cmp     #$01
	lda     _Cube+4+1
	sbc     #$00
	bvs     L000A
	eor     #$80
L000A:	bpl     L0034
;
; if(bg_coll_R() ){ // check collision right
;
	jsr     _bg_coll_R
	tax
	beq     L0034
;
; high_byte(Cube.x) = high_byte(Cube.x) - eject_R;
;
	lda     _Cube+1
	sec
	sbc     _eject_R
	sta     _Cube+1
;
; Cube.vel_x = 0;
;
	lda     #$00
	sta     _Cube+4
	sta     _Cube+4+1
;
; if(Cube.x > 0xf000) {
;
	lda     _Cube
	cmp     #$01
	lda     _Cube+1
	sbc     #$F0
	bcc     L0034
;
; Cube.x = 0x0000;
;
	ldx     #$00
L003D:	lda     #$00
	sta     _Cube
	stx     _Cube+1
;
; if(gravity < 1){
;
L0034:	lda     _gravity
	bne     L000D
;
; if(Cube.vel_y > CUBE_MAX_FALLSPEED){
;
	lda     _Cube+6
	cmp     #$01
	lda     _Cube+6+1
	sbc     #$06
	bvs     L000F
	eor     #$80
L000F:	bpl     L000E
;
; Cube.vel_y = CUBE_MAX_FALLSPEED;
;
	ldx     #$06
	lda     #$00
	sta     _Cube+6
	stx     _Cube+6+1
;
; } else Cube.vel_y += CUBE_GRAVITY;
;
	jmp     L0012
L000E:	lda     #$6C
	clc
	adc     _Cube+6
	sta     _Cube+6
	bcc     L0012
	inc     _Cube+6+1
;
; else{
;
	jmp     L0012
;
; Cube.vel_y -= CUBE_GRAVITY;
;
L000D:	lda     _Cube+6
	sec
	sbc     #$6C
	sta     _Cube+6
	bcs     L0012
	dec     _Cube+6+1
;
; Cube.y += Cube.vel_y;
;
L0012:	lda     _Cube+6
	clc
	adc     _Cube+2
	sta     _Cube+2
	lda     _Cube+6+1
	adc     _Cube+2+1
	sta     _Cube+2+1
;
; Generic.x = high_byte(Cube.x);
;
	lda     _Cube+1
	sta     _Generic
;
; Generic.y = high_byte(Cube.y);
;
	lda     _Cube+3
	sta     _Generic+1
;
; if(Cube.vel_y > 0){
;
	lda     _Cube+6
	cmp     #$01
	lda     _Cube+6+1
	sbc     #$00
	bvs     L0015
	eor     #$80
L0015:	bpl     L0014
;
; if(bg_coll_D()){ // check collision below
;
	jsr     _bg_coll_D
	tax
	beq     L0035
;
; high_byte(Cube.y) = high_byte(Cube.y) - eject_D;
;
	lda     _Cube+3
	sec
	sbc     _eject_D
;
; else if(Cube.vel_y < 0){
;
	jmp     L003F
L0014:	ldx     _Cube+6+1
	cpx     #$80
	bcc     L0035
;
; if(bg_coll_U() ){ // check collision above
;
	jsr     _bg_coll_U
	tax
	beq     L0035
;
; high_byte(Cube.y) = high_byte(Cube.y) - eject_U;
;
	lda     _Cube+3
	sec
	sbc     _eject_U
L003F:	sta     _Cube+3
;
; Cube.vel_y = 0;
;
	lda     #$00
	sta     _Cube+6
	sta     _Cube+6+1
;
; Generic.y = high_byte(Cube.y); // the rest should be the same
;
L0035:	lda     _Cube+3
	sta     _Generic+1
;
; if (gravity == 0x00){
;
	lda     _gravity
	bne     L001A
;
; if(bg_coll_D2()) {
;
	jsr     _bg_coll_D2
	tax
	beq     L0036
;
; if(pad1 & PAD_A) {
;
	lda     _pad1
	and     #$80
	beq     L0036
;
; Cube.vel_y = JUMP_VEL; // JUMP
;
	ldx     #$FA
	lda     #$50
;
; } else {
;
	jmp     L003C
;
; if(bg_coll_U2()) {
;
L001A:	jsr     _bg_coll_U2
	tax
	beq     L0036
;
; if(pad1 & PAD_A) {
;
	lda     _pad1
	and     #$80
	beq     L0036
;
; Cube.vel_y = -JUMP_VEL; // JUMP
;
	ldx     #$05
	lda     #$B0
L003C:	sta     _Cube+6
	stx     _Cube+6+1
;
; if(pad1_new & PAD_B) {
;
L0036:	lda     _pad1_new
	and     #$40
	beq     L0023
;
; if(gravity == 1) {
;
	lda     _gravity
	cmp     #$01
	bne     L0037
;
; gravity = 0;
;
	lda     #$00
;
; else if(gravity == 0) {
;
	jmp     L002F
L0037:	lda     _gravity
	bne     L0023
;
; gravity = 1;
;
	lda     #$01
L002F:	sta     _gravity
;
; if((scroll_x & 0xff) < 4){
;
L0023:	lda     _scroll_x
	cmp     #$04
	bcs     L0038
;
; if(!map_loaded){
;
	lda     _map_loaded
	bne     L0027
;
; new_cmap();
;
	jsr     _new_cmap
;
; map_loaded = 1; // only do once
;
	lda     #$01
;
; else{
;
	jmp     L0030
;
; map_loaded = 0;
;
L0038:	lda     #$00
L0030:	sta     _map_loaded
;
; temp5 = Cube.x;
;
L0027:	lda     _Cube+1
	sta     _temp5+1
	lda     _Cube
	sta     _temp5
;
; if (Cube.x > MAX_RIGHT){
;
	lda     _Cube
	cmp     #$01
	lda     _Cube+1
	sbc     #$60
	bcc     L0028
;
; temp1 = (Cube.x - MAX_RIGHT) >> 8;
;
	lda     _Cube+1
	sec
	sbc     #$60
	sta     _temp1
;
; if (temp1 > 3) temp1 = 3; // max scroll change
;
	cmp     #$04
	bcc     L0039
	lda     #$03
	sta     _temp1
;
; scroll_x += temp1;
;
L0039:	lda     _temp1
	clc
	adc     _scroll_x
	sta     _scroll_x
	lda     #$00
	adc     _scroll_x+1
	sta     _scroll_x+1
;
; high_byte(Cube.x) = high_byte(Cube.x) - temp1;
;
	lda     _Cube+1
	sec
	sbc     _temp1
	sta     _Cube+1
;
; if(scroll_x >= MAX_SCROLL) {
;
L0028:	lda     _scroll_x
	cmp     #$FF
	lda     _scroll_x+1
	sbc     #$3E
	bcc     L002A
;
; scroll_x = MAX_SCROLL; // stop scrolling right, end of level
;
	ldx     #$3E
	lda     #$FF
	sta     _scroll_x
	stx     _scroll_x+1
;
; reset_level();
;
	jsr     _reset_level
;
; orbjump();
;
L002A:	jsr     _orbjump
;
; padjump();
;
	jmp     _padjump

.endproc

; ---------------------------------------------------------------
; void __near__ draw_screen_R (void)
; ---------------------------------------------------------------

.segment	"CODE"

.proc	_draw_screen_R: near

.segment	"CODE"

;
; pseudo_scroll_x = scroll_x + 0xF8;
;
	lda     _scroll_x
	ldx     _scroll_x+1
	clc
	adc     #$F8
	bcc     L0002
	inx
L0002:	sta     _pseudo_scroll_x
	stx     _pseudo_scroll_x+1
;
; temp1 = pseudo_scroll_x >> 8;
;
	lda     _pseudo_scroll_x+1
	sta     _temp1
;
; set_data_pointer(Rooms[temp1]);
;
	ldx     #$00
	lda     _temp1
	asl     a
	bcc     L0012
	inx
	clc
L0012:	adc     #<(_Rooms)
	sta     ptr1
	txa
	adc     #>(_Rooms)
	sta     ptr1+1
	ldy     #$01
	lda     (ptr1),y
	tax
	dey
	lda     (ptr1),y
	jsr     _set_data_pointer
;
; nt = temp1 & 1;
;
	lda     _temp1
	and     #$01
	sta     _nt
;
; x = pseudo_scroll_x & 0xff;
;
	lda     #$00
	sta     _x+1
	lda     _pseudo_scroll_x
	sta     _x
;
; switch(scroll_count){
;
	lda     _scroll_count
;
; }
;
	beq     L0005
	cmp     #$01
	beq     L0007
	cmp     #$02
	jeq     L000A
	cmp     #$03
	jeq     L000D
	jmp     L0013
;
; address = get_ppu_addr(nt, x, 0);
;
L0005:	jsr     decsp2
	lda     _nt
	ldy     #$01
	sta     (sp),y
	lda     _x
	dey
	sta     (sp),y
	tya
	jsr     _get_ppu_addr
	sta     _address
	stx     _address+1
;
; index = 0 + (x >> 4);
;
	lda     _x
	ldx     _x+1
	jsr     shrax4
	sta     _index
	stx     _index+1
;
; buffer_4_mt(address, index); // ppu_address, index to the data
;
	lda     _address
	ldx     _address+1
	jsr     pushax
	lda     _index
	jsr     _buffer_4_mt
;
; address = get_ppu_addr(nt, x, 0x20);
;
	jsr     decsp2
	lda     _nt
	ldy     #$01
	sta     (sp),y
	lda     _x
	dey
	sta     (sp),y
	lda     #$20
	jsr     _get_ppu_addr
	sta     _address
	stx     _address+1
;
; index = 0x20 + (x >> 4);
;
	lda     _x
	ldx     _x+1
	jsr     shrax4
	clc
	adc     #$20
;
; break;
;
	jmp     L001A
;
; address = get_ppu_addr(nt, x, 0x40);
;
L0007:	jsr     decsp2
	lda     _nt
	ldy     #$01
	sta     (sp),y
	lda     _x
	dey
	sta     (sp),y
	lda     #$40
	jsr     _get_ppu_addr
	sta     _address
	stx     _address+1
;
; index = 0x40 + (x >> 4);
;
	lda     _x
	ldx     _x+1
	jsr     shrax4
	clc
	adc     #$40
	bcc     L0008
	inx
L0008:	sta     _index
	stx     _index+1
;
; buffer_4_mt(address, index); // ppu_address, index to the data
;
	lda     _address
	ldx     _address+1
	jsr     pushax
	lda     _index
	jsr     _buffer_4_mt
;
; address = get_ppu_addr(nt, x, 0x60);
;
	jsr     decsp2
	lda     _nt
	ldy     #$01
	sta     (sp),y
	lda     _x
	dey
	sta     (sp),y
	lda     #$60
	jsr     _get_ppu_addr
	sta     _address
	stx     _address+1
;
; index = 0x60 + (x >> 4);
;
	lda     _x
	ldx     _x+1
	jsr     shrax4
	clc
	adc     #$60
;
; break;
;
	jmp     L001A
;
; address = get_ppu_addr(nt, x, 0x80);
;
L000A:	jsr     decsp2
	lda     _nt
	ldy     #$01
	sta     (sp),y
	lda     _x
	dey
	sta     (sp),y
	lda     #$80
	jsr     _get_ppu_addr
	sta     _address
	stx     _address+1
;
; index = 0x80 + (x >> 4);
;
	lda     _x
	ldx     _x+1
	jsr     shrax4
	clc
	adc     #$80
	bcc     L000B
	inx
L000B:	sta     _index
	stx     _index+1
;
; buffer_4_mt(address, index); // ppu_address, index to the data
;
	lda     _address
	ldx     _address+1
	jsr     pushax
	lda     _index
	jsr     _buffer_4_mt
;
; address = get_ppu_addr(nt, x, 0xa0);
;
	jsr     decsp2
	lda     _nt
	ldy     #$01
	sta     (sp),y
	lda     _x
	dey
	sta     (sp),y
	lda     #$A0
	jsr     _get_ppu_addr
	sta     _address
	stx     _address+1
;
; index = 0xa0 + (x >> 4);
;
	lda     _x
	ldx     _x+1
	jsr     shrax4
	clc
	adc     #$A0
;
; break;
;
	jmp     L001A
;
; address = get_ppu_addr(nt, x, 0xc0);
;
L000D:	jsr     decsp2
	lda     _nt
	ldy     #$01
	sta     (sp),y
	lda     _x
	dey
	sta     (sp),y
	lda     #$C0
	jsr     _get_ppu_addr
	sta     _address
	stx     _address+1
;
; index = 0xc0 + (x >> 4);
;
	lda     _x
	ldx     _x+1
	jsr     shrax4
	clc
	adc     #$C0
	bcc     L000E
	inx
L000E:	sta     _index
	stx     _index+1
;
; buffer_4_mt(address, index); // ppu_address, index to the data
;
	lda     _address
	ldx     _address+1
	jsr     pushax
	lda     _index
	jsr     _buffer_4_mt
;
; address = get_ppu_addr(nt, x, 0xe0);
;
	jsr     decsp2
	lda     _nt
	ldy     #$01
	sta     (sp),y
	lda     _x
	dey
	sta     (sp),y
	lda     #$E0
	jsr     _get_ppu_addr
	sta     _address
	stx     _address+1
;
; index = 0xe0 + (x >> 4);
;
	lda     _x
	ldx     _x+1
	jsr     shrax4
	clc
	adc     #$E0
L001A:	bcc     L000F
	inx
L000F:	sta     _index
	stx     _index+1
;
; buffer_4_mt(address, index); // ppu_address, index to the data
;
	lda     _address
	ldx     _address+1
	jsr     pushax
	lda     _index
	jsr     _buffer_4_mt
;
; ++scroll_count;
;
L0013:	inc     _scroll_count
;
; scroll_count &= 3; //mask off top bits, keep it 0-3
;
	lda     _scroll_count
	and     #$03
	sta     _scroll_count
;
; }
;
	rts

.endproc

; ---------------------------------------------------------------
; void __near__ new_cmap (void)
; ---------------------------------------------------------------

.segment	"CODE"

.proc	_new_cmap: near

.segment	"CODE"

;
; room = ((scroll_x >> 8) +1); //high byte = room, one to the right
;
	lda     _scroll_x+1
	clc
	adc     #$01
	sta     _room
;
; map = room & 1; //even or odd?
;
	and     #$01
	sta     _map
;
; if(!map){
;
	lda     _map
	bne     L0003
;
; memcpy (c_map, Rooms[room], 240);
;
	lda     #<(_c_map)
	ldx     #>(_c_map)
;
; else{
;
	jmp     L001C
;
; memcpy (c_map2, Rooms[room], 240);
;
L0003:	lda     #<(_c_map2)
	ldx     #>(_c_map2)
L001C:	jsr     pushax
	ldx     #$00
	lda     _room
	asl     a
	bcc     L0009
	inx
	clc
L0009:	adc     #<(_Rooms)
	sta     ptr1
	txa
	adc     #>(_Rooms)
	sta     ptr1+1
	ldy     #$01
	lda     (ptr1),y
	tax
	dey
	lda     (ptr1),y
	jsr     pushax
	ldx     #$00
	lda     #$F0
	jmp     _memcpy

.endproc

; ---------------------------------------------------------------
; void __near__ reset_level (void)
; ---------------------------------------------------------------

.segment	"CODE"

.proc	_reset_level: near

.segment	"CODE"

;
; ppu_off(); // reset the level when you get to this point, and change this later
;
	jsr     _ppu_off
;
; scroll_x = 0;
;
	lda     #$00
	sta     _scroll_x
	sta     _scroll_x+1
;
; load_room();
;
	jsr     _load_room
;
; Cube.x = 0x0000;
;
	lda     #$00
	sta     _Cube
	sta     _Cube+1
;
; Cube.y = 0xb400;
;
	ldx     #$B4
	sta     _Cube+2
	stx     _Cube+2+1
;
; gravity = 0x00;
;
	sta     _gravity
;
; gamemode = 0x01;
;
	lda     #$01
	sta     _gamemode
;
; Cube.vel_x = 0;
;
	lda     #$00
	sta     _Cube+4
	sta     _Cube+4+1
;
; Cube.vel_y = 0;
;
	sta     _Cube+6
	sta     _Cube+6+1
;
; cube_data = 0;
;
	sta     _cube_data
;
; music_stop();
;
	jsr     _music_stop
;
; ppu_on_all();
;
	jsr     _ppu_on_all
;
; music_play(song);
;
	lda     _song
	jmp     _music_play

.endproc

; ---------------------------------------------------------------
; void __near__ orbjump (void)
; ---------------------------------------------------------------

.segment	"CODE"

.proc	_orbjump: near

.segment	"CODE"

;
; bg_coll_orbs();
;
	jsr     _bg_coll_orbs
;
; if (bg_coll_orbs() && cube_data & CUBE_ORBJUMP) {
;
	jsr     _bg_coll_orbs
	tax
	beq     L000A
	lda     _cube_data
	and     #$02
	bne     L000B
L000A:	rts
;
; if (gravity == 1) Cube.vel_y = -JUMP_VEL;
;
L000B:	lda     _gravity
	cmp     #$01
	bne     L0006
	ldx     #$05
	lda     #$B0
;
; else Cube.vel_y = JUMP_VEL;
;
	jmp     L000C
L0006:	ldx     #$FA
	lda     #$50
L000C:	sta     _Cube+6
	stx     _Cube+6+1
;
; cube_data = 0x00;
;
	lda     #$00
	sta     _cube_data
;
; }
;
	rts

.endproc

; ---------------------------------------------------------------
; void __near__ padjump (void)
; ---------------------------------------------------------------

.segment	"CODE"

.proc	_padjump: near

.segment	"CODE"

;
; bg_coll_pads();
;
	jsr     _bg_coll_pads
;
; if (bg_coll_pads()) {
;
	jsr     _bg_coll_pads
	tax
	beq     L0004
;
; if (gravity == 1) Cube.vel_y = -YEL_PAD_HEIGHT;
;
	lda     _gravity
	cmp     #$01
	bne     L0003
	ldx     #$07
	lda     #$60
;
; else Cube.vel_y = YEL_PAD_HEIGHT;
;
	jmp     L0006
L0003:	ldx     #$F8
	lda     #$A0
L0006:	sta     _Cube+6
	stx     _Cube+6+1
;
; }
;
L0004:	rts

.endproc

; ---------------------------------------------------------------
; void __near__ update_colors (void)
; ---------------------------------------------------------------

.segment	"CODE"

.proc	_update_colors: near

.segment	"CODE"

;
; }
;
	rts

.endproc

; ---------------------------------------------------------------
; void __near__ sprite_obj_init (void)
; ---------------------------------------------------------------

.segment	"CODE"

.proc	_sprite_obj_init: near

.segment	"CODE"

;
; pointer = obj_list[level];
;
	ldx     #$00
	lda     _level
	asl     a
	bcc     L0016
	inx
	clc
L0016:	adc     #<(_obj_list)
	sta     ptr1
	txa
	adc     #>(_obj_list)
	sta     ptr1+1
	ldy     #$01
	lda     (ptr1),y
	sta     _pointer+1
	dey
	lda     (ptr1),y
	sta     _pointer
;
; for(index = 0,index2 = 0;index < MAX_OBJ; ++index){
;
	tya
	sta     _index
	sta     _index+1
	sta     _index2
	sta     _index2+1
L0002:	lda     _index+1
	cmp     #$00
	bne     L0006
	lda     _index
	cmp     #$20
L0006:	jcs     L0003
;
; obj_x[index] = 0;
;
	lda     _index
	clc
	adc     #<(_obj_x)
	sta     ptr1
	lda     _index+1
	adc     #>(_obj_x)
	sta     ptr1+1
	lda     #$00
	sta     (ptr1),y
;
; temp1 = pointer[index2]; // get a byte of data
;
	lda     _pointer
	clc
	adc     _index2
	sta     ptr1
	lda     _pointer+1
	adc     _index2+1
	sta     ptr1+1
	lda     (ptr1),y
	sta     _temp1
;
; obj_y[index] = temp1;
;
	lda     _index
	clc
	adc     #<(_obj_y)
	sta     ptr1
	lda     _index+1
	adc     #>(_obj_y)
	sta     ptr1+1
	lda     _temp1
	sta     (ptr1),y
;
; if(temp1 == TURN_OFF) break;
;
	lda     _temp1
	cmp     #$FF
	jeq     L0003
;
; ++index2;
;
	inc     _index2
	bne     L0009
	inc     _index2+1
;
; obj_active[index] = 0;
;
L0009:	lda     _index
	clc
	adc     #<(_obj_active)
	sta     ptr1
	lda     _index+1
	adc     #>(_obj_active)
	sta     ptr1+1
	lda     #$00
	sta     (ptr1),y
;
; temp1 = pointer[index2]; // get a byte of data
;
	lda     _pointer
	clc
	adc     _index2
	sta     ptr1
	lda     _pointer+1
	adc     _index2+1
	sta     ptr1+1
	lda     (ptr1),y
	sta     _temp1
;
; obj_room[index] = temp1;
;
	lda     _index
	clc
	adc     #<(_obj_room)
	sta     ptr1
	lda     _index+1
	adc     #>(_obj_room)
	sta     ptr1+1
	lda     _temp1
	sta     (ptr1),y
;
; ++index2;
;
	inc     _index2
	bne     L000A
	inc     _index2+1
;
; temp1 = pointer[index2]; // get a byte of data
;
L000A:	lda     _pointer
	clc
	adc     _index2
	sta     ptr1
	lda     _pointer+1
	adc     _index2+1
	sta     ptr1+1
	lda     (ptr1),y
	sta     _temp1
;
; obj_actual_x[index] = temp1;
;
	lda     _index
	clc
	adc     #<(_obj_actual_x)
	sta     ptr1
	lda     _index+1
	adc     #>(_obj_actual_x)
	sta     ptr1+1
	lda     _temp1
	sta     (ptr1),y
;
; ++index2;
;
	inc     _index2
	bne     L000B
	inc     _index2+1
;
; temp1 = pointer[index2]; // get a byte of data
;
L000B:	lda     _pointer
	clc
	adc     _index2
	sta     ptr1
	lda     _pointer+1
	adc     _index2+1
	sta     ptr1+1
	lda     (ptr1),y
	sta     _temp1
;
; obj_type[index] = temp1;
;
	lda     _index
	clc
	adc     #<(_obj_type)
	sta     ptr1
	lda     _index+1
	adc     #>(_obj_type)
	sta     ptr1+1
	lda     _temp1
	sta     (ptr1),y
;
; ++index2;
;
	inc     _index2
	bne     L000C
	inc     _index2+1
;
; for(index = 0,index2 = 0;index < MAX_OBJ; ++index){
;
L000C:	inc     _index
	jne     L0002
	inc     _index+1
	jmp     L0002
;
; for(++index;index < MAX_OBJ; ++index){
;
L0003:	inc     _index
	bne     L0015
	inc     _index+1
L0015:	lda     _index+1
	cmp     #$00
	bne     L0012
	lda     _index
	cmp     #$20
L0012:	bcs     L000E
;
; obj_y[index] = TURN_OFF;
;
	lda     _index
	clc
	adc     #<(_obj_y)
	sta     ptr1
	lda     _index+1
	adc     #>(_obj_y)
	sta     ptr1+1
	lda     #$FF
	sta     (ptr1),y
;
; for(++index;index < MAX_OBJ; ++index){
;
	jmp     L0003
;
; }
;
L000E:	rts

.endproc

; ---------------------------------------------------------------
; void __near__ sprite_collisions (void)
; ---------------------------------------------------------------

.segment	"CODE"

.proc	_sprite_collisions: near

.segment	"CODE"

;
; Generic.x = high_byte(Cube.x);
;
	lda     _Cube+1
	sta     _Generic
;
; Generic.y = high_byte(Cube.y);
;
	lda     _Cube+3
	sta     _Generic+1
;
; Generic.width = CUBE_WIDTH;
;
	lda     #$0F
	sta     _Generic+2
;
; Generic.height = CUBE_HEIGHT;
;
	sta     _Generic+3
;
; for(index = 0; index < MAX_OBJ; ++index){
;
	lda     #$00
	sta     _index
	sta     _index+1
L0002:	lda     _index+1
	cmp     #$00
	bne     L0006
	lda     _index
	cmp     #$20
L0006:	bcc     L0078
;
; }
;
	rts
;
; if(obj_active[index]){
;
L0078:	lda     _index
	sta     ptr1
	lda     _index+1
	clc
	adc     #>(_obj_active)
	sta     ptr1+1
	ldy     #<(_obj_active)
	lda     (ptr1),y
	jeq     L0004
;
; Generic2.width = PORTAL_WIDTH;
;
	lda     #$0F
	sta     _Generic2+2
;
; if(obj_type[index] & 0x30) Generic2.height = TRIGGER_HEIGHT;
;
	lda     _index
	sta     ptr1
	lda     _index+1
	clc
	adc     #>(_obj_type)
	sta     ptr1+1
	ldy     #<(_obj_type)
	lda     (ptr1),y
	and     #$30
	beq     L003D
	lda     #$FF
;
; else Generic2.height = PORTAL_HEIGHT;
;
	jmp     L003B
L003D:	lda     #$2F
L003B:	sta     _Generic2+3
;
; Generic2.x = obj_x[index];
;
	lda     _index
	sta     ptr1
	lda     _index+1
	clc
	adc     #>(_obj_x)
	sta     ptr1+1
	ldy     #<(_obj_x)
	lda     (ptr1),y
	sta     _Generic2
;
; Generic2.y = obj_y[index];
;
	lda     _index
	sta     ptr1
	lda     _index+1
	clc
	adc     #>(_obj_y)
	sta     ptr1+1
	ldy     #<(_obj_y)
	lda     (ptr1),y
	sta     _Generic2+1
;
; if(check_collision(&Generic, &Generic2)){
;
	lda     #<(_Generic)
	ldx     #>(_Generic)
	jsr     pushax
	lda     #<(_Generic2)
	ldx     #>(_Generic2)
	jsr     _check_collision
	tax
	jeq     L0004
;
; switch (obj_type[index]) {
;
	lda     _index
	sta     ptr1
	lda     _index+1
	clc
	adc     #>(_obj_type)
	sta     ptr1+1
	ldy     #<(_obj_type)
	lda     (ptr1),y
;
; }
;
	jeq     L003E
	cmp     #$01
	jeq     L003F
	cmp     #$02
	jeq     L0040
	cmp     #$03
	jeq     L0041
	cmp     #$10
	jeq     L0042
	cmp     #$11
	jeq     L0043
	cmp     #$12
	jeq     L0044
	cmp     #$13
	jeq     L0045
	cmp     #$14
	jeq     L0046
	cmp     #$15
	jeq     L0047
	cmp     #$16
	jeq     L0048
	cmp     #$17
	jeq     L0049
	cmp     #$18
	jeq     L004A
	cmp     #$19
	jeq     L004B
	cmp     #$1A
	jeq     L004C
	cmp     #$1B
	jeq     L004D
	cmp     #$1C
	jeq     L004E
	cmp     #$1F
	jeq     L004F
	cmp     #$20
	jeq     L0050
	cmp     #$21
	jeq     L0051
	cmp     #$22
	jeq     L0052
	cmp     #$23
	jeq     L0053
	cmp     #$24
	jeq     L0054
	cmp     #$25
	jeq     L0055
	cmp     #$26
	jeq     L0056
	cmp     #$27
	jeq     L0057
	cmp     #$28
	jeq     L0058
	cmp     #$29
	jeq     L0059
	cmp     #$2A
	jeq     L005A
	cmp     #$2B
	jeq     L005B
	cmp     #$2C
	jeq     L005C
	cmp     #$30
	jeq     L005D
	cmp     #$31
	jeq     L005E
	cmp     #$32
	jeq     L005F
	cmp     #$33
	jeq     L0060
	cmp     #$34
	jeq     L0061
	cmp     #$35
	jeq     L0062
	cmp     #$36
	jeq     L0063
	cmp     #$37
	jeq     L0064
	cmp     #$38
	jeq     L0065
	cmp     #$39
	jeq     L0066
	cmp     #$3A
	jeq     L0067
	cmp     #$3B
	jeq     L0068
	cmp     #$3C
	jeq     L0069
	jmp     L0004
;
; gamemode = 0x01;
;
L003E:	lda     #$01
	sta     _gamemode
;
; break;
;
	jmp     L0004
;
; gamemode = 0x02;
;
L003F:	lda     #$02
	sta     _gamemode
;
; break;
;
	jmp     L0004
;
; gravity = 0x00;
;
L0040:	lda     #$00
	sta     _gravity
;
; break;
;
	jmp     L0004
;
; gravity = 0x01;
;
L0041:	lda     #$01
	sta     _gravity
;
; break;
;
	jmp     L0004
;
; pal_col(COL_BG, 0x06);
;
L0042:	lda     #$00
	jsr     pusha
	lda     #$06
	jsr     _pal_col
;
; pal_col(COL_BG_TILES, 0x0F);
;
	lda     #$01
	jsr     pusha
	lda     #$0F
;
; break;
;
	jmp     L0073
;
; pal_col(COL_BG, 0x07);
;
L0043:	lda     #$00
	jsr     pusha
	lda     #$07
	jsr     _pal_col
;
; pal_col(COL_BG_TILES, 0x0F);
;
	lda     #$01
	jsr     pusha
	lda     #$0F
;
; break;
;
	jmp     L0073
;
; pal_col(COL_BG, 0x08);
;
L0044:	lda     #$00
	jsr     pusha
	lda     #$08
	jsr     _pal_col
;
; pal_col(COL_BG_TILES, 0x0F);
;
	lda     #$01
	jsr     pusha
	lda     #$0F
;
; break;
;
	jmp     L0073
;
; pal_col(COL_BG, 0x09);
;
L0045:	lda     #$00
	jsr     pusha
	lda     #$09
	jsr     _pal_col
;
; pal_col(COL_BG_TILES, 0x0F);
;
	lda     #$01
	jsr     pusha
	lda     #$0F
;
; break;
;
	jmp     L0073
;
; pal_col(COL_BG, 0x0A);
;
L0046:	lda     #$00
	jsr     pusha
	lda     #$0A
	jsr     _pal_col
;
; pal_col(COL_BG_TILES, 0x0F);
;
	lda     #$01
	jsr     pusha
	lda     #$0F
;
; break;
;
	jmp     L0073
;
; pal_col(COL_BG, 0x0B);
;
L0047:	lda     #$00
	jsr     pusha
	lda     #$0B
	jsr     _pal_col
;
; pal_col(COL_BG_TILES, 0x0F);
;
	lda     #$01
	jsr     pusha
	lda     #$0F
;
; break;
;
	jmp     L0073
;
; pal_col(COL_BG, 0x0C);
;
L0048:	lda     #$00
	jsr     pusha
	lda     #$0C
	jsr     _pal_col
;
; pal_col(COL_BG_TILES, 0x0F);
;
	lda     #$01
	jsr     pusha
	lda     #$0F
;
; break;
;
	jmp     L0073
;
; pal_col(COL_BG, 0x01);
;
L0049:	lda     #$00
	jsr     pusha
	lda     #$01
	jsr     _pal_col
;
; pal_col(COL_BG_TILES, 0x0F);
;
	lda     #$01
	jsr     pusha
	lda     #$0F
;
; break;
;
	jmp     L0073
;
; pal_col(COL_BG, 0x02);
;
L004A:	lda     #$00
	jsr     pusha
	lda     #$02
	jsr     _pal_col
;
; pal_col(COL_BG_TILES, 0x0F);
;
	lda     #$01
	jsr     pusha
	lda     #$0F
;
; break;
;
	jmp     L0073
;
; pal_col(COL_BG, 0x03);
;
L004B:	lda     #$00
	jsr     pusha
	lda     #$03
	jsr     _pal_col
;
; pal_col(COL_BG_TILES, 0x0F);
;
	lda     #$01
	jsr     pusha
	lda     #$0F
;
; break;
;
	jmp     L0073
;
; pal_col(COL_BG, 0x04);
;
L004C:	lda     #$00
	jsr     pusha
	lda     #$04
	jsr     _pal_col
;
; pal_col(COL_BG_TILES, 0x0F);
;
	lda     #$01
	jsr     pusha
	lda     #$0F
;
; break;
;
	jmp     L0073
;
; pal_col(COL_BG, 0x05);
;
L004D:	lda     #$00
	jsr     pusha
	lda     #$05
	jsr     _pal_col
;
; pal_col(COL_BG_TILES, 0x0F);
;
	lda     #$01
	jsr     pusha
	lda     #$0F
;
; break;
;
	jmp     L0073
;
; pal_col(COL_BG, 0x00);
;
L004E:	lda     #$00
	jsr     pusha
	jsr     _pal_col
;
; pal_col(COL_BG_TILES, 0x0F);
;
	lda     #$01
	jsr     pusha
	lda     #$0F
;
; break;
;
	jmp     L0073
;
; pal_col(COL_BG, 0x0F);
;
L004F:	lda     #$00
	jsr     pusha
	lda     #$0F
	jsr     _pal_col
;
; pal_col(COL_BG_TILES, 0x0F);
;
	lda     #$01
	jsr     pusha
	lda     #$0F
;
; break;
;
	jmp     L0073
;
; pal_col(COL_BG, 0x16);
;
L0050:	lda     #$00
	jsr     pusha
	lda     #$16
	jsr     _pal_col
;
; pal_col(COL_BG_TILES, 0x06);
;
	lda     #$01
	jsr     pusha
	lda     #$06
;
; break;
;
	jmp     L0073
;
; pal_col(COL_BG, 0x17);
;
L0051:	lda     #$00
	jsr     pusha
	lda     #$17
	jsr     _pal_col
;
; pal_col(COL_BG_TILES, 0x07);
;
	lda     #$01
	jsr     pusha
	lda     #$07
;
; break;
;
	jmp     L0073
;
; pal_col(COL_BG, 0x18);
;
L0052:	lda     #$00
	jsr     pusha
	lda     #$18
	jsr     _pal_col
;
; pal_col(COL_BG_TILES, 0x08);
;
	lda     #$01
	jsr     pusha
	lda     #$08
;
; break;
;
	jmp     L0073
;
; pal_col(COL_BG, 0x19);
;
L0053:	lda     #$00
	jsr     pusha
	lda     #$19
	jsr     _pal_col
;
; pal_col(COL_BG_TILES, 0x09);
;
	lda     #$01
	jsr     pusha
	lda     #$09
;
; break;
;
	jmp     L0073
;
; pal_col(COL_BG, 0x1A);
;
L0054:	lda     #$00
	jsr     pusha
	lda     #$1A
	jsr     _pal_col
;
; pal_col(COL_BG_TILES, 0x0A);
;
	lda     #$01
	jsr     pusha
	lda     #$0A
;
; break;
;
	jmp     L0073
;
; pal_col(COL_BG, 0x1B);
;
L0055:	lda     #$00
	jsr     pusha
	lda     #$1B
	jsr     _pal_col
;
; pal_col(COL_BG_TILES, 0x0B);
;
	lda     #$01
	jsr     pusha
	lda     #$0B
;
; break;
;
	jmp     L0073
;
; pal_col(COL_BG, 0x1C);
;
L0056:	lda     #$00
	jsr     pusha
	lda     #$1C
	jsr     _pal_col
;
; pal_col(COL_BG_TILES, 0x0C);
;
	lda     #$01
	jsr     pusha
	lda     #$0C
;
; break;
;
	jmp     L0073
;
; pal_col(COL_BG, 0x11);
;
L0057:	lda     #$00
	jsr     pusha
	lda     #$11
	jsr     _pal_col
;
; pal_col(COL_BG_TILES, 0x01);
;
	lda     #$01
	jsr     pusha
;
; break;
;
	jmp     L0073
;
; pal_col(COL_BG, 0x12);
;
L0058:	lda     #$00
	jsr     pusha
	lda     #$12
	jsr     _pal_col
;
; pal_col(COL_BG_TILES, 0x02);
;
	lda     #$01
	jsr     pusha
	lda     #$02
;
; break;
;
	jmp     L0073
;
; pal_col(COL_BG, 0x13);
;
L0059:	lda     #$00
	jsr     pusha
	lda     #$13
	jsr     _pal_col
;
; pal_col(COL_BG_TILES, 0x03);
;
	lda     #$01
	jsr     pusha
	lda     #$03
;
; break;
;
	jmp     L0073
;
; pal_col(COL_BG, 0x14);
;
L005A:	lda     #$00
	jsr     pusha
	lda     #$14
	jsr     _pal_col
;
; pal_col(COL_BG_TILES, 0x04);
;
	lda     #$01
	jsr     pusha
	lda     #$04
;
; break;
;
	jmp     L0073
;
; pal_col(COL_BG, 0x15);
;
L005B:	lda     #$00
	jsr     pusha
	lda     #$15
	jsr     _pal_col
;
; pal_col(COL_BG_TILES, 0x05);
;
	lda     #$01
	jsr     pusha
	lda     #$05
;
; break;
;
	jmp     L0073
;
; pal_col(COL_BG, 0x10);
;
L005C:	lda     #$00
	jsr     pusha
	lda     #$10
;
; break;
;
	jmp     L0077
;
; pal_col(COL_BG, 0x26);
;
L005D:	lda     #$00
	jsr     pusha
	lda     #$26
	jsr     _pal_col
;
; pal_col(COL_BG_TILES, 0x06);
;
	lda     #$01
	jsr     pusha
	lda     #$06
;
; break;
;
	jmp     L0073
;
; pal_col(COL_BG, 0x27);
;
L005E:	lda     #$00
	jsr     pusha
	lda     #$27
	jsr     _pal_col
;
; pal_col(COL_BG_TILES, 0x07);
;
	lda     #$01
	jsr     pusha
	lda     #$07
;
; break;
;
	jmp     L0073
;
; pal_col(COL_BG, 0x28);
;
L005F:	lda     #$00
	jsr     pusha
	lda     #$28
	jsr     _pal_col
;
; pal_col(COL_BG_TILES, 0x08);
;
	lda     #$01
	jsr     pusha
	lda     #$08
;
; break;
;
	jmp     L0073
;
; pal_col(COL_BG, 0x29);
;
L0060:	lda     #$00
	jsr     pusha
	lda     #$29
	jsr     _pal_col
;
; pal_col(COL_BG_TILES, 0x09);
;
	lda     #$01
	jsr     pusha
	lda     #$09
;
; break;
;
	jmp     L0073
;
; pal_col(COL_BG, 0x2A);
;
L0061:	lda     #$00
	jsr     pusha
	lda     #$2A
	jsr     _pal_col
;
; pal_col(COL_BG_TILES, 0x0A);
;
	lda     #$01
	jsr     pusha
	lda     #$0A
;
; break;
;
	jmp     L0073
;
; pal_col(COL_BG, 0x2B);
;
L0062:	lda     #$00
	jsr     pusha
	lda     #$2B
	jsr     _pal_col
;
; pal_col(COL_BG_TILES, 0x0B);
;
	lda     #$01
	jsr     pusha
	lda     #$0B
;
; break;
;
	jmp     L0073
;
; pal_col(COL_BG, 0x2C);
;
L0063:	lda     #$00
	jsr     pusha
	lda     #$2C
	jsr     _pal_col
;
; pal_col(COL_BG_TILES, 0x0C);
;
	lda     #$01
	jsr     pusha
	lda     #$0C
;
; break;
;
	jmp     L0073
;
; pal_col(COL_BG, 0x21);
;
L0064:	lda     #$00
	jsr     pusha
	lda     #$21
	jsr     _pal_col
;
; pal_col(COL_BG_TILES, 0x01);
;
	lda     #$01
	jsr     pusha
;
; break;
;
	jmp     L0073
;
; pal_col(COL_BG, 0x22);
;
L0065:	lda     #$00
	jsr     pusha
	lda     #$22
	jsr     _pal_col
;
; pal_col(COL_BG_TILES, 0x02);
;
	lda     #$01
	jsr     pusha
	lda     #$02
;
; break;
;
	jmp     L0073
;
; pal_col(COL_BG, 0x23);
;
L0066:	lda     #$00
	jsr     pusha
	lda     #$23
	jsr     _pal_col
;
; pal_col(COL_BG_TILES, 0x03);
;
	lda     #$01
	jsr     pusha
	lda     #$03
;
; break;
;
	jmp     L0073
;
; pal_col(COL_BG, 0x24);
;
L0067:	lda     #$00
	jsr     pusha
	lda     #$24
	jsr     _pal_col
;
; pal_col(COL_BG_TILES, 0x04);
;
	lda     #$01
	jsr     pusha
	lda     #$04
;
; break;
;
	jmp     L0073
;
; pal_col(COL_BG, 0x25);
;
L0068:	lda     #$00
	jsr     pusha
	lda     #$25
	jsr     _pal_col
;
; pal_col(COL_BG_TILES, 0x05);
;
	lda     #$01
	jsr     pusha
	lda     #$05
;
; break;
;
	jmp     L0073
;
; pal_col(COL_BG, 0x30);
;
L0069:	lda     #$00
	jsr     pusha
	lda     #$30
L0077:	jsr     _pal_col
;
; pal_col(COL_BG_TILES, 0x00);
;
	lda     #$01
	jsr     pusha
	lda     #$00
L0073:	jsr     _pal_col
;
; obj_y[index] = TURN_OFF;
;
	lda     _index
	clc
	adc     #<(_obj_y)
	sta     ptr1
	lda     _index+1
	adc     #>(_obj_y)
	sta     ptr1+1
	lda     #$FF
	ldy     #$00
	sta     (ptr1),y
;
; for(index = 0; index < MAX_OBJ; ++index){
;
L0004:	inc     _index
	jne     L0002
	inc     _index+1
	jmp     L0002

.endproc

; ---------------------------------------------------------------
; void __near__ check_spr_objects (void)
; ---------------------------------------------------------------

.segment	"CODE"

.proc	_check_spr_objects: near

.segment	"CODE"

;
; Generic2.x = high_byte(Cube.x);
;
	lda     _Cube+1
	sta     _Generic2
;
; for(index = 0; index < MAX_OBJ; ++index){
;
	lda     #$00
	sta     _index
	sta     _index+1
L0002:	lda     _index+1
	cmp     #$00
	bne     L0006
	lda     _index
	cmp     #$20
L0006:	bcc     L0009
;
; }
;
	rts
;
; obj_active[index] = 0; //default to zero
;
L0009:	lda     _index
	clc
	adc     #<(_obj_active)
	sta     ptr1
	lda     _index+1
	adc     #>(_obj_active)
	sta     ptr1+1
	lda     #$00
	tay
	sta     (ptr1),y
;
; if(obj_y[index] != TURN_OFF){
;
	lda     _index
	sta     ptr1
	lda     _index+1
	clc
	adc     #>(_obj_y)
	sta     ptr1+1
	ldy     #<(_obj_y)
	lda     (ptr1),y
	cmp     #$FF
	beq     L0004
;
; high_byte(temp5) = obj_room[index];
;
	lda     _index
	sta     ptr1
	lda     _index+1
	clc
	adc     #>(_obj_room)
	sta     ptr1+1
	ldy     #<(_obj_room)
	lda     (ptr1),y
	sta     _temp5+1
;
; low_byte(temp5) = obj_actual_x[index];
;
	lda     _index
	sta     ptr1
	lda     _index+1
	clc
	adc     #>(_obj_actual_x)
	sta     ptr1+1
	ldy     #<(_obj_actual_x)
	lda     (ptr1),y
	sta     _temp5
;
; obj_active[index] = get_position();
;
	lda     _index
	clc
	adc     #<(_obj_active)
	tay
	lda     _index+1
	adc     #>(_obj_active)
	tax
	tya
	jsr     pushax
	jsr     _get_position
	ldy     #$00
	jsr     staspidx
;
; obj_x[index] = temp_x; // screen x coords
;
	lda     _index
	clc
	adc     #<(_obj_x)
	sta     ptr1
	lda     _index+1
	adc     #>(_obj_x)
	sta     ptr1+1
	lda     _temp_x
	ldy     #$00
	sta     (ptr1),y
;
; for(index = 0; index < MAX_OBJ; ++index){
;
L0004:	inc     _index
	jne     L0002
	inc     _index+1
	jmp     L0002

.endproc

; ---------------------------------------------------------------
; char __near__ bg_collision_sub (void)
; ---------------------------------------------------------------

.segment	"CODE"

.proc	_bg_collision_sub: near

.segment	"CODE"

;
; if(temp_y >= 0xf0) return 0;
;
	lda     _temp_y
	cmp     #$F0
	ldx     #$00
	bcc     L000A
	txa
	rts
;
; coordinates = (temp_x >> 4) + (temp_y & 0xf0);
;
L000A:	lda     _temp_x
	lsr     a
	lsr     a
	lsr     a
	lsr     a
	sta     ptr1
	lda     _temp_y
	and     #$F0
	clc
	adc     ptr1
	sta     _coordinates
;
; map = temp_room&1; // high byte
;
	lda     _temp_room
	and     #$01
	sta     _map
;
; if(!map){
;
	lda     _map
	bne     L0003
;
; collision = c_map[coordinates];
;
	ldy     _coordinates
	lda     _c_map,y
;
; else{
;
	jmp     L0009
;
; collision = c_map2[coordinates];
;
L0003:	ldy     _coordinates
	lda     _c_map2,y
L0009:	sta     _collision
;
; return is_solid[collision];
;
	ldy     _collision
	lda     _is_solid,y
;
; }
;
	rts

.endproc

; ---------------------------------------------------------------
; char __near__ bg_coll_L (void)
; ---------------------------------------------------------------

.segment	"CODE"

.proc	_bg_coll_L: near

.segment	"CODE"

;
; temp5 = Generic.x + scroll_x;
;
	lda     _Generic
	clc
	adc     _scroll_x
	sta     _temp5
	lda     #$00
	adc     _scroll_x+1
	sta     _temp5+1
;
; temp_x = (char)temp5; // low byte
;
	lda     _temp5
	sta     _temp_x
;
; temp_room = temp5 >> 8; // high byte
;
	lda     _temp5+1
	sta     _temp_room
;
; eject_L = temp_x | 0xf0;
;
	lda     _temp_x
	ora     #$F0
	sta     _eject_L
;
; temp_y = Generic.y + 2;
;
	lda     _Generic+1
	clc
	adc     #$02
	sta     _temp_y
;
; if(bg_collision_sub() & COL_ALL) return 1;
;
	jsr     _bg_collision_sub
	and     #$40
	beq     L0006
	ldx     #$00
	lda     #$01
	rts
;
; temp_y = Generic.y + Generic.height;
;
L0006:	lda     _Generic+1
	clc
	adc     _Generic+3
	sta     _temp_y
;
; temp_y -= 2;
;
	sec
	sbc     #$02
	sta     _temp_y
;
; if(bg_collision_sub() & COL_ALL) return 1;
;
	jsr     _bg_collision_sub
	ldx     #$00
	and     #$40
	beq     L0008
	lda     #$01
	rts
;
; }
;
L0008:	rts

.endproc

; ---------------------------------------------------------------
; char __near__ bg_coll_R (void)
; ---------------------------------------------------------------

.segment	"CODE"

.proc	_bg_coll_R: near

.segment	"CODE"

;
; temp5 = Generic.x + scroll_x + Generic.width;
;
	lda     _Generic
	clc
	adc     _scroll_x
	pha
	lda     #$00
	adc     _scroll_x+1
	tax
	pla
	clc
	adc     _Generic+2
	bcc     L0003
	inx
L0003:	sta     _temp5
	stx     _temp5+1
;
; temp_x = (char)temp5; // low byte
;
	lda     _temp5
	sta     _temp_x
;
; temp_room = temp5 >> 8; // high byte
;
	lda     _temp5+1
	sta     _temp_room
;
; temp_y = Generic.y + (Generic.height>>1);  // this checks for a thing called *middle point collision* 
;
	lda     _Generic+3
	lsr     a
	clc
	adc     _Generic+1
	sta     _temp_y
;
; if(bg_collision_sub() & COL_ALL) {cube_data = 0x01;}
;
	jsr     _bg_collision_sub
	ldx     #$00
	and     #$40
	beq     L0006
	lda     #$01
	sta     _cube_data
;
; return 0;
;
	txa
;
; }
;
L0006:	rts

.endproc

; ---------------------------------------------------------------
; char __near__ bg_coll_U (void)
; ---------------------------------------------------------------

.segment	"CODE"

.proc	_bg_coll_U: near

.segment	"CODE"

;
; temp5 = Generic.x + scroll_x;
;
	lda     _Generic
	clc
	adc     _scroll_x
	sta     _temp5
	lda     #$00
	adc     _scroll_x+1
	sta     _temp5+1
;
; temp5 += 2;
;
	lda     #$02
	clc
	adc     _temp5
	sta     _temp5
	bcc     L0002
	inc     _temp5+1
;
; temp_x = (char)temp5; // low byte
;
L0002:	lda     _temp5
	sta     _temp_x
;
; temp_room = temp5 >> 8; // high byte
;
	lda     _temp5+1
	sta     _temp_room
;
; temp_y = Generic.y;
;
	lda     _Generic+1
	sta     _temp_y
;
; eject_U = temp_y | 0xf0;
;
	ora     #$F0
	sta     _eject_U
;
; if(bg_collision_sub() & COL_ALL) return 1;
;
	jsr     _bg_collision_sub
	and     #$40
	beq     L0007
	ldx     #$00
	lda     #$01
	rts
;
; temp5 = Generic.x + scroll_x + Generic.width;
;
L0007:	lda     _Generic
	clc
	adc     _scroll_x
	pha
	lda     #$00
	adc     _scroll_x+1
	tax
	pla
	clc
	adc     _Generic+2
	bcc     L0006
	inx
L0006:	sta     _temp5
	stx     _temp5+1
;
; temp5 -= 2;
;
	lda     _temp5
	sec
	sbc     #$02
	sta     _temp5
	bcs     L0004
	dec     _temp5+1
;
; temp_x = (char)temp5; // low byte
;
L0004:	lda     _temp5
	sta     _temp_x
;
; temp_room = temp5 >> 8; // high byte
;
	lda     _temp5+1
	sta     _temp_room
;
; if(bg_collision_sub() & COL_ALL) return 1;
;
	jsr     _bg_collision_sub
	ldx     #$00
	and     #$40
	beq     L0009
	lda     #$01
	rts
;
; }
;
L0009:	rts

.endproc

; ---------------------------------------------------------------
; char __near__ bg_coll_D (void)
; ---------------------------------------------------------------

.segment	"CODE"

.proc	_bg_coll_D: near

.segment	"CODE"

;
; temp5 = Generic.x + scroll_x;
;
	lda     _Generic
	clc
	adc     _scroll_x
	sta     _temp5
	lda     #$00
	adc     _scroll_x+1
	sta     _temp5+1
;
; temp5 += 2;
;
	lda     #$02
	clc
	adc     _temp5
	sta     _temp5
	bcc     L0002
	inc     _temp5+1
;
; temp_x = (char)temp5; // low byte
;
L0002:	lda     _temp5
	sta     _temp_x
;
; temp_room = temp5 >> 8; // high byte
;
	lda     _temp5+1
	sta     _temp_room
;
; temp_y = Generic.y + Generic.height;
;
	lda     _Generic+1
	clc
	adc     _Generic+3
	sta     _temp_y
;
; eject_D = (temp_y + 1) & 0x0f;
;
	clc
	adc     #$01
	and     #$0F
	sta     _eject_D
;
; if(bg_collision_sub() & COL_ALL) return 1;
;
	jsr     _bg_collision_sub
	and     #$40
	beq     L0009
	ldx     #$00
	lda     #$01
	rts
;
; temp5 = Generic.x + scroll_x + Generic.width;
;
L0009:	lda     _Generic
	clc
	adc     _scroll_x
	pha
	lda     #$00
	adc     _scroll_x+1
	tax
	pla
	clc
	adc     _Generic+2
	bcc     L0008
	inx
L0008:	sta     _temp5
	stx     _temp5+1
;
; temp5 -= 2;
;
	lda     _temp5
	sec
	sbc     #$02
	sta     _temp5
	bcs     L0005
	dec     _temp5+1
;
; temp_x = (char)temp5; // low byte
;
L0005:	lda     _temp5
	sta     _temp_x
;
; temp_room = temp5 >> 8; // high byte
;
	lda     _temp5+1
	sta     _temp_room
;
; if(bg_collision_sub() & COL_ALL) return 1; 
;
	jsr     _bg_collision_sub
	ldx     #$00
	and     #$40
	beq     L000B
	lda     #$01
	rts
;
; }
;
L000B:	rts

.endproc

; ---------------------------------------------------------------
; char __near__ bg_coll_D2 (void)
; ---------------------------------------------------------------

.segment	"CODE"

.proc	_bg_coll_D2: near

.segment	"CODE"

;
; temp5 = Generic.x + scroll_x;
;
	lda     _Generic
	clc
	adc     _scroll_x
	sta     _temp5
	lda     #$00
	adc     _scroll_x+1
	sta     _temp5+1
;
; temp5 += 2;
;
	lda     #$02
	clc
	adc     _temp5
	sta     _temp5
	bcc     L0002
	inc     _temp5+1
;
; temp_x = (char)temp5; // low byte
;
L0002:	lda     _temp5
	sta     _temp_x
;
; temp_room = temp5 >> 8; // high byte
;
	lda     _temp5+1
	sta     _temp_room
;
; temp_y = Generic.y + Generic.height;
;
	lda     _Generic+1
	clc
	adc     _Generic+3
	sta     _temp_y
;
; temp_y += 2;
;
	lda     #$02
	clc
	adc     _temp_y
	sta     _temp_y
;
; if(bg_collision_sub() & COL_ALL) {cube_rotate = 0x0080; return 1;}
;
	jsr     _bg_collision_sub
	and     #$40
	beq     L0008
	ldx     #$00
	lda     #$80
	sta     _cube_rotate
	stx     _cube_rotate+1
	lda     #$01
	rts
;
; temp5 = Generic.x + scroll_x + Generic.width;
;
L0008:	lda     _Generic
	clc
	adc     _scroll_x
	pha
	lda     #$00
	adc     _scroll_x+1
	tax
	pla
	clc
	adc     _Generic+2
	bcc     L0007
	inx
L0007:	sta     _temp5
	stx     _temp5+1
;
; temp5 -= 2;
;
	lda     _temp5
	sec
	sbc     #$02
	sta     _temp5
	bcs     L0004
	dec     _temp5+1
;
; temp_x = (char)temp5; // low byte
;
L0004:	lda     _temp5
	sta     _temp_x
;
; temp_room = temp5 >> 8; // high byte
;
	lda     _temp5+1
	sta     _temp_room
;
; if(bg_collision_sub() & COL_ALL) {cube_rotate = 0x0080; return 1;}
;
	jsr     _bg_collision_sub
	ldx     #$00
	and     #$40
	beq     L000A
	lda     #$80
	sta     _cube_rotate
	stx     _cube_rotate+1
	lda     #$01
	rts
;
; }
;
L000A:	rts

.endproc

; ---------------------------------------------------------------
; char __near__ bg_coll_death (void)
; ---------------------------------------------------------------

.segment	"CODE"

.proc	_bg_coll_death: near

.segment	"CODE"

;
; temp5 = Generic.x + scroll_x + (Generic.width >> 1);
;
	lda     _Generic
	clc
	adc     _scroll_x
	sta     ptr1
	lda     #$00
	adc     _scroll_x+1
	sta     ptr1+1
	lda     _Generic+2
	lsr     a
	clc
	adc     ptr1
	ldx     ptr1+1
	bcc     L0004
	inx
L0004:	sta     _temp5
	stx     _temp5+1
;
; temp_x = (char)temp5; // low byte
;
	lda     _temp5
	sta     _temp_x
;
; temp_room = temp5 >> 8; // high byte
;
	lda     _temp5+1
	sta     _temp_room
;
; temp_y = Generic.y + (Generic.height>> 1);
;
	lda     _Generic+3
	lsr     a
	clc
	adc     _Generic+1
	sta     _temp_y
;
; if(bg_collision_sub() & COL_DEATH) cube_data = 0x01;
;
	jsr     _bg_collision_sub
	and     #$80
	beq     L0006
	lda     #$01
	sta     _cube_data
;
; if(cube_data & 0x01) { reset_level(); sfx_play(SFX_DEATH, 0);}
;
L0006:	lda     _cube_data
	ldx     #$00
	and     #$01
	beq     L0003
	jsr     _reset_level
	lda     #$00
	jsr     pusha
	jmp     _sfx_play
;
; }
;
L0003:	rts

.endproc

; ---------------------------------------------------------------
; char __near__ bg_coll_orbs (void)
; ---------------------------------------------------------------

.segment	"CODE"

.proc	_bg_coll_orbs: near

.segment	"CODE"

;
; if (cube_data & CUBE_ORBJUMP && pad1 & PAD_A) {
;
	lda     _cube_data
	and     #$02
	jeq     L0016
	lda     _pad1
	and     #$80
	jeq     L0016
;
; temp5 = Generic.x + scroll_x;
;
	lda     _Generic
	clc
	adc     _scroll_x
	sta     _temp5
	lda     #$00
	adc     _scroll_x+1
	sta     _temp5+1
;
; temp_x = (char)temp5; // low byte
;
	lda     _temp5
	sta     _temp_x
;
; temp_room = temp5 >> 8; // high byte
;
	lda     _temp5+1
	sta     _temp_room
;
; temp_y = Generic.y;
;
	lda     _Generic+1
	sta     _temp_y
;
; if(bg_collision_sub() & COL_YEL_ORB) return 1;
;
	jsr     _bg_collision_sub
	and     #$20
	beq     L0011
	ldx     #$00
	lda     #$01
	rts
;
; temp5 = Generic.x + scroll_x + Generic.width;
;
L0011:	lda     _Generic
	clc
	adc     _scroll_x
	pha
	lda     #$00
	adc     _scroll_x+1
	tax
	pla
	clc
	adc     _Generic+2
	bcc     L000B
	inx
L000B:	sta     _temp5
	stx     _temp5+1
;
; temp_x = (char)temp5; // low byte
;
	lda     _temp5
	sta     _temp_x
;
; temp_room = temp5 >> 8; // high byte
;
	lda     _temp5+1
	sta     _temp_room
;
; if(bg_collision_sub() & COL_YEL_ORB) return 1;
;
	jsr     _bg_collision_sub
	and     #$20
	beq     L0012
	ldx     #$00
	lda     #$01
	rts
;
; temp5 = Generic.x + scroll_x;
;
L0012:	lda     _Generic
	clc
	adc     _scroll_x
	sta     _temp5
	lda     #$00
	adc     _scroll_x+1
	sta     _temp5+1
;
; temp_x = (char)temp5; // low byte
;
	lda     _temp5
	sta     _temp_x
;
; temp_room = temp5 >> 8; // high byte
;
	lda     _temp5+1
	sta     _temp_room
;
; temp_y = Generic.y + Generic.height;
;
	lda     _Generic+1
	clc
	adc     _Generic+3
	sta     _temp_y
;
; if(bg_collision_sub() & COL_YEL_ORB) return 1;
;
	jsr     _bg_collision_sub
	and     #$20
	beq     L0013
	ldx     #$00
	lda     #$01
	rts
;
; temp5 = Generic.x + scroll_x + Generic.width;
;
L0013:	lda     _Generic
	clc
	adc     _scroll_x
	pha
	lda     #$00
	adc     _scroll_x+1
	tax
	pla
	clc
	adc     _Generic+2
	bcc     L000D
	inx
L000D:	sta     _temp5
	stx     _temp5+1
;
; temp_x = (char)temp5; // low byte
;
	lda     _temp5
	sta     _temp_x
;
; temp_room = temp5 >> 8; // high byte
;
	lda     _temp5+1
	sta     _temp_room
;
; if(bg_collision_sub() & COL_YEL_ORB) return 1;
;
	jsr     _bg_collision_sub
	ldx     #$00
	and     #$20
	beq     L0015
	lda     #$01
	rts
;
; return 0;
;
L0015:	rts
;
; if (pad1_new & PAD_A) cube_data = CUBE_ORBJUMP;
;
L0016:	lda     _pad1_new
	ldx     #$00
	and     #$80
	beq     L000A
	lda     #$02
	sta     _cube_data
;
; }
;
L000A:	rts

.endproc

; ---------------------------------------------------------------
; char __near__ bg_coll_pads (void)
; ---------------------------------------------------------------

.segment	"CODE"

.proc	_bg_coll_pads: near

.segment	"CODE"

;
; temp5 = Generic.x + scroll_x;
;
	lda     _Generic
	clc
	adc     _scroll_x
	sta     _temp5
	lda     #$00
	adc     _scroll_x+1
	sta     _temp5+1
;
; ++temp5; ++temp5;
;
	inc     _temp5
	bne     L0002
	inc     _temp5+1
L0002:	inc     _temp5
	bne     L0003
	inc     _temp5+1
;
; temp_x = (char)temp5; // low byte
;
L0003:	lda     _temp5
	sta     _temp_x
;
; temp_room = temp5 >> 8; // high byte
;
	lda     _temp5+1
	sta     _temp_room
;
; temp_y = Generic.y + (Generic.height>>1);
;
	lda     _Generic+3
	lsr     a
	clc
	adc     _Generic+1
	sta     _temp_y
;
; if(bg_collision_sub() & COL_YEL_PAD) return 1;
;
	jsr     _bg_collision_sub
	and     #$10
	beq     L000B
	ldx     #$00
	lda     #$01
	rts
;
; temp5 = Generic.x + scroll_x + Generic.width;
;
L000B:	lda     _Generic
	clc
	adc     _scroll_x
	pha
	lda     #$00
	adc     _scroll_x+1
	tax
	pla
	clc
	adc     _Generic+2
	bcc     L0008
	inx
L0008:	sta     _temp5
	stx     _temp5+1
;
; --temp5; --temp5;
;
	lda     _temp5
	sec
	sbc     #$01
	sta     _temp5
	bcs     L0005
	dec     _temp5+1
L0005:	lda     _temp5
	sec
	sbc     #$01
	sta     _temp5
	bcs     L0006
	dec     _temp5+1
;
; temp_x = (char)temp5; // low byte
;
L0006:	lda     _temp5
	sta     _temp_x
;
; temp_room = temp5 >> 8; // high byte
;
	lda     _temp5+1
	sta     _temp_room
;
; temp_y = Generic.y + (Generic.height>>1);
;
	lda     _Generic+3
	lsr     a
	clc
	adc     _Generic+1
	sta     _temp_y
;
; if(bg_collision_sub() & COL_YEL_PAD) return 1;
;
	jsr     _bg_collision_sub
	ldx     #$00
	and     #$10
	beq     L000D
	lda     #$01
	rts
;
; }
;
L000D:	rts

.endproc

; ---------------------------------------------------------------
; char __near__ get_position (void)
; ---------------------------------------------------------------

.segment	"CODE"

.proc	_get_position: near

.segment	"CODE"

;
; temp5 -= scroll_x;
;
	lda     _scroll_x
	eor     #$FF
	sec
	adc     _temp5
	sta     _temp5
	lda     _scroll_x+1
	eor     #$FF
	adc     _temp5+1
	sta     _temp5+1
;
; temp_x = temp5 & 0xff;
;
	lda     _temp5
	ldx     #$00
	sta     _temp_x
;
; if(high_byte(temp5)) return 0;
;
	lda     _temp5+1
	beq     L0003
	txa
	rts
;
; return 1;
;
L0003:	lda     #$01
;
; }
;
	rts

.endproc

; ---------------------------------------------------------------
; char __near__ bg_coll_U2 (void)
; ---------------------------------------------------------------

.segment	"CODE"

.proc	_bg_coll_U2: near

.segment	"CODE"

;
; temp5 = Generic.x + scroll_x;
;
	lda     _Generic
	clc
	adc     _scroll_x
	sta     _temp5
	lda     #$00
	adc     _scroll_x+1
	sta     _temp5+1
;
; temp5 += 2;
;
	lda     #$02
	clc
	adc     _temp5
	sta     _temp5
	bcc     L0002
	inc     _temp5+1
;
; temp_x = (char)temp5; // low byte
;
L0002:	lda     _temp5
	sta     _temp_x
;
; temp_room = temp5 >> 8; // high byte
;
	lda     _temp5+1
	sta     _temp_room
;
; temp_y = Generic.y;
;
	lda     _Generic+1
	sta     _temp_y
;
; temp_y -= 2;
;
	sec
	sbc     #$02
	sta     _temp_y
;
; if(bg_collision_sub() & COL_ALL) {cube_rotate = 0x0080; return 1;}
;
	jsr     _bg_collision_sub
	and     #$40
	beq     L0007
	ldx     #$00
	lda     #$80
	sta     _cube_rotate
	stx     _cube_rotate+1
	lda     #$01
	rts
;
; temp5 = Generic.x + scroll_x + Generic.width;
;
L0007:	lda     _Generic
	clc
	adc     _scroll_x
	pha
	lda     #$00
	adc     _scroll_x+1
	tax
	pla
	clc
	adc     _Generic+2
	bcc     L0006
	inx
L0006:	sta     _temp5
	stx     _temp5+1
;
; temp5 -= 2;
;
	lda     _temp5
	sec
	sbc     #$02
	sta     _temp5
	bcs     L0004
	dec     _temp5+1
;
; temp_x = (char)temp5; // low byte
;
L0004:	lda     _temp5
	sta     _temp_x
;
; temp_room = temp5 >> 8; // high byte
;
	lda     _temp5+1
	sta     _temp_room
;
; if(bg_collision_sub() & COL_ALL) {cube_rotate = 0x0080; return 1;}
;
	jsr     _bg_collision_sub
	ldx     #$00
	and     #$40
	beq     L0009
	lda     #$80
	sta     _cube_rotate
	stx     _cube_rotate+1
	lda     #$01
	rts
;
; }
;
L0009:	rts

.endproc

; ---------------------------------------------------------------
; void __near__ ship_movement (void)
; ---------------------------------------------------------------

.segment	"CODE"

.proc	_ship_movement: near

.segment	"CODE"

;
; old_x = Cube.x;
;
	lda     _Cube+1
	sta     _old_x+1
	lda     _Cube
	sta     _old_x
;
; Cube.vel_x = CUBE_SPEED;
;
	ldx     #$02
	lda     #$C4
	sta     _Cube+4
	stx     _Cube+4+1
;
; Cube.x += Cube.vel_x;
;
	clc
	adc     _Cube
	sta     _Cube
	txa
	adc     _Cube+1
	sta     _Cube+1
;
; if(Cube.x > 0xf000) { // too far, don't wrap around
;
	lda     _Cube
	cmp     #$01
	lda     _Cube+1
	sbc     #$F0
	bcc     L002A
;
; if(old_x >= 0xf000){
;
	lda     _old_x
	cmp     #$00
	lda     _old_x+1
	sbc     #$F0
	lda     #$00
	tax
	bcc     L0029
;
; Cube.x = 0xf000; // max right
;
	ldx     #$F0
;
; Cube.x = 0x0000; // max left
;
L0029:	sta     _Cube
	stx     _Cube+1
;
; Cube.vel_x = 0;
;
	sta     _Cube+4
	sta     _Cube+4+1
;
; Generic.x = high_byte(Cube.x); // this is much faster than passing a pointer to Cube
;
L002A:	lda     _Cube+1
	sta     _Generic
;
; Generic.y = high_byte(Cube.y);
;
	lda     _Cube+3
	sta     _Generic+1
;
; Generic.width = CUBE_WIDTH;
;
	lda     #$0F
	sta     _Generic+2
;
; Generic.height = CUBE_HEIGHT;
;
	sta     _Generic+3
;
; if(Cube.vel_x < 0){
;
	ldx     _Cube+4+1
	cpx     #$80
	bcc     L0005
;
; if(bg_coll_L() ){ // check collision left
;
	jsr     _bg_coll_L
	tax
	beq     L000C
;
; high_byte(Cube.x) = high_byte(Cube.x) - eject_L;
;
	lda     _Cube+1
	sec
	sbc     _eject_L
	sta     _Cube+1
;
; Cube.vel_x = 0;
;
	lda     #$00
	sta     _Cube+4
	sta     _Cube+4+1
;
; if(Cube.x > 0xf000) {
;
	lda     _Cube
	cmp     #$01
	lda     _Cube+1
	sbc     #$F0
	bcc     L000C
;
; Cube.x = 0xf000;
;
	ldx     #$F0
;
; else if(Cube.vel_x > 0){
;
	jmp     L0030
L0005:	lda     _Cube+4
	cmp     #$01
	lda     _Cube+4+1
	sbc     #$00
	bvs     L000A
	eor     #$80
L000A:	bpl     L000C
;
; if(bg_coll_R() ){ // check collision right
;
	jsr     _bg_coll_R
	tax
	beq     L000C
;
; high_byte(Cube.x) = high_byte(Cube.x) - eject_R;
;
	lda     _Cube+1
	sec
	sbc     _eject_R
	sta     _Cube+1
;
; Cube.vel_x = 0;
;
	lda     #$00
	sta     _Cube+4
	sta     _Cube+4+1
;
; if(Cube.x > 0xf000) {
;
	lda     _Cube
	cmp     #$01
	lda     _Cube+1
	sbc     #$F0
	bcc     L000C
;
; Cube.x = 0x0000;
;
	ldx     #$00
L0030:	lda     #$00
	sta     _Cube
	stx     _Cube+1
;
; orbjump();
;
L000C:	jsr     _orbjump
;
; padjump();
;
	jsr     _padjump
;
; if(Cube.vel_y < SHIP_MAX_FALLSPEED) Cube.vel_y += SHIP_GRAVITY;
;
	lda     _Cube+6
	cmp     #$00
	lda     _Cube+6+1
	sbc     #$03
	bvc     L000E
	eor     #$80
L000E:	bpl     L000D
	lda     #$36
	clc
	adc     _Cube+6
	sta     _Cube+6
	bcc     L0010
	inc     _Cube+6+1
;
; else Cube.vel_y = SHIP_MAX_FALLSPEED; // consistent
;
	jmp     L0010
L000D:	ldx     #$03
	lda     #$00
	sta     _Cube+6
	stx     _Cube+6+1
;
; if(Cube.vel_y > SHIP_MAX_GOUPSPEED) {}
;
L0010:	lda     _Cube+6
	cmp     #$01
	lda     _Cube+6+1
	sbc     #$FD
	bvs     L0012
	eor     #$80
;
; else Cube.vel_y = SHIP_MAX_GOUPSPEED; // consistent
;
L0012:	bmi     L0013
	ldx     #$FD
	lda     #$00
	sta     _Cube+6
	stx     _Cube+6+1
;
; Cube.y += Cube.vel_y;
;
L0013:	lda     _Cube+6
	clc
	adc     _Cube+2
	sta     _Cube+2
	lda     _Cube+6+1
	adc     _Cube+2+1
	sta     _Cube+2+1
;
; Generic.x = high_byte(Cube.x);
;
	lda     _Cube+1
	sta     _Generic
;
; Generic.y = high_byte(Cube.y);
;
	lda     _Cube+3
	sta     _Generic+1
;
; if(Cube.vel_y > 0){
;
	lda     _Cube+6
	cmp     #$01
	lda     _Cube+6+1
	sbc     #$00
	bvs     L0015
	eor     #$80
L0015:	bpl     L0014
;
; if(bg_coll_D()){ // check collision below
;
	jsr     _bg_coll_D
	tax
	beq     L002B
;
; high_byte(Cube.y) = high_byte(Cube.y) - eject_D;
;
	lda     _Cube+3
	sec
	sbc     _eject_D
;
; else if(Cube.vel_y < 0){
;
	jmp     L0032
L0014:	ldx     _Cube+6+1
	cpx     #$80
	bcc     L002B
;
; if(bg_coll_U()){ // check collision above
;
	jsr     _bg_coll_U
	tax
	beq     L002B
;
; high_byte(Cube.y) = high_byte(Cube.y) - eject_U;
;
	lda     _Cube+3
	sec
	sbc     _eject_U
L0032:	sta     _Cube+3
;
; Cube.vel_y = 0;
;
	lda     #$00
	sta     _Cube+6
	sta     _Cube+6+1
;
; if(pad1 & PAD_A) {
;
L002B:	lda     _pad1
	and     #$80
	beq     L001A
;
; Cube.vel_y -= SHIP_GRAVITY; // fly
;
	lda     _Cube+6
	sec
	sbc     #$36
	sta     _Cube+6
	bcs     L001B
	dec     _Cube+6+1
;
; Cube.vel_y -= SHIP_GRAVITY;
;
L001B:	lda     _Cube+6
	sec
	sbc     #$36
	sta     _Cube+6
	bcs     L001A
	dec     _Cube+6+1
;
; if((scroll_x & 0xff) < 4){
;
L001A:	lda     _scroll_x
	cmp     #$04
	bcs     L002C
;
; if(!map_loaded){
;
	lda     _map_loaded
	bne     L0020
;
; new_cmap();
;
	jsr     _new_cmap
;
; map_loaded = 1; // only do once
;
	lda     #$01
;
; else{
;
	jmp     L0027
;
; map_loaded = 0;
;
L002C:	lda     #$00
L0027:	sta     _map_loaded
;
; temp5 = Cube.x;
;
L0020:	lda     _Cube+1
	sta     _temp5+1
	lda     _Cube
	sta     _temp5
;
; if (Cube.x > MAX_RIGHT){
;
	lda     _Cube
	cmp     #$01
	lda     _Cube+1
	sbc     #$60
	bcc     L0021
;
; temp1 = (Cube.x - MAX_RIGHT) >> 8;
;
	lda     _Cube+1
	sec
	sbc     #$60
	sta     _temp1
;
; if (temp1 > 3) temp1 = 3; // max scroll change
;
	cmp     #$04
	bcc     L002D
	lda     #$03
	sta     _temp1
;
; scroll_x += temp1;
;
L002D:	lda     _temp1
	clc
	adc     _scroll_x
	sta     _scroll_x
	lda     #$00
	adc     _scroll_x+1
	sta     _scroll_x+1
;
; high_byte(Cube.x) = high_byte(Cube.x) - temp1;
;
	lda     _Cube+1
	sec
	sbc     _temp1
	sta     _Cube+1
;
; if(scroll_x >= MAX_SCROLL) {
;
L0021:	lda     _scroll_x
	cmp     #$FF
	lda     _scroll_x+1
	sbc     #$3E
	bcc     L0023
;
; scroll_x = MAX_SCROLL; // stop scrolling right, end of level
;
	ldx     #$3E
	lda     #$FF
	sta     _scroll_x
	stx     _scroll_x+1
;
; reset_level();
;
	jmp     _reset_level
;
; } 
;
L0023:	rts

.endproc

; ---------------------------------------------------------------
; void __near__ main (void)
; ---------------------------------------------------------------

.segment	"CODE"

.proc	_main: near

.segment	"CODE"

;
; ppu_off(); // screen off
;
	jsr     _ppu_off
;
; ppu_mask(0x00);
;
	lda     #$00
	jsr     _ppu_mask
;
; pal_bg(palette_bg);
;
	lda     #<(_palette_bg)
	ldx     #>(_palette_bg)
	jsr     _pal_bg
;
; pal_spr(palette_sp);
;
	lda     #<(_palette_sp)
	ldx     #>(_palette_sp)
	jsr     _pal_spr
;
; bank_spr(1);
;
	lda     #$01
	jsr     _bank_spr
;
; set_vram_buffer(); // do at least once
;
	jsr     _set_vram_buffer
;
; load_room();
;
	jsr     _load_room
;
; song = 0;
;
	lda     #$00
	sta     _song
;
; music_play(song);
;
	jsr     _music_play
;
; ppu_on_all(); // turn on screen
;
	jsr     _ppu_on_all
;
; gamemode = 0x01;
;
	lda     #$01
	sta     _gamemode
;
; cube_rotate = 0x80;
;
	ldx     #$00
	lda     #$80
	sta     _cube_rotate
	stx     _cube_rotate+1
;
; ppu_wait_nmi(); // wait till beginning of the frame
;
L0002:	jsr     _ppu_wait_nmi
;
; pad1 = pad_poll(0); // read the first controller
;
	lda     #$00
	jsr     _pad_poll
	sta     _pad1
;
; pad1_new = get_pad_new(0);
;
	lda     #$00
	jsr     _get_pad_new
	sta     _pad1_new
;
; if (gamemode & 0x01) cube_movement();
;
	lda     _gamemode
	and     #$01
	beq     L0008
	jsr     _cube_movement
;
; else if (gamemode & 0x02) ship_movement();
;
	jmp     L0007
L0008:	lda     _gamemode
	and     #$02
	beq     L0007
	jsr     _ship_movement
;
; check_spr_objects(); // see which objects are on screen
;
L0007:	jsr     _check_spr_objects
;
; sprite_collisions();
;
	jsr     _sprite_collisions
;
; bg_coll_death();
;
	jsr     _bg_coll_death
;
; set_scroll_x(scroll_x);
;
	lda     _scroll_x
	ldx     _scroll_x+1
	jsr     _set_scroll_x
;
; set_scroll_y(scroll_y);
;
	lda     _scroll_y
	ldx     _scroll_y+1
	jsr     _set_scroll_y
;
; draw_screen_R();
;
	jsr     _draw_screen_R
;
; draw_sprites();
;
	jsr     _draw_sprites
;
; gray_line();
;
	jsr     _gray_line
;
; while (1){
;
	jmp     L0002

.endproc

