;
; File generated by cc65 v 2.18 - Git c0a873e
;
	.fopt		compiler,"cc65 v 2.18 - Git c0a873e"
	.setcpu		"6502"
	.smart		on
	.autoimport	on
	.case		on
	.debuginfo	off
	.importzp	sp, sreg, regsave, regbank
	.importzp	tmp1, tmp2, tmp3, tmp4, ptr1, ptr2, ptr3, ptr4
	.macpack	longbranch
	.forceimport	__STARTUP__
	.import		_pal_bg
	.import		_pal_spr
	.import		_ppu_wait_nmi
	.import		_ppu_off
	.import		_ppu_on_all
	.import		_oam_clear
	.import		_oam_meta_spr
	.import		_pad_poll
	.import		_bank_spr
	.import		_memcpy
	.import		_set_vram_buffer
	.import		_get_pad_new
	.import		_set_scroll_x
	.import		_set_scroll_y
	.import		_get_ppu_addr
	.import		_set_data_pointer
	.import		_set_mt_pointer
	.import		_buffer_4_mt
	.import		_flush_vram_update2
	.export		_RoundSprL
	.export		_RoundSprR
	.export		_pad1
	.export		_pad1_new
	.export		_collision
	.export		_collision_L
	.export		_collision_R
	.export		_collision_U
	.export		_collision_D
	.export		_coordinates
	.export		_temp1
	.export		_temp2
	.export		_temp3
	.export		_temp4
	.export		_temp5
	.export		_temp6
	.export		_eject_L
	.export		_eject_R
	.export		_eject_D
	.export		_eject_U
	.export		_direction
	.export		_address
	.export		_x
	.export		_y
	.export		_nt
	.export		_index
	.export		_room
	.export		_map
	.export		_scroll_x
	.export		_scroll_y
	.export		_scroll_count
	.export		_pseudo_scroll_x
	.export		_L_R_switch
	.export		_old_x
	.export		_temp_x
	.export		_temp_y
	.export		_map_loaded
	.export		_temp_room
	.export		_c_map
	.export		_c_map2
	.export		_Generic
	.export		_Cube
	.export		_palette_bg
	.export		_palette_sp
	.export		_metatiles1
	.export		_is_solid
	.export		_Room1
	.export		_Room2
	.export		_Room3
	.export		_Room4
	.export		_Room5
	.export		_Rooms
	.export		_load_room
	.export		_draw_sprites
	.export		_movement
	.export		_draw_screen_R
	.export		_new_cmap
	.export		_bg_collision_sub
	.export		_bg_coll_L
	.export		_bg_coll_R
	.export		_bg_coll_U
	.export		_bg_coll_D
	.export		_bg_coll_D2
	.export		_main

.segment	"DATA"

_Cube:
	.word	$4000
	.word	$C400
	.res	4,$00

.segment	"RODATA"

_RoundSprL:
	.byte	$FF
	.byte	$FC
	.byte	$02
	.byte	$00
	.byte	$07
	.byte	$FC
	.byte	$03
	.byte	$00
	.byte	$FF
	.byte	$04
	.byte	$12
	.byte	$00
	.byte	$07
	.byte	$04
	.byte	$13
	.byte	$00
	.byte	$80
_RoundSprR:
	.byte	$FF
	.byte	$FC
	.byte	$00
	.byte	$00
	.byte	$07
	.byte	$FC
	.byte	$01
	.byte	$00
	.byte	$FF
	.byte	$04
	.byte	$10
	.byte	$00
	.byte	$07
	.byte	$04
	.byte	$11
	.byte	$00
	.byte	$80
_palette_bg:
	.byte	$22
	.byte	$16
	.byte	$36
	.byte	$0F
	.byte	$00
	.byte	$08
	.byte	$18
	.byte	$39
	.byte	$00
	.byte	$00
	.byte	$10
	.byte	$20
	.byte	$00
	.byte	$0A
	.byte	$1A
	.byte	$2A
_palette_sp:
	.byte	$22
	.byte	$01
	.byte	$11
	.byte	$10
	.byte	$22
	.byte	$17
	.byte	$28
	.byte	$38
	.byte	$22
	.byte	$05
	.byte	$15
	.byte	$35
	.byte	$22
	.byte	$0F
	.byte	$00
	.byte	$30
_metatiles1:
	.byte	$00
	.byte	$00
	.byte	$00
	.byte	$00
	.byte	$00
	.byte	$02
	.byte	$02
	.byte	$02
	.byte	$02
	.byte	$03
	.byte	$14
	.byte	$14
	.byte	$14
	.byte	$14
	.byte	$00
	.byte	$05
	.byte	$06
	.byte	$15
	.byte	$16
	.byte	$01
	.byte	$06
	.byte	$06
	.byte	$16
	.byte	$16
	.byte	$01
	.byte	$06
	.byte	$07
	.byte	$16
	.byte	$17
	.byte	$01
	.byte	$15
	.byte	$16
	.byte	$15
	.byte	$16
	.byte	$01
	.byte	$16
	.byte	$16
	.byte	$16
	.byte	$16
	.byte	$01
	.byte	$16
	.byte	$17
	.byte	$16
	.byte	$17
	.byte	$01
	.byte	$08
	.byte	$09
	.byte	$18
	.byte	$19
	.byte	$01
	.byte	$09
	.byte	$09
	.byte	$19
	.byte	$19
	.byte	$01
	.byte	$09
	.byte	$0A
	.byte	$19
	.byte	$1A
	.byte	$01
_is_solid:
	.byte	$00
	.byte	$80
	.byte	$C0
	.byte	$80
	.byte	$80
	.byte	$80
	.byte	$00
	.byte	$00
	.byte	$00
	.byte	$00
	.byte	$00
	.byte	$00
_Room1:
	.byte	$00
	.byte	$00
	.byte	$00
	.byte	$00
	.byte	$00
	.byte	$00
	.byte	$00
	.byte	$00
	.byte	$00
	.byte	$00
	.byte	$00
	.byte	$00
	.byte	$00
	.byte	$00
	.byte	$00
	.byte	$00
	.byte	$00
	.byte	$00
	.byte	$00
	.byte	$00
	.byte	$00
	.byte	$00
	.byte	$00
	.byte	$00
	.byte	$00
	.byte	$00
	.byte	$00
	.byte	$00
	.byte	$00
	.byte	$00
	.byte	$00
	.byte	$00
	.byte	$00
	.byte	$00
	.byte	$00
	.byte	$00
	.byte	$00
	.byte	$00
	.byte	$00
	.byte	$00
	.byte	$00
	.byte	$00
	.byte	$00
	.byte	$00
	.byte	$00
	.byte	$00
	.byte	$00
	.byte	$00
	.byte	$00
	.byte	$00
	.byte	$00
	.byte	$00
	.byte	$00
	.byte	$00
	.byte	$00
	.byte	$00
	.byte	$00
	.byte	$00
	.byte	$00
	.byte	$00
	.byte	$00
	.byte	$00
	.byte	$00
	.byte	$00
	.byte	$00
	.byte	$00
	.byte	$00
	.byte	$00
	.byte	$00
	.byte	$00
	.byte	$00
	.byte	$00
	.byte	$00
	.byte	$00
	.byte	$00
	.byte	$00
	.byte	$00
	.byte	$00
	.byte	$00
	.byte	$00
	.byte	$00
	.byte	$00
	.byte	$00
	.byte	$00
	.byte	$00
	.byte	$00
	.byte	$00
	.byte	$00
	.byte	$00
	.byte	$00
	.byte	$00
	.byte	$00
	.byte	$00
	.byte	$00
	.byte	$00
	.byte	$00
	.byte	$00
	.byte	$00
	.byte	$00
	.byte	$00
	.byte	$00
	.byte	$00
	.byte	$00
	.byte	$02
	.byte	$00
	.byte	$00
	.byte	$00
	.byte	$00
	.byte	$00
	.byte	$00
	.byte	$00
	.byte	$00
	.byte	$00
	.byte	$00
	.byte	$00
	.byte	$00
	.byte	$00
	.byte	$00
	.byte	$02
	.byte	$02
	.byte	$00
	.byte	$00
	.byte	$00
	.byte	$00
	.byte	$00
	.byte	$00
	.byte	$00
	.byte	$00
	.byte	$00
	.byte	$00
	.byte	$00
	.byte	$00
	.byte	$00
	.byte	$00
	.byte	$00
	.byte	$02
	.byte	$00
	.byte	$00
	.byte	$00
	.byte	$00
	.byte	$00
	.byte	$00
	.byte	$00
	.byte	$00
	.byte	$00
	.byte	$00
	.byte	$00
	.byte	$00
	.byte	$00
	.byte	$00
	.byte	$00
	.byte	$02
	.byte	$00
	.byte	$00
	.byte	$00
	.byte	$00
	.byte	$00
	.byte	$00
	.byte	$00
	.byte	$00
	.byte	$00
	.byte	$00
	.byte	$00
	.byte	$00
	.byte	$00
	.byte	$00
	.byte	$02
	.byte	$02
	.byte	$02
	.byte	$00
	.byte	$00
	.byte	$00
	.byte	$00
	.byte	$00
	.byte	$00
	.byte	$00
	.byte	$00
	.byte	$00
	.byte	$00
	.byte	$00
	.byte	$00
	.byte	$03
	.byte	$04
	.byte	$04
	.byte	$04
	.byte	$05
	.byte	$00
	.byte	$00
	.byte	$00
	.byte	$00
	.byte	$00
	.byte	$00
	.byte	$00
	.byte	$00
	.byte	$00
	.byte	$00
	.byte	$00
	.byte	$09
	.byte	$0A
	.byte	$0A
	.byte	$0A
	.byte	$0B
	.byte	$00
	.byte	$00
	.byte	$00
	.byte	$00
	.byte	$00
	.byte	$00
	.byte	$01
	.byte	$01
	.byte	$01
	.byte	$01
	.byte	$01
	.byte	$01
	.byte	$01
	.byte	$01
	.byte	$01
	.byte	$01
	.byte	$01
	.byte	$01
	.byte	$01
	.byte	$01
	.byte	$01
	.byte	$01
	.byte	$01
	.byte	$01
	.byte	$01
	.byte	$01
	.byte	$01
	.byte	$01
	.byte	$01
	.byte	$01
	.byte	$01
	.byte	$01
	.byte	$01
	.byte	$01
	.byte	$01
	.byte	$01
	.byte	$01
	.byte	$01
_Room2:
	.byte	$00
	.byte	$00
	.byte	$00
	.byte	$00
	.byte	$00
	.byte	$00
	.byte	$00
	.byte	$00
	.byte	$00
	.byte	$00
	.byte	$00
	.byte	$00
	.byte	$00
	.byte	$00
	.byte	$00
	.byte	$00
	.byte	$00
	.byte	$00
	.byte	$00
	.byte	$00
	.byte	$00
	.byte	$00
	.byte	$00
	.byte	$00
	.byte	$00
	.byte	$00
	.byte	$00
	.byte	$00
	.byte	$00
	.byte	$00
	.byte	$00
	.byte	$00
	.byte	$00
	.byte	$00
	.byte	$00
	.byte	$00
	.byte	$00
	.byte	$00
	.byte	$00
	.byte	$00
	.byte	$00
	.byte	$00
	.byte	$00
	.byte	$00
	.byte	$00
	.byte	$00
	.byte	$00
	.byte	$00
	.byte	$00
	.byte	$00
	.byte	$00
	.byte	$00
	.byte	$00
	.byte	$00
	.byte	$00
	.byte	$00
	.byte	$00
	.byte	$00
	.byte	$00
	.byte	$00
	.byte	$00
	.byte	$00
	.byte	$00
	.byte	$00
	.byte	$00
	.byte	$00
	.byte	$00
	.byte	$00
	.byte	$00
	.byte	$00
	.byte	$02
	.byte	$02
	.byte	$00
	.byte	$00
	.byte	$00
	.byte	$00
	.byte	$00
	.byte	$00
	.byte	$00
	.byte	$00
	.byte	$00
	.byte	$00
	.byte	$00
	.byte	$00
	.byte	$00
	.byte	$02
	.byte	$00
	.byte	$00
	.byte	$02
	.byte	$00
	.byte	$00
	.byte	$00
	.byte	$00
	.byte	$00
	.byte	$00
	.byte	$00
	.byte	$00
	.byte	$00
	.byte	$00
	.byte	$00
	.byte	$00
	.byte	$00
	.byte	$00
	.byte	$00
	.byte	$02
	.byte	$00
	.byte	$00
	.byte	$00
	.byte	$00
	.byte	$00
	.byte	$00
	.byte	$00
	.byte	$00
	.byte	$00
	.byte	$00
	.byte	$00
	.byte	$00
	.byte	$00
	.byte	$00
	.byte	$02
	.byte	$00
	.byte	$00
	.byte	$00
	.byte	$00
	.byte	$00
	.byte	$00
	.byte	$00
	.byte	$00
	.byte	$00
	.byte	$00
	.byte	$00
	.byte	$00
	.byte	$00
	.byte	$00
	.byte	$02
	.byte	$00
	.byte	$00
	.byte	$00
	.byte	$00
	.byte	$00
	.byte	$00
	.byte	$00
	.byte	$00
	.byte	$00
	.byte	$00
	.byte	$00
	.byte	$00
	.byte	$00
	.byte	$00
	.byte	$02
	.byte	$02
	.byte	$02
	.byte	$02
	.byte	$00
	.byte	$00
	.byte	$00
	.byte	$00
	.byte	$00
	.byte	$00
	.byte	$00
	.byte	$00
	.byte	$00
	.byte	$00
	.byte	$00
	.byte	$00
	.byte	$03
	.byte	$04
	.byte	$04
	.byte	$04
	.byte	$05
	.byte	$00
	.byte	$00
	.byte	$00
	.byte	$00
	.byte	$00
	.byte	$00
	.byte	$00
	.byte	$00
	.byte	$00
	.byte	$00
	.byte	$00
	.byte	$06
	.byte	$07
	.byte	$07
	.byte	$07
	.byte	$08
	.byte	$00
	.byte	$00
	.byte	$00
	.byte	$00
	.byte	$00
	.byte	$00
	.byte	$00
	.byte	$00
	.byte	$00
	.byte	$00
	.byte	$03
	.byte	$04
	.byte	$05
	.byte	$0A
	.byte	$0A
	.byte	$0B
	.byte	$00
	.byte	$00
	.byte	$00
	.byte	$00
	.byte	$00
	.byte	$00
	.byte	$01
	.byte	$01
	.byte	$01
	.byte	$01
	.byte	$01
	.byte	$01
	.byte	$01
	.byte	$01
	.byte	$01
	.byte	$01
	.byte	$01
	.byte	$01
	.byte	$01
	.byte	$01
	.byte	$01
	.byte	$01
	.byte	$01
	.byte	$01
	.byte	$01
	.byte	$01
	.byte	$01
	.byte	$01
	.byte	$01
	.byte	$01
	.byte	$01
	.byte	$01
	.byte	$01
	.byte	$01
	.byte	$01
	.byte	$01
	.byte	$01
	.byte	$01
_Room3:
	.byte	$00
	.byte	$00
	.byte	$00
	.byte	$00
	.byte	$00
	.byte	$00
	.byte	$00
	.byte	$00
	.byte	$00
	.byte	$00
	.byte	$00
	.byte	$00
	.byte	$00
	.byte	$00
	.byte	$00
	.byte	$00
	.byte	$00
	.byte	$00
	.byte	$00
	.byte	$00
	.byte	$00
	.byte	$00
	.byte	$00
	.byte	$00
	.byte	$00
	.byte	$00
	.byte	$00
	.byte	$00
	.byte	$00
	.byte	$00
	.byte	$00
	.byte	$00
	.byte	$00
	.byte	$00
	.byte	$00
	.byte	$00
	.byte	$00
	.byte	$00
	.byte	$00
	.byte	$00
	.byte	$00
	.byte	$00
	.byte	$00
	.byte	$00
	.byte	$00
	.byte	$00
	.byte	$00
	.byte	$00
	.byte	$00
	.byte	$00
	.byte	$00
	.byte	$00
	.byte	$00
	.byte	$00
	.byte	$00
	.byte	$00
	.byte	$00
	.byte	$00
	.byte	$00
	.byte	$00
	.byte	$00
	.byte	$00
	.byte	$00
	.byte	$00
	.byte	$00
	.byte	$00
	.byte	$00
	.byte	$00
	.byte	$00
	.byte	$00
	.byte	$00
	.byte	$00
	.byte	$00
	.byte	$00
	.byte	$00
	.byte	$00
	.byte	$00
	.byte	$00
	.byte	$00
	.byte	$00
	.byte	$00
	.byte	$00
	.byte	$00
	.byte	$00
	.byte	$00
	.byte	$00
	.byte	$00
	.byte	$00
	.byte	$00
	.byte	$00
	.byte	$00
	.byte	$00
	.byte	$00
	.byte	$00
	.byte	$00
	.byte	$00
	.byte	$00
	.byte	$00
	.byte	$00
	.byte	$00
	.byte	$00
	.byte	$00
	.byte	$02
	.byte	$02
	.byte	$00
	.byte	$00
	.byte	$00
	.byte	$00
	.byte	$00
	.byte	$00
	.byte	$00
	.byte	$00
	.byte	$00
	.byte	$00
	.byte	$00
	.byte	$00
	.byte	$00
	.byte	$00
	.byte	$00
	.byte	$00
	.byte	$02
	.byte	$00
	.byte	$00
	.byte	$00
	.byte	$00
	.byte	$00
	.byte	$00
	.byte	$00
	.byte	$00
	.byte	$00
	.byte	$00
	.byte	$00
	.byte	$00
	.byte	$00
	.byte	$00
	.byte	$00
	.byte	$02
	.byte	$00
	.byte	$00
	.byte	$00
	.byte	$00
	.byte	$00
	.byte	$00
	.byte	$00
	.byte	$00
	.byte	$00
	.byte	$00
	.byte	$00
	.byte	$03
	.byte	$04
	.byte	$02
	.byte	$02
	.byte	$04
	.byte	$04
	.byte	$05
	.byte	$00
	.byte	$00
	.byte	$00
	.byte	$00
	.byte	$00
	.byte	$00
	.byte	$00
	.byte	$00
	.byte	$00
	.byte	$06
	.byte	$07
	.byte	$07
	.byte	$07
	.byte	$02
	.byte	$07
	.byte	$08
	.byte	$00
	.byte	$00
	.byte	$00
	.byte	$00
	.byte	$00
	.byte	$00
	.byte	$00
	.byte	$03
	.byte	$04
	.byte	$06
	.byte	$07
	.byte	$07
	.byte	$07
	.byte	$02
	.byte	$07
	.byte	$08
	.byte	$00
	.byte	$00
	.byte	$00
	.byte	$00
	.byte	$00
	.byte	$00
	.byte	$00
	.byte	$09
	.byte	$0A
	.byte	$06
	.byte	$07
	.byte	$02
	.byte	$02
	.byte	$07
	.byte	$07
	.byte	$08
	.byte	$00
	.byte	$00
	.byte	$00
	.byte	$00
	.byte	$00
	.byte	$01
	.byte	$01
	.byte	$01
	.byte	$01
	.byte	$01
	.byte	$01
	.byte	$01
	.byte	$01
	.byte	$01
	.byte	$01
	.byte	$01
	.byte	$01
	.byte	$01
	.byte	$01
	.byte	$01
	.byte	$01
	.byte	$01
	.byte	$01
	.byte	$01
	.byte	$01
	.byte	$01
	.byte	$01
	.byte	$01
	.byte	$01
	.byte	$01
	.byte	$01
	.byte	$01
	.byte	$01
	.byte	$01
	.byte	$01
	.byte	$01
	.byte	$01
_Room4:
	.byte	$00
	.byte	$00
	.byte	$00
	.byte	$00
	.byte	$00
	.byte	$00
	.byte	$00
	.byte	$00
	.byte	$00
	.byte	$00
	.byte	$00
	.byte	$00
	.byte	$00
	.byte	$00
	.byte	$00
	.byte	$00
	.byte	$00
	.byte	$00
	.byte	$00
	.byte	$00
	.byte	$00
	.byte	$00
	.byte	$00
	.byte	$00
	.byte	$00
	.byte	$00
	.byte	$00
	.byte	$00
	.byte	$00
	.byte	$00
	.byte	$00
	.byte	$00
	.byte	$00
	.byte	$00
	.byte	$00
	.byte	$00
	.byte	$00
	.byte	$00
	.byte	$00
	.byte	$00
	.byte	$00
	.byte	$00
	.byte	$00
	.byte	$00
	.byte	$00
	.byte	$00
	.byte	$00
	.byte	$00
	.byte	$00
	.byte	$00
	.byte	$00
	.byte	$00
	.byte	$00
	.byte	$00
	.byte	$00
	.byte	$00
	.byte	$00
	.byte	$00
	.byte	$00
	.byte	$00
	.byte	$00
	.byte	$00
	.byte	$00
	.byte	$00
	.byte	$00
	.byte	$00
	.byte	$00
	.byte	$00
	.byte	$00
	.byte	$00
	.byte	$00
	.byte	$00
	.byte	$00
	.byte	$00
	.byte	$00
	.byte	$00
	.byte	$00
	.byte	$00
	.byte	$00
	.byte	$00
	.byte	$00
	.byte	$00
	.byte	$00
	.byte	$00
	.byte	$00
	.byte	$00
	.byte	$00
	.byte	$00
	.byte	$00
	.byte	$00
	.byte	$00
	.byte	$00
	.byte	$00
	.byte	$00
	.byte	$00
	.byte	$00
	.byte	$00
	.byte	$00
	.byte	$00
	.byte	$00
	.byte	$00
	.byte	$00
	.byte	$02
	.byte	$00
	.byte	$00
	.byte	$00
	.byte	$00
	.byte	$00
	.byte	$00
	.byte	$00
	.byte	$00
	.byte	$00
	.byte	$00
	.byte	$00
	.byte	$00
	.byte	$00
	.byte	$00
	.byte	$00
	.byte	$02
	.byte	$00
	.byte	$02
	.byte	$00
	.byte	$00
	.byte	$00
	.byte	$00
	.byte	$00
	.byte	$00
	.byte	$00
	.byte	$00
	.byte	$00
	.byte	$00
	.byte	$00
	.byte	$00
	.byte	$00
	.byte	$02
	.byte	$02
	.byte	$02
	.byte	$00
	.byte	$00
	.byte	$00
	.byte	$00
	.byte	$00
	.byte	$00
	.byte	$00
	.byte	$00
	.byte	$00
	.byte	$00
	.byte	$00
	.byte	$00
	.byte	$00
	.byte	$00
	.byte	$00
	.byte	$02
	.byte	$00
	.byte	$00
	.byte	$00
	.byte	$00
	.byte	$00
	.byte	$00
	.byte	$00
	.byte	$00
	.byte	$00
	.byte	$00
	.byte	$00
	.byte	$03
	.byte	$04
	.byte	$04
	.byte	$04
	.byte	$02
	.byte	$04
	.byte	$04
	.byte	$05
	.byte	$00
	.byte	$00
	.byte	$00
	.byte	$00
	.byte	$00
	.byte	$00
	.byte	$00
	.byte	$00
	.byte	$06
	.byte	$07
	.byte	$07
	.byte	$07
	.byte	$02
	.byte	$07
	.byte	$07
	.byte	$08
	.byte	$00
	.byte	$00
	.byte	$00
	.byte	$00
	.byte	$00
	.byte	$00
	.byte	$02
	.byte	$00
	.byte	$09
	.byte	$0A
	.byte	$0A
	.byte	$0A
	.byte	$0A
	.byte	$0A
	.byte	$0A
	.byte	$0B
	.byte	$00
	.byte	$00
	.byte	$00
	.byte	$00
	.byte	$01
	.byte	$01
	.byte	$01
	.byte	$01
	.byte	$01
	.byte	$01
	.byte	$01
	.byte	$01
	.byte	$01
	.byte	$01
	.byte	$01
	.byte	$01
	.byte	$01
	.byte	$01
	.byte	$01
	.byte	$01
	.byte	$01
	.byte	$01
	.byte	$01
	.byte	$01
	.byte	$01
	.byte	$01
	.byte	$01
	.byte	$01
	.byte	$01
	.byte	$01
	.byte	$01
	.byte	$01
	.byte	$01
	.byte	$01
	.byte	$01
	.byte	$01
_Room5:
	.byte	$00
	.byte	$00
	.byte	$00
	.byte	$00
	.byte	$00
	.byte	$00
	.byte	$00
	.byte	$00
	.byte	$00
	.byte	$00
	.byte	$00
	.byte	$00
	.byte	$00
	.byte	$00
	.byte	$00
	.byte	$00
	.byte	$00
	.byte	$00
	.byte	$00
	.byte	$00
	.byte	$00
	.byte	$00
	.byte	$00
	.byte	$00
	.byte	$00
	.byte	$00
	.byte	$00
	.byte	$00
	.byte	$00
	.byte	$00
	.byte	$00
	.byte	$00
	.byte	$00
	.byte	$00
	.byte	$00
	.byte	$00
	.byte	$00
	.byte	$00
	.byte	$02
	.byte	$02
	.byte	$02
	.byte	$00
	.byte	$00
	.byte	$00
	.byte	$00
	.byte	$00
	.byte	$00
	.byte	$00
	.byte	$00
	.byte	$00
	.byte	$00
	.byte	$00
	.byte	$00
	.byte	$00
	.byte	$02
	.byte	$00
	.byte	$00
	.byte	$00
	.byte	$00
	.byte	$00
	.byte	$00
	.byte	$00
	.byte	$00
	.byte	$00
	.byte	$00
	.byte	$00
	.byte	$00
	.byte	$00
	.byte	$00
	.byte	$00
	.byte	$02
	.byte	$02
	.byte	$00
	.byte	$00
	.byte	$00
	.byte	$00
	.byte	$00
	.byte	$00
	.byte	$00
	.byte	$00
	.byte	$00
	.byte	$00
	.byte	$00
	.byte	$00
	.byte	$00
	.byte	$00
	.byte	$00
	.byte	$00
	.byte	$02
	.byte	$00
	.byte	$00
	.byte	$00
	.byte	$00
	.byte	$00
	.byte	$00
	.byte	$00
	.byte	$00
	.byte	$00
	.byte	$00
	.byte	$00
	.byte	$00
	.byte	$00
	.byte	$02
	.byte	$02
	.byte	$00
	.byte	$00
	.byte	$00
	.byte	$00
	.byte	$00
	.byte	$00
	.byte	$00
	.byte	$00
	.byte	$00
	.byte	$00
	.byte	$00
	.byte	$00
	.byte	$00
	.byte	$00
	.byte	$00
	.byte	$00
	.byte	$00
	.byte	$00
	.byte	$00
	.byte	$02
	.byte	$02
	.byte	$00
	.byte	$00
	.byte	$00
	.byte	$00
	.byte	$00
	.byte	$00
	.byte	$00
	.byte	$00
	.byte	$00
	.byte	$00
	.byte	$00
	.byte	$00
	.byte	$00
	.byte	$00
	.byte	$02
	.byte	$02
	.byte	$00
	.byte	$00
	.byte	$00
	.byte	$00
	.byte	$00
	.byte	$00
	.byte	$00
	.byte	$00
	.byte	$00
	.byte	$00
	.byte	$00
	.byte	$00
	.byte	$03
	.byte	$04
	.byte	$04
	.byte	$04
	.byte	$04
	.byte	$05
	.byte	$00
	.byte	$00
	.byte	$00
	.byte	$00
	.byte	$00
	.byte	$00
	.byte	$00
	.byte	$00
	.byte	$00
	.byte	$00
	.byte	$06
	.byte	$07
	.byte	$07
	.byte	$07
	.byte	$07
	.byte	$08
	.byte	$00
	.byte	$00
	.byte	$00
	.byte	$00
	.byte	$00
	.byte	$00
	.byte	$00
	.byte	$00
	.byte	$03
	.byte	$04
	.byte	$04
	.byte	$04
	.byte	$04
	.byte	$05
	.byte	$07
	.byte	$08
	.byte	$00
	.byte	$00
	.byte	$00
	.byte	$00
	.byte	$00
	.byte	$00
	.byte	$00
	.byte	$00
	.byte	$06
	.byte	$07
	.byte	$07
	.byte	$07
	.byte	$07
	.byte	$08
	.byte	$0A
	.byte	$0B
	.byte	$00
	.byte	$01
	.byte	$01
	.byte	$01
	.byte	$01
	.byte	$01
	.byte	$01
	.byte	$01
	.byte	$01
	.byte	$01
	.byte	$01
	.byte	$01
	.byte	$01
	.byte	$01
	.byte	$01
	.byte	$01
	.byte	$01
	.byte	$01
	.byte	$01
	.byte	$01
	.byte	$01
	.byte	$01
	.byte	$01
	.byte	$01
	.byte	$01
	.byte	$01
	.byte	$01
	.byte	$01
	.byte	$01
	.byte	$01
	.byte	$01
	.byte	$01
	.byte	$01
_Rooms:
	.addr	_Room1
	.addr	_Room2
	.addr	_Room3
	.addr	_Room4
	.addr	_Room5

.segment	"BSS"

.segment	"ZEROPAGE"
_pad1:
	.res	1,$00
_pad1_new:
	.res	1,$00
_collision:
	.res	1,$00
_collision_L:
	.res	1,$00
_collision_R:
	.res	1,$00
_collision_U:
	.res	1,$00
_collision_D:
	.res	1,$00
_coordinates:
	.res	1,$00
_temp1:
	.res	1,$00
_temp2:
	.res	1,$00
_temp3:
	.res	1,$00
_temp4:
	.res	1,$00
_temp5:
	.res	2,$00
_temp6:
	.res	2,$00
_eject_L:
	.res	1,$00
_eject_R:
	.res	1,$00
_eject_D:
	.res	1,$00
_eject_U:
	.res	1,$00
_direction:
	.res	1,$00
_address:
	.res	2,$00
_x:
	.res	1,$00
_y:
	.res	1,$00
_nt:
	.res	1,$00
_index:
	.res	1,$00
_room:
	.res	1,$00
_map:
	.res	1,$00
_scroll_x:
	.res	2,$00
_scroll_y:
	.res	2,$00
_scroll_count:
	.res	1,$00
_pseudo_scroll_x:
	.res	2,$00
_L_R_switch:
	.res	1,$00
_old_x:
	.res	2,$00
_temp_x:
	.res	1,$00
_temp_y:
	.res	1,$00
_map_loaded:
	.res	1,$00
_temp_room:
	.res	1,$00
.segment	"BSS"
_c_map:
	.res	240,$00
_c_map2:
	.res	240,$00
_Generic:
	.res	4,$00

; ---------------------------------------------------------------
; void __near__ load_room (void)
; ---------------------------------------------------------------

.segment	"CODE"

.proc	_load_room: near

.segment	"CODE"

;
; set_data_pointer(Rooms[0]);
;
	lda     _Rooms
	ldx     _Rooms+1
	jsr     _set_data_pointer
;
; set_mt_pointer(metatiles1);
;
	lda     #<(_metatiles1)
	ldx     #>(_metatiles1)
	jsr     _set_mt_pointer
;
; for(y=0; ;y+=0x20){
;
	lda     #$00
L07D9:	sta     _y
;
; for(x=0; ;x+=0x20){
;
	lda     #$00
L07D8:	sta     _x
;
; address = get_ppu_addr(0, x, y);
;
	jsr     decsp2
	lda     #$00
	ldy     #$01
	sta     (sp),y
	lda     _x
	dey
	sta     (sp),y
	lda     _y
	jsr     _get_ppu_addr
	sta     _address
	stx     _address+1
;
; index = (y & 0xf0) + (x >> 4);
;
	lda     _y
	and     #$F0
	sta     ptr1
	lda     _x
	lsr     a
	lsr     a
	lsr     a
	lsr     a
	clc
	adc     ptr1
	sta     _index
;
; buffer_4_mt(address, index); // ppu_address, index to the data
;
	lda     _address
	ldx     _address+1
	jsr     pushax
	lda     _index
	jsr     _buffer_4_mt
;
; flush_vram_update2();
;
	jsr     _flush_vram_update2
;
; if (x == 0xe0) break;
;
	lda     _x
	cmp     #$E0
	beq     L07DB
;
; for(x=0; ;x+=0x20){
;
	lda     #$20
	clc
	adc     _x
	jmp     L07D8
;
; if (y == 0xe0) break;
;
L07DB:	lda     _y
	cmp     #$E0
	beq     L056A
;
; for(y=0; ;y+=0x20){
;
	lda     #$20
	clc
	adc     _y
	jmp     L07D9
;
; set_data_pointer(Rooms[1]);
;
L056A:	lda     _Rooms+2
	ldx     _Rooms+2+1
	jsr     _set_data_pointer
;
; for(y=0; ;y+=0x20){
;
	lda     #$00
L07DA:	sta     _y
;
; x = 0;
;
	lda     #$00
	sta     _x
;
; address = get_ppu_addr(1, x, y);
;
	jsr     decsp2
	lda     #$01
	tay
	sta     (sp),y
	lda     _x
	dey
	sta     (sp),y
	lda     _y
	jsr     _get_ppu_addr
	sta     _address
	stx     _address+1
;
; index = (y & 0xf0);
;
	lda     _y
	and     #$F0
	sta     _index
;
; buffer_4_mt(address, index); // ppu_address, index to the data
;
	lda     _address
	ldx     _address+1
	jsr     pushax
	lda     _index
	jsr     _buffer_4_mt
;
; flush_vram_update2();
;
	jsr     _flush_vram_update2
;
; if (y == 0xe0) break;
;
	lda     _y
	cmp     #$E0
	beq     L058E
;
; for(y=0; ;y+=0x20){
;
	lda     #$20
	clc
	adc     _y
	jmp     L07DA
;
; memcpy (c_map, Rooms[0], 240);
;
L058E:	lda     #<(_c_map)
	ldx     #>(_c_map)
	jsr     pushax
	lda     _Rooms
	ldx     _Rooms+1
	jsr     pushax
	ldx     #$00
	lda     #$F0
	jmp     _memcpy

.endproc

; ---------------------------------------------------------------
; void __near__ draw_sprites (void)
; ---------------------------------------------------------------

.segment	"CODE"

.proc	_draw_sprites: near

.segment	"CODE"

;
; oam_clear();
;
	jsr     _oam_clear
;
; temp_x = high_byte(Cube.x);
;
	lda     _Cube+1
	sta     _temp_x
;
; if(temp_x > 0xfc) temp_x = 1;
;
	cmp     #$FD
	bcc     L07DC
	lda     #$01
	sta     _temp_x
;
; if(temp_x == 0) temp_x = 1;
;
L07DC:	lda     _temp_x
	bne     L07DD
	lda     #$01
	sta     _temp_x
;
; if(direction == LEFT) {
;
L07DD:	lda     _direction
	bne     L05B7
;
; oam_meta_spr(temp_x, high_byte(Cube.y), RoundSprL);
;
	jsr     decsp2
	lda     _temp_x
	ldy     #$01
	sta     (sp),y
	lda     _Cube+3
	dey
	sta     (sp),y
	lda     #<(_RoundSprL)
	ldx     #>(_RoundSprL)
	jmp     _oam_meta_spr
;
; oam_meta_spr(temp_x, high_byte(Cube.y), RoundSprR);
;
L05B7:	jsr     decsp2
	lda     _temp_x
	ldy     #$01
	sta     (sp),y
	lda     _Cube+3
	dey
	sta     (sp),y
	lda     #<(_RoundSprR)
	ldx     #>(_RoundSprR)
	jmp     _oam_meta_spr

.endproc

; ---------------------------------------------------------------
; void __near__ movement (void)
; ---------------------------------------------------------------

.segment	"CODE"

.proc	_movement: near

.segment	"CODE"

;
; old_x = Cube.x;
;
	lda     _Cube+1
	sta     _old_x+1
	lda     _Cube
	sta     _old_x
;
; if(pad1 & PAD_LEFT){
;
	lda     _pad1
	and     #$02
	beq     L07E3
;
; direction = LEFT;
;
	lda     #$00
	sta     _direction
;
; if(Cube.vel_x >= DECEL){
;
	lda     _Cube+4
	cmp     #$32
	lda     _Cube+4+1
	sbc     #$00
	bvs     L05CD
	eor     #$80
L05CD:	bpl     L05CB
;
; Cube.vel_x -= DECEL;
;
	lda     _Cube+4
	sec
	sbc     #$32
	sta     _Cube+4
	jcs     L0607
	dec     _Cube+4+1
;
; else if(Cube.vel_x > 0){
;
	jmp     L0607
L05CB:	lda     _Cube+4
	cmp     #$01
	lda     _Cube+4+1
	sbc     #$00
	bvs     L05D4
	eor     #$80
L05D4:	bpl     L05D2
;
; Cube.vel_x = 0;
;
	ldx     #$00
	txa
;
; else {
;
	jmp     L07E5
;
; Cube.vel_x -= ACCEL;
;
L05D2:	lda     _Cube+4
	sec
	sbc     #$1E
	sta     _Cube+4
	bcs     L05DA
	dec     _Cube+4+1
;
; if(Cube.vel_x < -MAX_SPEED) Cube.vel_x = -MAX_SPEED;
;
L05DA:	lda     _Cube+4
	cmp     #$C0
	lda     _Cube+4+1
	sbc     #$FD
	bvc     L05DD
	eor     #$80
L05DD:	jpl     L0607
	ldx     #$FD
	lda     #$C0
;
; else if (pad1 & PAD_RIGHT){
;
	jmp     L07E5
L07E3:	lda     _pad1
	and     #$01
	beq     L05E1
;
; direction = RIGHT;
;
	lda     #$01
	sta     _direction
;
; if(Cube.vel_x <= DECEL){
;
	lda     _Cube+4
	cmp     #$33
	lda     _Cube+4+1
	sbc     #$00
	bvc     L05E7
	eor     #$80
L05E7:	bpl     L05E5
;
; Cube.vel_x += DECEL;
;
	lda     #$32
	clc
	adc     _Cube+4
	sta     _Cube+4
	jcc     L0607
	inc     _Cube+4+1
;
; else if(Cube.vel_x < 0){
;
	jmp     L0607
L05E5:	ldx     _Cube+4+1
	cpx     #$80
	bcc     L05EC
;
; Cube.vel_x = 0;
;
	ldx     #$00
	txa
;
; else {
;
	jmp     L07E5
;
; Cube.vel_x += ACCEL;
;
L05EC:	lda     #$1E
	clc
	adc     _Cube+4
	sta     _Cube+4
	bcc     L05F3
	inc     _Cube+4+1
;
; if(Cube.vel_x >= MAX_SPEED) Cube.vel_x = MAX_SPEED;
;
L05F3:	lda     _Cube+4
	cmp     #$40
	lda     _Cube+4+1
	sbc     #$02
	bvs     L05F6
	eor     #$80
L05F6:	bpl     L0607
	ldx     #$02
	lda     #$40
;
; else { // nothing pressed
;
	jmp     L07E5
;
; if(Cube.vel_x >= ACCEL) Cube.vel_x -= ACCEL;
;
L05E1:	lda     _Cube+4
	cmp     #$1E
	lda     _Cube+4+1
	sbc     #$00
	bvs     L05FC
	eor     #$80
L05FC:	bpl     L05FA
	lda     _Cube+4
	sec
	sbc     #$1E
	sta     _Cube+4
	bcs     L0607
	dec     _Cube+4+1
;
; else if(Cube.vel_x < -ACCEL) Cube.vel_x += ACCEL;
;
	jmp     L0607
L05FA:	lda     _Cube+4
	cmp     #$E2
	lda     _Cube+4+1
	sbc     #$FF
	bvc     L0603
	eor     #$80
L0603:	asl     a
	lda     #$00
	tax
	bcc     L07E5
	lda     #$1E
	clc
	adc     _Cube+4
	sta     _Cube+4
	bcc     L0607
	inc     _Cube+4+1
;
; else Cube.vel_x = 0;
;
	jmp     L0607
L07E5:	sta     _Cube+4
	stx     _Cube+4+1
;
; Cube.x += Cube.vel_x;
;
L0607:	lda     _Cube+4
	clc
	adc     _Cube
	sta     _Cube
	lda     _Cube+4+1
	adc     _Cube+1
	sta     _Cube+1
;
; if(Cube.x > 0xf000) { // too far, don't wrap around
;
	lda     _Cube
	cmp     #$01
	lda     _Cube+1
	sbc     #$F0
	bcc     L07E8
;
; if(old_x >= 0x8000){
;
	lda     _old_x
	cmp     #$00
	lda     _old_x+1
	sbc     #$80
	lda     #$00
	tax
	bcc     L07E7
;
; Cube.x = 0xf000; // max right
;
	ldx     #$F0
;
; Cube.x = 0x0000; // max left
;
L07E7:	sta     _Cube
	stx     _Cube+1
;
; Cube.vel_x = 0;
;
	sta     _Cube+4
	sta     _Cube+4+1
;
; Generic.x = high_byte(Cube.x); // this is much faster than passing a pointer to Cube
;
L07E8:	lda     _Cube+1
	sta     _Generic
;
; Generic.y = high_byte(Cube.y);
;
	lda     _Cube+3
	sta     _Generic+1
;
; Generic.width = CUBE_WIDTH;
;
	lda     #$0D
	sta     _Generic+2
;
; Generic.height = CUBE_HEIGHT;
;
	lda     #$0B
	sta     _Generic+3
;
; if(Cube.vel_x < 0){
;
	ldx     _Cube+4+1
	cpx     #$80
	bcc     L0621
;
; if(bg_coll_L() ){ // check collision left
;
	jsr     _bg_coll_L
	tax
	beq     L063B
;
; high_byte(Cube.x) = high_byte(Cube.x) - eject_L;
;
	lda     _Cube+1
	sec
	sbc     _eject_L
	sta     _Cube+1
;
; Cube.vel_x = 0;
;
	lda     #$00
	sta     _Cube+4
	sta     _Cube+4+1
;
; if(Cube.x > 0xf000) {
;
	lda     _Cube
	cmp     #$01
	lda     _Cube+1
	sbc     #$F0
	bcc     L063B
;
; Cube.x = 0xf000;
;
	ldx     #$F0
;
; else if(Cube.vel_x > 0){
;
	jmp     L07EE
L0621:	lda     _Cube+4
	cmp     #$01
	lda     _Cube+4+1
	sbc     #$00
	bvs     L0632
	eor     #$80
L0632:	bpl     L063B
;
; if(bg_coll_R() ){ // check collision right
;
	jsr     _bg_coll_R
	tax
	beq     L063B
;
; high_byte(Cube.x) = high_byte(Cube.x) - eject_R;
;
	lda     _Cube+1
	sec
	sbc     _eject_R
	sta     _Cube+1
;
; Cube.vel_x = 0;
;
	lda     #$00
	sta     _Cube+4
	sta     _Cube+4+1
;
; if(Cube.x > 0xf000) {
;
	lda     _Cube
	cmp     #$01
	lda     _Cube+1
	sbc     #$F0
	bcc     L063B
;
; Cube.x = 0x0000;
;
	ldx     #$00
L07EE:	lda     #$00
	sta     _Cube
	stx     _Cube+1
;
; if(Cube.vel_y < 0x300){
;
L063B:	lda     _Cube+6
	cmp     #$00
	lda     _Cube+6+1
	sbc     #$03
	bvc     L0641
	eor     #$80
L0641:	bpl     L063F
;
; Cube.vel_y += GRAVITY;
;
	lda     #$4C
	clc
	adc     _Cube+6
	sta     _Cube+6
	bcc     L0645
	inc     _Cube+6+1
;
; else{
;
	jmp     L0645
;
; Cube.vel_y = 0x300; // consistent
;
L063F:	ldx     #$03
	lda     #$00
	sta     _Cube+6
	stx     _Cube+6+1
;
; Cube.y += Cube.vel_y;
;
L0645:	lda     _Cube+6
	clc
	adc     _Cube+2
	sta     _Cube+2
	lda     _Cube+6+1
	adc     _Cube+2+1
	sta     _Cube+2+1
;
; Generic.x = high_byte(Cube.x);
;
	lda     _Cube+1
	sta     _Generic
;
; Generic.y = high_byte(Cube.y);
;
	lda     _Cube+3
	sta     _Generic+1
;
; if(Cube.vel_y > 0){
;
	lda     _Cube+6
	cmp     #$01
	lda     _Cube+6+1
	sbc     #$00
	bvs     L0652
	eor     #$80
L0652:	bpl     L0650
;
; if(bg_coll_D() ){ // check collision below
;
	jsr     _bg_coll_D
	tax
	beq     L07E9
;
; high_byte(Cube.y) = high_byte(Cube.y) - eject_D;
;
	lda     _Cube+3
	sec
	sbc     _eject_D
	sta     _Cube+3
;
; Cube.y &= 0xff00;
;
	ldx     _Cube+2+1
	lda     #$00
	sta     _Cube+2
	stx     _Cube+2+1
;
; if(Cube.vel_y > 0) {
;
	lda     _Cube+6
	cmp     #$01
	lda     _Cube+6+1
	sbc     #$00
	bvs     L065D
	eor     #$80
L065D:	bpl     L07E9
;
; else if(Cube.vel_y < 0){
;
	jmp     L07EF
L0650:	ldx     _Cube+6+1
	cpx     #$80
	bcc     L07E9
;
; if(bg_coll_U() ){ // check collision above
;
	jsr     _bg_coll_U
	tax
	beq     L07E9
;
; high_byte(Cube.y) = high_byte(Cube.y) - eject_U;
;
	lda     _Cube+3
	sec
	sbc     _eject_U
	sta     _Cube+3
;
; Cube.vel_y = 0;
;
L07EF:	lda     #$00
	sta     _Cube+6
	sta     _Cube+6+1
;
; Generic.y = high_byte(Cube.y); // the rest should be the same
;
L07E9:	lda     _Cube+3
	sta     _Generic+1
;
; if(pad1_new & PAD_A) {
;
	lda     _pad1_new
	and     #$80
	beq     L0670
;
; if(bg_coll_D2() ) {
;
	jsr     _bg_coll_D2
	tax
	beq     L0670
;
; Cube.vel_y = JUMP_VEL; // JUMP
;
	ldx     #$FA
	lda     #$00
	sta     _Cube+6
	stx     _Cube+6+1
;
; if((scroll_x & 0xff) < 4){
;
L0670:	lda     _scroll_x
	cmp     #$04
	bcs     L07EA
;
; if(!map_loaded){
;
	lda     _map_loaded
	bne     L067D
;
; new_cmap();
;
	jsr     _new_cmap
;
; map_loaded = 1; // only do once
;
	lda     #$01
;
; else{
;
	jmp     L07E2
;
; map_loaded = 0;
;
L07EA:	lda     #$00
L07E2:	sta     _map_loaded
;
; temp5 = Cube.x;
;
L067D:	lda     _Cube+1
	sta     _temp5+1
	lda     _Cube
	sta     _temp5
;
; if (Cube.x > MAX_RIGHT){
;
	lda     _Cube
	cmp     #$01
	lda     _Cube+1
	sbc     #$90
	bcc     L0682
;
; temp1 = (Cube.x - MAX_RIGHT) >> 8;
;
	lda     _Cube+1
	sec
	sbc     #$90
	sta     _temp1
;
; if (temp1 > 3) temp1 = 3; // max scroll change
;
	cmp     #$04
	bcc     L07EB
	lda     #$03
	sta     _temp1
;
; scroll_x += temp1;
;
L07EB:	lda     _temp1
	clc
	adc     _scroll_x
	sta     _scroll_x
	lda     #$00
	adc     _scroll_x+1
	sta     _scroll_x+1
;
; high_byte(Cube.x) = high_byte(Cube.x) - temp1;
;
	lda     _Cube+1
	sec
	sbc     _temp1
	sta     _Cube+1
;
; if(scroll_x >= MAX_SCROLL) {
;
L0682:	lda     _scroll_x
	cmp     #$FF
	lda     _scroll_x+1
	sbc     #$03
	bcc     L069B
;
; scroll_x = MAX_SCROLL; // stop scrolling right, end of level
;
	ldx     #$03
	lda     #$FF
	sta     _scroll_x
	stx     _scroll_x+1
;
; Cube.x = temp5; // but allow the x position to go all the way right
;
	lda     _temp5+1
	sta     _Cube+1
	lda     _temp5
	sta     _Cube
;
; if(high_byte(Cube.x) >= 0xf1) {
;
	lda     _Cube+1
	cmp     #$F1
	bcc     L069B
;
; Cube.x = 0xf100;
;
	ldx     #$F1
	lda     #$00
	sta     _Cube
	stx     _Cube+1
;
; } 
;
L069B:	rts

.endproc

; ---------------------------------------------------------------
; void __near__ draw_screen_R (void)
; ---------------------------------------------------------------

.segment	"CODE"

.proc	_draw_screen_R: near

.segment	"CODE"

;
; pseudo_scroll_x = scroll_x + 0x120;
;
	lda     _scroll_x
	ldx     _scroll_x+1
	clc
	adc     #$20
	bcc     L074C
	inx
L074C:	inx
	sta     _pseudo_scroll_x
	stx     _pseudo_scroll_x+1
;
; temp1 = pseudo_scroll_x >> 8;
;
	lda     _pseudo_scroll_x+1
	sta     _temp1
;
; set_data_pointer(Rooms[temp1]);
;
	ldx     #$00
	lda     _temp1
	asl     a
	bcc     L07F2
	inx
	clc
L07F2:	adc     #<(_Rooms)
	sta     ptr1
	txa
	adc     #>(_Rooms)
	sta     ptr1+1
	ldy     #$01
	lda     (ptr1),y
	tax
	dey
	lda     (ptr1),y
	jsr     _set_data_pointer
;
; nt = temp1 & 1;
;
	lda     _temp1
	and     #$01
	sta     _nt
;
; x = pseudo_scroll_x & 0xff;
;
	lda     _pseudo_scroll_x
	sta     _x
;
; switch(scroll_count){
;
	lda     _scroll_count
;
; }
;
	beq     L075A
	cmp     #$01
	beq     L0773
	cmp     #$02
	jeq     L078D
	jmp     L07A6
;
; address = get_ppu_addr(nt, x, 0);
;
L075A:	jsr     decsp2
	lda     _nt
	ldy     #$01
	sta     (sp),y
	lda     _x
	dey
	sta     (sp),y
	tya
	jsr     _get_ppu_addr
	sta     _address
	stx     _address+1
;
; index = 0 + (x >> 4);
;
	lda     _x
	lsr     a
	lsr     a
	lsr     a
	lsr     a
	sta     _index
;
; buffer_4_mt(address, index); // ppu_address, index to the data
;
	lda     _address
	ldx     _address+1
	jsr     pushax
	lda     _index
	jsr     _buffer_4_mt
;
; address = get_ppu_addr(nt, x, 0x20);
;
	jsr     decsp2
	lda     _nt
	ldy     #$01
	sta     (sp),y
	lda     _x
	dey
	sta     (sp),y
	lda     #$20
	jsr     _get_ppu_addr
	sta     _address
	stx     _address+1
;
; index = 0x20 + (x >> 4);
;
	lda     _x
	lsr     a
	lsr     a
	lsr     a
	lsr     a
	clc
	adc     #$20
;
; break;
;
	jmp     L07F7
;
; address = get_ppu_addr(nt, x, 0x40);
;
L0773:	jsr     decsp2
	lda     _nt
	ldy     #$01
	sta     (sp),y
	lda     _x
	dey
	sta     (sp),y
	lda     #$40
	jsr     _get_ppu_addr
	sta     _address
	stx     _address+1
;
; index = 0x40 + (x >> 4);
;
	lda     _x
	lsr     a
	lsr     a
	lsr     a
	lsr     a
	clc
	adc     #$40
	sta     _index
;
; buffer_4_mt(address, index); // ppu_address, index to the data
;
	lda     _address
	ldx     _address+1
	jsr     pushax
	lda     _index
	jsr     _buffer_4_mt
;
; address = get_ppu_addr(nt, x, 0x60);
;
	jsr     decsp2
	lda     _nt
	ldy     #$01
	sta     (sp),y
	lda     _x
	dey
	sta     (sp),y
	lda     #$60
	jsr     _get_ppu_addr
	sta     _address
	stx     _address+1
;
; index = 0x60 + (x >> 4);
;
	lda     _x
	lsr     a
	lsr     a
	lsr     a
	lsr     a
	clc
	adc     #$60
;
; break;
;
	jmp     L07F7
;
; address = get_ppu_addr(nt, x, 0x80);
;
L078D:	jsr     decsp2
	lda     _nt
	ldy     #$01
	sta     (sp),y
	lda     _x
	dey
	sta     (sp),y
	lda     #$80
	jsr     _get_ppu_addr
	sta     _address
	stx     _address+1
;
; index = 0x80 + (x >> 4);
;
	lda     _x
	lsr     a
	lsr     a
	lsr     a
	lsr     a
	clc
	adc     #$80
	sta     _index
;
; buffer_4_mt(address, index); // ppu_address, index to the data
;
	lda     _address
	ldx     _address+1
	jsr     pushax
	lda     _index
	jsr     _buffer_4_mt
;
; address = get_ppu_addr(nt, x, 0xa0);
;
	jsr     decsp2
	lda     _nt
	ldy     #$01
	sta     (sp),y
	lda     _x
	dey
	sta     (sp),y
	lda     #$A0
	jsr     _get_ppu_addr
	sta     _address
	stx     _address+1
;
; index = 0xa0 + (x >> 4);
;
	lda     _x
	lsr     a
	lsr     a
	lsr     a
	lsr     a
	clc
	adc     #$A0
;
; break;
;
	jmp     L07F7
;
; address = get_ppu_addr(nt, x, 0xc0);
;
L07A6:	jsr     decsp2
	lda     _nt
	ldy     #$01
	sta     (sp),y
	lda     _x
	dey
	sta     (sp),y
	lda     #$C0
	jsr     _get_ppu_addr
	sta     _address
	stx     _address+1
;
; index = 0xc0 + (x >> 4);
;
	lda     _x
	lsr     a
	lsr     a
	lsr     a
	lsr     a
	clc
	adc     #$C0
	sta     _index
;
; buffer_4_mt(address, index); // ppu_address, index to the data
;
	lda     _address
	ldx     _address+1
	jsr     pushax
	lda     _index
	jsr     _buffer_4_mt
;
; address = get_ppu_addr(nt, x, 0xe0);
;
	jsr     decsp2
	lda     _nt
	ldy     #$01
	sta     (sp),y
	lda     _x
	dey
	sta     (sp),y
	lda     #$E0
	jsr     _get_ppu_addr
	sta     _address
	stx     _address+1
;
; index = 0xe0 + (x >> 4);
;
	lda     _x
	lsr     a
	lsr     a
	lsr     a
	lsr     a
	clc
	adc     #$E0
L07F7:	sta     _index
;
; buffer_4_mt(address, index); // ppu_address, index to the data
;
	lda     _address
	ldx     _address+1
	jsr     pushax
	lda     _index
	jsr     _buffer_4_mt
;
; ++scroll_count;
;
	inc     _scroll_count
;
; scroll_count &= 3; //mask off top bits, keep it 0-3
;
	lda     _scroll_count
	and     #$03
	sta     _scroll_count
;
; }
;
	rts

.endproc

; ---------------------------------------------------------------
; void __near__ new_cmap (void)
; ---------------------------------------------------------------

.segment	"CODE"

.proc	_new_cmap: near

.segment	"CODE"

;
; room = ((scroll_x >> 8) +1); //high byte = room, one to the right
;
	lda     _scroll_x+1
	clc
	adc     #$01
	sta     _room
;
; map = room & 1; //even or odd?
;
	and     #$01
	sta     _map
;
; if(!map){
;
	lda     _map
	bne     L07CA
;
; memcpy (c_map, Rooms[room], 240);
;
	lda     #<(_c_map)
	ldx     #>(_c_map)
	jsr     pushax
	ldx     #$00
	lda     _room
	asl     a
	bcc     L07FA
	inx
	clc
L07FA:	adc     #<(_Rooms)
	sta     ptr1
	txa
	adc     #>(_Rooms)
	sta     ptr1+1
	ldy     #$01
	lda     (ptr1),y
	tax
	dey
	lda     (ptr1),y
	jsr     pushax
	ldx     #$00
	lda     #$F0
	jmp     _memcpy
;
; memcpy (c_map2, Rooms[room], 240);
;
L07CA:	lda     #<(_c_map2)
	ldx     #>(_c_map2)
	jsr     pushax
	ldx     #$00
	lda     _room
	asl     a
	bcc     L07FB
	inx
	clc
L07FB:	adc     #<(_Rooms)
	sta     ptr1
	txa
	adc     #>(_Rooms)
	sta     ptr1+1
	ldy     #$01
	lda     (ptr1),y
	tax
	dey
	lda     (ptr1),y
	jsr     pushax
	ldx     #$00
	lda     #$F0
	jmp     _memcpy

.endproc

; ---------------------------------------------------------------
; char __near__ bg_collision_sub (void)
; ---------------------------------------------------------------

.segment	"CODE"

.proc	_bg_collision_sub: near

.segment	"CODE"

;
; if(temp_y >= 0xf0) return 0;
;
	lda     _temp_y
	cmp     #$F0
	ldx     #$00
	bcc     L07FE
	txa
	rts
;
; coordinates = (temp_x >> 4) + (temp_y & 0xf0);
;
L07FE:	lda     _temp_x
	lsr     a
	lsr     a
	lsr     a
	lsr     a
	sta     ptr1
	lda     _temp_y
	and     #$F0
	clc
	adc     ptr1
	sta     _coordinates
;
; map = temp_room&1; // high byte
;
	lda     _temp_room
	and     #$01
	sta     _map
;
; if(!map){
;
	lda     _map
	bne     L073B
;
; collision = c_map[coordinates];
;
	ldy     _coordinates
	lda     _c_map,y
;
; else{
;
	jmp     L07FD
;
; collision = c_map2[coordinates];
;
L073B:	ldy     _coordinates
	lda     _c_map2,y
L07FD:	sta     _collision
;
; return is_solid[collision];
;
	ldy     _collision
	lda     _is_solid,y
;
; }
;
	rts

.endproc

; ---------------------------------------------------------------
; char __near__ bg_coll_L (void)
; ---------------------------------------------------------------

.segment	"CODE"

.proc	_bg_coll_L: near

.segment	"CODE"

;
; temp5 = Generic.x + scroll_x;
;
	lda     _Generic
	clc
	adc     _scroll_x
	sta     _temp5
	lda     #$00
	adc     _scroll_x+1
	sta     _temp5+1
;
; temp_x = (char)temp5; // low byte
;
	lda     _temp5
	sta     _temp_x
;
; temp_room = temp5 >> 8; // high byte
;
	lda     _temp5+1
	sta     _temp_room
;
; eject_L = temp_x | 0xf0;
;
	lda     _temp_x
	ora     #$F0
	sta     _eject_L
;
; temp_y = Generic.y + 2;
;
	lda     _Generic+1
	clc
	adc     #$02
	sta     _temp_y
;
; if(bg_collision_sub() & COL_ALL) return 1;
;
	jsr     _bg_collision_sub
	and     #$40
	beq     L0801
	ldx     #$00
	lda     #$01
	rts
;
; temp_y = Generic.y + Generic.height;
;
L0801:	lda     _Generic+1
	clc
	adc     _Generic+3
	sta     _temp_y
;
; temp_y -= 2;
;
	sec
	sbc     #$02
	sta     _temp_y
;
; if(bg_collision_sub() & COL_ALL) return 1;
;
	jsr     _bg_collision_sub
	ldx     #$00
	and     #$40
	beq     L0803
	lda     #$01
	rts
;
; }
;
L0803:	rts

.endproc

; ---------------------------------------------------------------
; char __near__ bg_coll_R (void)
; ---------------------------------------------------------------

.segment	"CODE"

.proc	_bg_coll_R: near

.segment	"CODE"

;
; temp5 = Generic.x + scroll_x + Generic.width;
;
	lda     _Generic
	clc
	adc     _scroll_x
	pha
	lda     #$00
	adc     _scroll_x+1
	tax
	pla
	clc
	adc     _Generic+2
	bcc     L0804
	inx
L0804:	sta     _temp5
	stx     _temp5+1
;
; temp_x = (char)temp5; // low byte
;
	lda     _temp5
	sta     _temp_x
;
; temp_room = temp5 >> 8; // high byte
;
	lda     _temp5+1
	sta     _temp_room
;
; eject_R = (temp_x + 1) & 0x0f;
;
	lda     _temp_x
	clc
	adc     #$01
	and     #$0F
	sta     _eject_R
;
; temp_y = Generic.y + 2;
;
	lda     _Generic+1
	clc
	adc     #$02
	sta     _temp_y
;
; if(bg_collision_sub() & COL_ALL) return 1;
;
	jsr     _bg_collision_sub
	and     #$40
	beq     L0806
	ldx     #$00
	lda     #$01
	rts
;
; temp_y = Generic.y + Generic.height;
;
L0806:	lda     _Generic+1
	clc
	adc     _Generic+3
	sta     _temp_y
;
; temp_y -= 2;
;
	sec
	sbc     #$02
	sta     _temp_y
;
; if(bg_collision_sub() & COL_ALL) return 1;
;
	jsr     _bg_collision_sub
	ldx     #$00
	and     #$40
	beq     L0808
	lda     #$01
	rts
;
; }
;
L0808:	rts

.endproc

; ---------------------------------------------------------------
; char __near__ bg_coll_U (void)
; ---------------------------------------------------------------

.segment	"CODE"

.proc	_bg_coll_U: near

.segment	"CODE"

;
; temp5 = Generic.x + scroll_x;
;
	lda     _Generic
	clc
	adc     _scroll_x
	sta     _temp5
	lda     #$00
	adc     _scroll_x+1
	sta     _temp5+1
;
; temp5 += 2;
;
	lda     #$02
	clc
	adc     _temp5
	sta     _temp5
	bcc     L06D5
	inc     _temp5+1
;
; temp_x = (char)temp5; // low byte
;
L06D5:	lda     _temp5
	sta     _temp_x
;
; temp_room = temp5 >> 8; // high byte
;
	lda     _temp5+1
	sta     _temp_room
;
; temp_y = Generic.y;
;
	lda     _Generic+1
	sta     _temp_y
;
; eject_U = temp_y | 0xf0;
;
	ora     #$F0
	sta     _eject_U
;
; if(bg_collision_sub() & COL_ALL) return 1;
;
	jsr     _bg_collision_sub
	and     #$40
	beq     L080A
	ldx     #$00
	lda     #$01
	rts
;
; temp5 = Generic.x + scroll_x + Generic.width;
;
L080A:	lda     _Generic
	clc
	adc     _scroll_x
	pha
	lda     #$00
	adc     _scroll_x+1
	tax
	pla
	clc
	adc     _Generic+2
	bcc     L0809
	inx
L0809:	sta     _temp5
	stx     _temp5+1
;
; temp5 -= 2;
;
	lda     _temp5
	sec
	sbc     #$02
	sta     _temp5
	bcs     L06E5
	dec     _temp5+1
;
; temp_x = (char)temp5; // low byte
;
L06E5:	lda     _temp5
	sta     _temp_x
;
; temp_room = temp5 >> 8; // high byte
;
	lda     _temp5+1
	sta     _temp_room
;
; if(bg_collision_sub() & COL_ALL) return 1;
;
	jsr     _bg_collision_sub
	ldx     #$00
	and     #$40
	beq     L080C
	lda     #$01
	rts
;
; }
;
L080C:	rts

.endproc

; ---------------------------------------------------------------
; char __near__ bg_coll_D (void)
; ---------------------------------------------------------------

.segment	"CODE"

.proc	_bg_coll_D: near

.segment	"CODE"

;
; temp5 = Generic.x + scroll_x;
;
	lda     _Generic
	clc
	adc     _scroll_x
	sta     _temp5
	lda     #$00
	adc     _scroll_x+1
	sta     _temp5+1
;
; temp5 += 2;
;
	lda     #$02
	clc
	adc     _temp5
	sta     _temp5
	bcc     L06F3
	inc     _temp5+1
;
; temp_x = (char)temp5; // low byte
;
L06F3:	lda     _temp5
	sta     _temp_x
;
; temp_room = temp5 >> 8; // high byte
;
	lda     _temp5+1
	sta     _temp_room
;
; temp_y = Generic.y + Generic.height;
;
	lda     _Generic+1
	clc
	adc     _Generic+3
	sta     _temp_y
;
; if((temp_y & 0x0f) > 3) return 0; // bug fix
;
	and     #$0F
	cmp     #$04
	lda     #$00
	sbc     #$00
	bvs     L06FD
	eor     #$80
L06FD:	asl     a
	lda     #$00
	bcc     L0810
	tax
	rts
;
; eject_D = (temp_y + 1) & 0x0f;
;
L0810:	lda     _temp_y
	clc
	adc     #$01
	and     #$0F
	sta     _eject_D
;
; if(bg_collision_sub() ) return 1;
;
	jsr     _bg_collision_sub
	tax
	beq     L0811
	ldx     #$00
	lda     #$01
	rts
;
; temp5 = Generic.x + scroll_x + Generic.width;
;
L0811:	lda     _Generic
	clc
	adc     _scroll_x
	pha
	txa
	adc     _scroll_x+1
	tax
	pla
	clc
	adc     _Generic+2
	bcc     L080E
	inx
L080E:	sta     _temp5
	stx     _temp5+1
;
; temp5 -= 2;
;
	lda     _temp5
	sec
	sbc     #$02
	sta     _temp5
	bcs     L070A
	dec     _temp5+1
;
; temp_x = (char)temp5; // low byte
;
L070A:	lda     _temp5
	sta     _temp_x
;
; temp_room = temp5 >> 8; // high byte
;
	lda     _temp5+1
	sta     _temp_room
;
; if(bg_collision_sub() ) return 1;
;
	jsr     _bg_collision_sub
	tax
	beq     L0812
	ldx     #$00
	lda     #$01
	rts
;
; }
;
L0812:	rts

.endproc

; ---------------------------------------------------------------
; char __near__ bg_coll_D2 (void)
; ---------------------------------------------------------------

.segment	"CODE"

.proc	_bg_coll_D2: near

.segment	"CODE"

;
; temp5 = Generic.x + scroll_x;
;
	lda     _Generic
	clc
	adc     _scroll_x
	sta     _temp5
	lda     #$00
	adc     _scroll_x+1
	sta     _temp5+1
;
; temp5 += 2;
;
	lda     #$02
	clc
	adc     _temp5
	sta     _temp5
	bcc     L0718
	inc     _temp5+1
;
; temp_x = (char)temp5; // low byte
;
L0718:	lda     _temp5
	sta     _temp_x
;
; temp_room = temp5 >> 8; // high byte
;
	lda     _temp5+1
	sta     _temp_room
;
; temp_y = Generic.y + Generic.height;
;
	lda     _Generic+1
	clc
	adc     _Generic+3
	sta     _temp_y
;
; temp_y += 2;
;
	lda     #$02
	clc
	adc     _temp_y
	sta     _temp_y
;
; if(bg_collision_sub() ) return 1;
;
	jsr     _bg_collision_sub
	tax
	beq     L0815
	ldx     #$00
	lda     #$01
	rts
;
; temp5 = Generic.x + scroll_x + Generic.width;
;
L0815:	lda     _Generic
	clc
	adc     _scroll_x
	pha
	txa
	adc     _scroll_x+1
	tax
	pla
	clc
	adc     _Generic+2
	bcc     L0814
	inx
L0814:	sta     _temp5
	stx     _temp5+1
;
; temp5 -= 2;
;
	lda     _temp5
	sec
	sbc     #$02
	sta     _temp5
	bcs     L0728
	dec     _temp5+1
;
; temp_x = (char)temp5; // low byte
;
L0728:	lda     _temp5
	sta     _temp_x
;
; temp_room = temp5 >> 8; // high byte
;
	lda     _temp5+1
	sta     _temp_room
;
; if(bg_collision_sub() ) return 1;
;
	jsr     _bg_collision_sub
	tax
	beq     L0817
	ldx     #$00
	lda     #$01
	rts
;
; }
;
L0817:	rts

.endproc

; ---------------------------------------------------------------
; void __near__ main (void)
; ---------------------------------------------------------------

.segment	"CODE"

.proc	_main: near

.segment	"CODE"

;
; ppu_off(); // screen off
;
	jsr     _ppu_off
;
; pal_bg(palette_bg);
;
	lda     #<(_palette_bg)
	ldx     #>(_palette_bg)
	jsr     _pal_bg
;
; pal_spr(palette_sp);
;
	lda     #<(_palette_sp)
	ldx     #>(_palette_sp)
	jsr     _pal_spr
;
; bank_spr(1);
;
	lda     #$01
	jsr     _bank_spr
;
; set_vram_buffer(); // do at least once
;
	jsr     _set_vram_buffer
;
; load_room();
;
	jsr     _load_room
;
; ppu_on_all(); // turn on screen
;
	jsr     _ppu_on_all
;
; ppu_wait_nmi(); // wait till beginning of the frame
;
L0551:	jsr     _ppu_wait_nmi
;
; pad1 = pad_poll(0); // read the first controller
;
	lda     #$00
	jsr     _pad_poll
	sta     _pad1
;
; pad1_new = get_pad_new(0);
;
	lda     #$00
	jsr     _get_pad_new
	sta     _pad1_new
;
; movement();
;
	jsr     _movement
;
; set_scroll_x(scroll_x);
;
	lda     _scroll_x
	ldx     _scroll_x+1
	jsr     _set_scroll_x
;
; set_scroll_y(scroll_y);
;
	lda     _scroll_y
	ldx     _scroll_y+1
	jsr     _set_scroll_y
;
; draw_screen_R();
;
	jsr     _draw_screen_R
;
; draw_sprites();
;
	jsr     _draw_sprites
;
; while (1){
;
	jmp     L0551

.endproc

